Archive member included to satisfy reference by file (symbol)

../libssl_s.a(cipherSuite.o)  sslTest.o (sslGetDefinedCipherSpec)
../libssl_s.a(dtls.o)         sslTest.o (matrixDtlsGetOutdata)
../libssl_s.a(hsHash.o)       ../libssl_s.a(dtls.o) (sslUpdateHSHash)
../libssl_s.a(hsNegotiateVersion.o)
                              ../libssl_s.a(cipherSuite.o) (psEncodeVersionMin)
../libssl_s.a(matrixssl.o)    sslTest.o (matrixSslOpenWithConfig)
../libssl_s.a(matrixsslKeys.o)
                              sslTest.o (matrixSslLoadRsaKeysMem)
../libssl_s.a(matrixsslApi.o)
                              sslTest.o (matrixSslNewClientSession)
../libssl_s.a(matrixsslInitVer.o)
                              ../libssl_s.a(matrixssl.o) (initSupportedVersions)
../libssl_s.a(prf.o)          ../libssl_s.a(hsHash.o) (prf)
../libssl_s.a(psk.o)          sslTest.o (matrixSslLoadPsk)
../libssl_s.a(sslDecode.o)    ../libssl_s.a(matrixsslApi.o) (matrixSslDecode)
../libssl_s.a(sslEncode.o)    ../libssl_s.a(matrixsslApi.o) (matrixSslGetEncodedSize)
../libssl_s.a(tlsDefaults.o)  ../libssl_s.a(matrixssl.o) (getDefaultSigAlgs)
../libssl_s.a(tlsSelectKeys.o)
                              sslTest.o (matrixSslSetClientIdentity)
../libssl_s.a(tlsSigVer.o)    ../libssl_s.a(sslEncode.o) (tlsPrepareSkeSignature)
../libssl_s.a(tls13CipherSuite.o)
                              ../libssl_s.a(cipherSuite.o) (csAesGcmInitTls13)
../libssl_s.a(tls13Encode.o)  ../libssl_s.a(sslEncode.o) (tls13GetPadLen)
../libssl_s.a(tls13EncodeExt.o)
                              ../libssl_s.a(tls13Encode.o) (tls13WriteSigAlgs)
../libssl_s.a(tls13Decode.o)  ../libssl_s.a(sslDecode.o) (matrixSslDecodeTls13)
../libssl_s.a(tls13DecodeExt.o)
                              ../libssl_s.a(tls13Decode.o) (tls13ExtensionAllowedInMessage)
../libssl_s.a(tls13KeyAgree.o)
                              ../libssl_s.a(tls13DecodeExt.o) (tls13ImportPublicValue)
../libssl_s.a(tls13KeySchedule.o)
                              ../libssl_s.a(tls13Decode.o) (tls13GenerateEarlySecret)
../libssl_s.a(tls13Negotiate.o)
                              ../libssl_s.a(cipherSuite.o) (tls13TryNegotiateParams)
../libssl_s.a(tls13Psk.o)     ../libssl_s.a(tls13Decode.o) (tls13NewPsk)
../libssl_s.a(tls13Resume.o)  ../libssl_s.a(tls13Decode.o) (tls13DeriveResumptionPsk)
../libssl_s.a(tls13SigVer.o)  ../libssl_s.a(tls13Encode.o) (tls13ChooseSigAlg)
../libssl_s.a(tls13TrHash.o)  ../libssl_s.a(hsHash.o) (tls13TranscriptHashInit)
../libssl_s.a(tls.o)          ../libssl_s.a(sslEncode.o) (tlsExtendedDeriveKeys)
../libssl_s.a(hsDecode.o)     ../libssl_s.a(sslDecode.o) (parseClientHello)
../libssl_s.a(tls13Authenticate.o)
                              ../libssl_s.a(tls13Decode.o) (tls13ValidateCertChain)
../libssl_s.a(extDecode.o)    ../libssl_s.a(hsDecode.o) (parseClientHelloExtensions)
../../crypto/libcrypt_s.a(alg_info.o)
                              ../libssl_s.a(cipherSuite.o) (psGetOutputBlockLength)
../../crypto/libcrypt_s.a(aes_aesni.o)
                              ../libssl_s.a(matrixssl.o) (psAesClearCBC)
../../crypto/libcrypt_s.a(sha1.o)
                              ../libssl_s.a(hsHash.o) (psSha1Init)
../../crypto/libcrypt_s.a(sha256.o)
                              ../libssl_s.a(hsHash.o) (psSha256Init)
../../crypto/libcrypt_s.a(sha512.o)
                              ../libssl_s.a(hsHash.o) (psSha512Init)
../../crypto/libcrypt_s.a(md5sha1.o)
                              ../libssl_s.a(hsHash.o) (psMd5Sha1Init)
../../crypto/libcrypt_s.a(md5.o)
                              ../../crypto/libcrypt_s.a(md5sha1.o) (psMd5Init)
../../crypto/libcrypt_s.a(hmac.o)
                              ../libssl_s.a(tls.o) (psHmacInit)
../../crypto/libcrypt_s.a(hkdf.o)
                              ../libssl_s.a(tls13KeySchedule.o) (psHkdfExtract)
../../crypto/libcrypt_s.a(pem_decode_mem.o)
                              ../libssl_s.a(matrixsslKeys.o) (psPemTryDecode)
../../crypto/libcrypt_s.a(pkcs.o)
                              ../libssl_s.a(matrixsslKeys.o) (psPkcs12ParseMem)
../../crypto/libcrypt_s.a(x509.o)
                              ../libssl_s.a(matrixssl.o) (psX509ValidateGeneralName)
../../crypto/libcrypt_s.a(matrix.o)
                              ../libssl_s.a(matrixssl.o) (psCryptoOpen)
../../crypto/libcrypt_s.a(pstm.o)
                              ../../crypto/libcrypt_s.a(pkcs.o) (pstm_clear)
../../crypto/libcrypt_s.a(pstmnt.o)
                              ../../crypto/libcrypt_s.a(pstm.o) (pstmnt_neg_small_inv)
../../crypto/libcrypt_s.a(pstm_mul_comba.o)
                              ../../crypto/libcrypt_s.a(pstm.o) (pstm_mul_comba)
../../crypto/libcrypt_s.a(pstm_sqr_comba.o)
                              ../../crypto/libcrypt_s.a(pstmnt.o) (pstm_sqr_comba)
../../crypto/libcrypt_s.a(prng.o)
                              ../../crypto/libcrypt_s.a(matrix.o) (psOpenPrng)
../../crypto/libcrypt_s.a(dh.o)
                              ../libssl_s.a(matrixssl.o) (psDhClearKey)
../../crypto/libcrypt_s.a(dh_params.o)
                              ../libssl_s.a(matrixsslKeys.o) (psPkcs3ParseDhParamBin)
../../crypto/libcrypt_s.a(dh_export.o)
                              ../libssl_s.a(sslEncode.o) (psDhExportPubKey)
../../crypto/libcrypt_s.a(dh_import.o)
                              ../libssl_s.a(tls13KeyAgree.o) (psDhImportPubKey)
../../crypto/libcrypt_s.a(dh_gen_key.o)
                              ../libssl_s.a(hsDecode.o) (psDhGenKey)
../../crypto/libcrypt_s.a(dh_gen_secret.o)
                              ../libssl_s.a(sslEncode.o) (psDhGenSharedSecret)
../../crypto/libcrypt_s.a(ecc.o)
                              ../libssl_s.a(tls13KeyAgree.o) (psEccInitKey)
../../crypto/libcrypt_s.a(ecc_curve.o)
                              ../libssl_s.a(matrixsslKeys.o) (psEccSize)
../../crypto/libcrypt_s.a(ecc_curve_data.o)
                              ../../crypto/libcrypt_s.a(ecc_curve.o) (eccCurves)
../../crypto/libcrypt_s.a(ecc_curve_config.o)
                              ../libssl_s.a(tls13KeyAgree.o) (getEccParamById)
../../crypto/libcrypt_s.a(ecc_priv.o)
                              ../libssl_s.a(sslEncode.o) (psEccDsaSign)
../../crypto/libcrypt_s.a(ecc_pub.o)
                              ../libssl_s.a(hsDecode.o) (psEccDsaVerify)
../../crypto/libcrypt_s.a(ecc_keygen.o)
                              ../../crypto/libcrypt_s.a(ecc_priv.o) (psEccGenerateScalar)
../../crypto/libcrypt_s.a(ecc_gen_shared.o)
                              ../libssl_s.a(sslEncode.o) (psEccGenSharedSecret)
../../crypto/libcrypt_s.a(ecc_parse_mem.o)
                              ../../crypto/libcrypt_s.a(x509.o) (getEcPubKey)
../../crypto/libcrypt_s.a(ecc_export.o)
                              ../libssl_s.a(sslEncode.o) (psEccX963ExportKey)
../../crypto/libcrypt_s.a(ecc_import.o)
                              ../libssl_s.a(tls13KeyAgree.o) (psEccX963ImportKey)
../../crypto/libcrypt_s.a(pubkey.o)
                              ../libssl_s.a(matrixsslKeys.o) (psInitPubKey)
../../crypto/libcrypt_s.a(pubkey_sign.o)
                              ../libssl_s.a(tlsSigVer.o) (psSignHash)
../../crypto/libcrypt_s.a(pubkey_verify.o)
                              ../libssl_s.a(tlsSigVer.o) (psVerifySig)
../../crypto/libcrypt_s.a(pubkey_parse_file.o)
                              ../libssl_s.a(matrixsslKeys.o) (psPkcs8ParsePrivBin)
../../crypto/libcrypt_s.a(rsa.o)
                              ../../crypto/libcrypt_s.a(pubkey.o) (psRsaInitKey)
../../crypto/libcrypt_s.a(rsa_priv.o)
                              ../libssl_s.a(sslEncode.o) (privRsaEncryptSignedElement)
../../crypto/libcrypt_s.a(rsa_pub.o)
                              ../libssl_s.a(hsDecode.o) (pubRsaDecryptSignedElement)
../../crypto/libcrypt_s.a(rsa_parse_mem.o)
                              ../../crypto/libcrypt_s.a(x509.o) (psRsaParseAsnPubKey)
../../crypto/libcrypt_s.a(rsa_parse_file.o)
                              ../../crypto/libcrypt_s.a(pubkey_parse_file.o) (psPkcs1ParsePubFile)
../../crypto/libcrypt_s.a(ps_chacha20poly1305ietf.o)
                              ../libssl_s.a(cipherSuite.o) (psChacha20Poly1305IetfInit)
../../crypto/libcrypt_s.a(aead_chacha20poly1305.o)
                              ../../crypto/libcrypt_s.a(ps_chacha20poly1305ietf.o) (psCrypto_aead_chacha20poly1305_ietf_encrypt_detached)
../../crypto/libcrypt_s.a(utils.o)
                              ../../crypto/libcrypt_s.a(aead_chacha20poly1305.o) (psSodium_memzero)
../../crypto/libcrypt_s.a(verify.o)
                              ../../crypto/libcrypt_s.a(aead_chacha20poly1305.o) (psCrypto_verify_16)
../../crypto/libcrypt_s.a(runtime.o)
                              ../../crypto/libcrypt_s.a(ps_chacha20poly1305ietf.o) (psSodium_runtime_get_cpu_features)
../../crypto/libcrypt_s.a(ps_x25519.o)
                              ../libssl_s.a(tls13KeyAgree.o) (psDhX25519GenSharedSecret)
../../crypto/libcrypt_s.a(ps_ed25519.o)
                              ../../crypto/libcrypt_s.a(pubkey_sign.o) (psEd25519Sign)
../../crypto/libcrypt_s.a(digest_info.o)
                              ../../crypto/libcrypt_s.a(rsa_pub.o) (psGetDigestInfoPrefix)
../../crypto/libcrypt_s.a(des3.o)
                              ../../crypto/libcrypt_s.a(pem_decode_mem.o) (psDes3Init)
../../crypto/libcrypt_s.a(asn1.o)
                              ../../crypto/libcrypt_s.a(x509.o) (getAsnTagLenUnsafe)
../../crypto/libcrypt_s.a(base64.o)
                              ../../crypto/libcrypt_s.a(pem_decode_mem.o) (psBase64decode)
../../crypto/libcrypt_s.a(crl.o)
                              ../../crypto/libcrypt_s.a(matrix.o) (psCrlOpen)
../../crypto/libcrypt_s.a(pem_decode_file.o)
                              ../../crypto/libcrypt_s.a(pubkey_parse_file.o) (psPemFileToDer)
../../crypto/libcrypt_s.a(ecc_math.o)
                              ../../crypto/libcrypt_s.a(ecc_import.o) (eccTestPoint)
../../crypto/libcrypt_s.a(ecc_parse_file.o)
                              ../../crypto/libcrypt_s.a(pubkey_parse_file.o) (psEccParsePrivFile)
../../crypto/libcrypt_s.a(pubkey_parse_mem.o)
                              ../../crypto/libcrypt_s.a(pubkey_parse_file.o) (psParseUnknownPrivKeyMem)
../../crypto/libcrypt_s.a(stream_chacha20.o)
                              ../../crypto/libcrypt_s.a(aead_chacha20poly1305.o) (psCrypto_stream_chacha20)
../../crypto/libcrypt_s.a(onetimeauth_poly1305.o)
                              ../../crypto/libcrypt_s.a(aead_chacha20poly1305.o) (psCrypto_onetimeauth_poly1305_init)
../../crypto/libcrypt_s.a(crypto_scalarmult.o)
                              ../../crypto/libcrypt_s.a(ps_x25519.o) (psSodium_crypto_scalarmult)
../../crypto/libcrypt_s.a(sign.o)
                              ../../crypto/libcrypt_s.a(ps_ed25519.o) (psSodium_crypto_sign_ed25519_detached)
../../crypto/libcrypt_s.a(open.o)
                              ../../crypto/libcrypt_s.a(ps_ed25519.o) (psSodium_crypto_sign_ed25519_verify_detached)
../../crypto/libcrypt_s.a(pstm_montgomery_reduce.o)
                              ../../crypto/libcrypt_s.a(ecc_math.o) (pstm_montgomery_reduce)
../../crypto/libcrypt_s.a(poly1305_sse2.o)
                              ../../crypto/libcrypt_s.a(onetimeauth_poly1305.o) (psCrypto_onetimeauth_poly1305_sse2_implementation)
../../crypto/libcrypt_s.a(poly1305_donna.o)
                              ../../crypto/libcrypt_s.a(onetimeauth_poly1305.o) (psCrypto_onetimeauth_poly1305_donna_implementation)
../../crypto/libcrypt_s.a(chacha20_dolbeau-ssse3.o)
                              ../../crypto/libcrypt_s.a(stream_chacha20.o) (psCrypto_stream_chacha20_dolbeau_ssse3_implementation)
../../crypto/libcrypt_s.a(chacha20_ref.o)
                              ../../crypto/libcrypt_s.a(stream_chacha20.o) (psCrypto_stream_chacha20_ref_implementation)
../../crypto/libcrypt_s.a(scalarmult_curve25519.o)
                              ../../crypto/libcrypt_s.a(crypto_scalarmult.o) (psSodium_crypto_scalarmult_curve25519)
../../crypto/libcrypt_s.a(x25519_ref10.o)
                              ../../crypto/libcrypt_s.a(scalarmult_curve25519.o) (psSodium_crypto_scalarmult_curve25519_ref10_implementation)
../../crypto/libcrypt_s.a(ed25519_ref10.o)
                              ../../crypto/libcrypt_s.a(x25519_ref10.o) (psSodium_fe25519_frombytes)
../../core/libcore_s.a(memset_s.o)
                              ../libssl_s.a(cipherSuite.o) (memset_s)
../../core/libcore_s.a(corelib_main.o)
                              ../../crypto/libcrypt_s.a(matrix.o) (psCoreOpen)
../../core/libcore_s.a(corelib_trace.o)
                              ../libssl_s.a(cipherSuite.o) (_psError)
../../core/libcore_s.a(corelib_date.o)
                              ../../crypto/libcrypt_s.a(x509.o) (psBrokenDownTimeAdd)
../../core/libcore_s.a(corelib_strings.o)
                              ../../core/libcore_s.a(corelib_trace.o) (psMem2Str)
../../core/libcore_s.a(corelib_list.o)
                              ../../crypto/libcrypt_s.a(pem_decode_mem.o) (psFreeList)
../../core/libcore_s.a(psbuf.o)
                              ../libssl_s.a(tls13Encode.o) (psDynBufInit)
../../core/libcore_s.a(psStat.o)
                              sslTest.o (psStatCompByteSeq)
../../core/libcore_s.a(osdep.o)
                              ../../core/libcore_s.a(corelib_main.o) (osdepTimeOpen)
../../core/libcore_s.a(cl_memset.o)
                              ../../core/libcore_s.a(memset_s.o) (SLSodium_memset_s_int)
/usr/lib/x86_64-linux-gnu/libc_nonshared.a(elf-init.oS)
                              /usr/lib/gcc/x86_64-linux-gnu/11/../../../x86_64-linux-gnu/Scrt1.o (__libc_csu_init)

Merging program properties


As-needed library included to satisfy reference by file (symbol)

libpthread.so.0               ../../crypto/libcrypt_s.a(utils.o) (__errno_location@@GLIBC_2.2.5)
libc.so.6                     ../libssl_s.a(matrixsslApi.o) (strcpy@@GLIBC_2.2.5)

Discarded input sections

 .rodata.cst4   0x0000000000000000        0x4 /usr/lib/gcc/x86_64-linux-gnu/11/../../../x86_64-linux-gnu/Scrt1.o
 .data          0x0000000000000000        0x4 /usr/lib/gcc/x86_64-linux-gnu/11/../../../x86_64-linux-gnu/Scrt1.o
 .bss           0x0000000000000000        0x0 /usr/lib/gcc/x86_64-linux-gnu/11/../../../x86_64-linux-gnu/Scrt1.o
 .note.GNU-stack
                0x0000000000000000        0x0 /usr/lib/gcc/x86_64-linux-gnu/11/../../../x86_64-linux-gnu/Scrt1.o
 .text          0x0000000000000000        0x0 /usr/lib/gcc/x86_64-linux-gnu/11/../../../x86_64-linux-gnu/crti.o
 .data          0x0000000000000000        0x0 /usr/lib/gcc/x86_64-linux-gnu/11/../../../x86_64-linux-gnu/crti.o
 .bss           0x0000000000000000        0x0 /usr/lib/gcc/x86_64-linux-gnu/11/../../../x86_64-linux-gnu/crti.o
 .note.gnu.property
                0x0000000000000000       0x20 /usr/lib/gcc/x86_64-linux-gnu/11/../../../x86_64-linux-gnu/crti.o
 .note.GNU-stack
                0x0000000000000000        0x0 /usr/lib/gcc/x86_64-linux-gnu/11/../../../x86_64-linux-gnu/crti.o
 .data          0x0000000000000000        0x0 /usr/lib/gcc/x86_64-linux-gnu/11/crtbeginS.o
 .note.GNU-stack
                0x0000000000000000        0x0 /usr/lib/gcc/x86_64-linux-gnu/11/crtbeginS.o
 .note.gnu.property
                0x0000000000000000       0x20 /usr/lib/gcc/x86_64-linux-gnu/11/crtbeginS.o
 .text          0x0000000000000000        0x0 sslTest.o
 .data          0x0000000000000000        0x0 sslTest.o
 .bss           0x0000000000000000        0x0 sslTest.o
 .text.testCiphersuite
                0x0000000000000000       0x31 sslTest.o
 .note.GNU-stack
                0x0000000000000000        0x0 sslTest.o
 .note.gnu.property
                0x0000000000000000       0x20 sslTest.o
 .text          0x0000000000000000        0x0 ../libssl_s.a(cipherSuite.o)
 .data          0x0000000000000000        0x0 ../libssl_s.a(cipherSuite.o)
 .bss           0x0000000000000000        0x0 ../libssl_s.a(cipherSuite.o)
 .text.csChacha20Poly1305IetfEncrypt
                0x0000000000000000      0x1b9 ../libssl_s.a(cipherSuite.o)
 .text.csChacha20Poly1305IetfDecrypt
                0x0000000000000000      0x1bc ../libssl_s.a(cipherSuite.o)
 .text.matrixSslSetCipherSuiteEnabledStatus
                0x0000000000000000      0x11a ../libssl_s.a(cipherSuite.o)
 .text.isAlpnSuite
                0x0000000000000000       0x29 ../libssl_s.a(cipherSuite.o)
 .note.GNU-stack
                0x0000000000000000        0x0 ../libssl_s.a(cipherSuite.o)
 .note.gnu.property
                0x0000000000000000       0x20 ../libssl_s.a(cipherSuite.o)
 .text          0x0000000000000000        0x0 ../libssl_s.a(dtls.o)
 .data          0x0000000000000000        0x0 ../libssl_s.a(dtls.o)
 .bss           0x0000000000000000        0x0 ../libssl_s.a(dtls.o)
 .text.zeroTwoByte
                0x0000000000000000        0xa ../libssl_s.a(dtls.o)
 .note.GNU-stack
                0x0000000000000000        0x0 ../libssl_s.a(dtls.o)
 .note.gnu.property
                0x0000000000000000       0x20 ../libssl_s.a(dtls.o)
 .text          0x0000000000000000        0x0 ../libssl_s.a(hsHash.o)
 .data          0x0000000000000000        0x0 ../libssl_s.a(hsHash.o)
 .bss           0x0000000000000000        0x0 ../libssl_s.a(hsHash.o)
 .note.GNU-stack
                0x0000000000000000        0x0 ../libssl_s.a(hsHash.o)
 .note.gnu.property
                0x0000000000000000       0x20 ../libssl_s.a(hsHash.o)
 .text          0x0000000000000000        0x0 ../libssl_s.a(hsNegotiateVersion.o)
 .data          0x0000000000000000        0x0 ../libssl_s.a(hsNegotiateVersion.o)
 .bss           0x0000000000000000        0x0 ../libssl_s.a(hsNegotiateVersion.o)
 .text.psEncodeVersion
                0x0000000000000000      0x106 ../libssl_s.a(hsNegotiateVersion.o)
 .rodata.psEncodeVersion
                0x0000000000000000       0x84 ../libssl_s.a(hsNegotiateVersion.o)
 .text.psVerToFlag
                0x0000000000000000       0x87 ../libssl_s.a(hsNegotiateVersion.o)
 .text.psFlagToVer
                0x0000000000000000       0xa2 ../libssl_s.a(hsNegotiateVersion.o)
 .text.psVerGetLowest
                0x0000000000000000       0x33 ../libssl_s.a(hsNegotiateVersion.o)
 .text.psVerGetLowestTls
                0x0000000000000000       0x2b ../libssl_s.a(hsNegotiateVersion.o)
 .text.psVerGetHighest
                0x0000000000000000       0x33 ../libssl_s.a(hsNegotiateVersion.o)
 .note.GNU-stack
                0x0000000000000000        0x0 ../libssl_s.a(hsNegotiateVersion.o)
 .note.gnu.property
                0x0000000000000000       0x20 ../libssl_s.a(hsNegotiateVersion.o)
 .text          0x0000000000000000        0x0 ../libssl_s.a(matrixssl.o)
 .data          0x0000000000000000        0x0 ../libssl_s.a(matrixssl.o)
 .bss           0x0000000000000000        0x0 ../libssl_s.a(matrixssl.o)
 .text.matrixSslSessOptsSetKeyExGroups
                0x0000000000000000       0xcf ../libssl_s.a(matrixssl.o)
 .text.matrixSslSessOptsSetSigAlgsCert
                0x0000000000000000       0x8b ../libssl_s.a(matrixssl.o)
 .text.matrixSslSessOptsSetSigAlgs
                0x0000000000000000       0x93 ../libssl_s.a(matrixssl.o)
 .text.matrixSslSessOptsSetMinDhBits
                0x0000000000000000       0x19 ../libssl_s.a(matrixssl.o)
 .text.matrixSslGetAnonStatus
                0x0000000000000000        0xd ../libssl_s.a(matrixssl.o)
 .text.matrixSslSetSessionOption
                0x0000000000000000       0x91 ../libssl_s.a(matrixssl.o)
 .text.matrixSslDeleteSessionTicketKey
                0x0000000000000000       0xef ../libssl_s.a(matrixssl.o)
 .text.matrixSslSetSessionTicketCallback
                0x0000000000000000        0x9 ../libssl_s.a(matrixssl.o)
 .text.matrixSslCreateSNIext
                0x0000000000000000       0x81 ../libssl_s.a(matrixssl.o)
 .text.matrixServerSetKeysSNI
                0x0000000000000000       0x8f ../libssl_s.a(matrixssl.o)
 .text.matrixValidateCerts
                0x0000000000000000       0x50 ../libssl_s.a(matrixssl.o)
 .note.GNU-stack
                0x0000000000000000        0x0 ../libssl_s.a(matrixssl.o)
 .note.gnu.property
                0x0000000000000000       0x20 ../libssl_s.a(matrixssl.o)
 .text          0x0000000000000000        0x0 ../libssl_s.a(matrixsslKeys.o)
 .data          0x0000000000000000        0x0 ../libssl_s.a(matrixsslKeys.o)
 .bss           0x0000000000000000        0x0 ../libssl_s.a(matrixsslKeys.o)
 .text.matrixSslMakeIdentity
                0x0000000000000000       0xe6 ../libssl_s.a(matrixsslKeys.o)
 .text.matrixSslFreeIdentity
                0x0000000000000000       0x31 ../libssl_s.a(matrixsslKeys.o)
 .text.matrixSslDelIdentity
                0x0000000000000000       0x48 ../libssl_s.a(matrixsslKeys.o)
 .text.matrixSslAddIdentity
                0x0000000000000000       0x38 ../libssl_s.a(matrixsslKeys.o)
 .text.matrixSslLoadKeyMaterialMem
                0x0000000000000000      0x4a7 ../libssl_s.a(matrixsslKeys.o)
 .text.matrixSslCreateIdentityFromData
                0x0000000000000000      0x3ba ../libssl_s.a(matrixsslKeys.o)
 .text.matrixSslLoadKeyMaterial
                0x0000000000000000      0x1cd ../libssl_s.a(matrixsslKeys.o)
 .text.matrixSslLoadKeysMem
                0x0000000000000000      0x1bc ../libssl_s.a(matrixsslKeys.o)
 .text.matrixSslLoadRsaKeysMemExt
                0x0000000000000000      0x3dd ../libssl_s.a(matrixsslKeys.o)
 .text.matrixSslLoadEcKeysMemExt
                0x0000000000000000      0x3ed ../libssl_s.a(matrixsslKeys.o)
 .text.matrixSslLoadPkcs12Mem
                0x0000000000000000      0x1c8 ../libssl_s.a(matrixsslKeys.o)
 .text.matrixSslLoadPkcs12
                0x0000000000000000      0x1c8 ../libssl_s.a(matrixsslKeys.o)
 .text.matrixSslLoadRsaKeysExt
                0x0000000000000000      0x1b6 ../libssl_s.a(matrixsslKeys.o)
 .text.matrixSslLoadRsaKeys
                0x0000000000000000      0x1c2 ../libssl_s.a(matrixsslKeys.o)
 .text.matrixSslLoadEcKeysExt
                0x0000000000000000      0x1b6 ../libssl_s.a(matrixsslKeys.o)
 .text.matrixSslLoadEcKeys
                0x0000000000000000      0x1c2 ../libssl_s.a(matrixsslKeys.o)
 .text.matrixSslLoadKeys
                0x0000000000000000      0x271 ../libssl_s.a(matrixsslKeys.o)
 .text.matrixSslLoadDhParams
                0x0000000000000000       0x1b ../libssl_s.a(matrixsslKeys.o)
 .text.matrixSslLoadOCSPResponse
                0x0000000000000000       0x7e ../libssl_s.a(matrixsslKeys.o)
 .rodata.cst8   0x0000000000000000        0x8 ../libssl_s.a(matrixsslKeys.o)
 .note.GNU-stack
                0x0000000000000000        0x0 ../libssl_s.a(matrixsslKeys.o)
 .note.gnu.property
                0x0000000000000000       0x20 ../libssl_s.a(matrixsslKeys.o)
 .text          0x0000000000000000        0x0 ../libssl_s.a(matrixsslApi.o)
 .data          0x0000000000000000        0x0 ../libssl_s.a(matrixsslApi.o)
 .bss           0x0000000000000000        0x0 ../libssl_s.a(matrixsslApi.o)
 .text.matrixSslNewServer
                0x0000000000000000      0x170 ../libssl_s.a(matrixsslApi.o)
 .text.matrixSslRegisterSNICallback
                0x0000000000000000        0xc ../libssl_s.a(matrixsslApi.o)
 .text.matrixSslGetReadbufOfSize
                0x0000000000000000      0x215 ../libssl_s.a(matrixsslApi.o)
 .text.matrixSslEncodeToUserBuf
                0x0000000000000000       0x35 ../libssl_s.a(matrixsslApi.o)
 .text.matrixSslEncodeToOutdata
                0x0000000000000000      0x41d ../libssl_s.a(matrixsslApi.o)
 .text.matrixSslEncodeClosureAlert
                0x0000000000000000      0x170 ../libssl_s.a(matrixsslApi.o)
 .text.matrixSslEncodeRehandshake
                0x0000000000000000        0xa ../libssl_s.a(matrixsslApi.o)
 .text.matrixSslDisableRehandshakes
                0x0000000000000000        0xa ../libssl_s.a(matrixsslApi.o)
 .text.matrixSslReEnableRehandshakes
                0x0000000000000000        0xa ../libssl_s.a(matrixsslApi.o)
 .text.matrixSslSetTls13BlockPadding
                0x0000000000000000       0x2e ../libssl_s.a(matrixsslApi.o)
 .note.GNU-stack
                0x0000000000000000        0x0 ../libssl_s.a(matrixsslApi.o)
 .note.gnu.property
                0x0000000000000000       0x20 ../libssl_s.a(matrixsslApi.o)
 .text          0x0000000000000000        0x0 ../libssl_s.a(matrixsslInitVer.o)
 .data          0x0000000000000000        0x0 ../libssl_s.a(matrixsslInitVer.o)
 .bss           0x0000000000000000        0x0 ../libssl_s.a(matrixsslInitVer.o)
 .text.matrixSslSessOptsSetServerTlsVersions.part.0
                0x0000000000000000       0xff ../libssl_s.a(matrixsslInitVer.o)
 .text.matrixSslSessOptsSetClientTlsVersions.part.0
                0x0000000000000000      0x103 ../libssl_s.a(matrixsslInitVer.o)
 .text.matrixSslTlsVersionRangeSupported
                0x0000000000000000       0x4c ../libssl_s.a(matrixsslInitVer.o)
 .text.matrixSslSessOptsSetClientTlsVersionRange
                0x0000000000000000       0x8d ../libssl_s.a(matrixsslInitVer.o)
 .text.matrixSslSessOptsSetClientTlsVersions
                0x0000000000000000       0x23 ../libssl_s.a(matrixsslInitVer.o)
 .text.matrixSslSessOptsSetServerTlsVersionRange
                0x0000000000000000       0x8d ../libssl_s.a(matrixsslInitVer.o)
 .text.matrixSslSessOptsSetServerTlsVersions
                0x0000000000000000       0x23 ../libssl_s.a(matrixsslInitVer.o)
 .note.GNU-stack
                0x0000000000000000        0x0 ../libssl_s.a(matrixsslInitVer.o)
 .note.gnu.property
                0x0000000000000000       0x20 ../libssl_s.a(matrixsslInitVer.o)
 .text          0x0000000000000000        0x0 ../libssl_s.a(prf.o)
 .data          0x0000000000000000        0x0 ../libssl_s.a(prf.o)
 .bss           0x0000000000000000        0x0 ../libssl_s.a(prf.o)
 .note.GNU-stack
                0x0000000000000000        0x0 ../libssl_s.a(prf.o)
 .note.gnu.property
                0x0000000000000000       0x20 ../libssl_s.a(prf.o)
 .text          0x0000000000000000        0x0 ../libssl_s.a(psk.o)
 .data          0x0000000000000000        0x0 ../libssl_s.a(psk.o)
 .bss           0x0000000000000000        0x0 ../libssl_s.a(psk.o)
 .note.GNU-stack
                0x0000000000000000        0x0 ../libssl_s.a(psk.o)
 .note.gnu.property
                0x0000000000000000       0x20 ../libssl_s.a(psk.o)
 .text          0x0000000000000000        0x0 ../libssl_s.a(sslDecode.o)
 .data          0x0000000000000000        0x0 ../libssl_s.a(sslDecode.o)
 .bss           0x0000000000000000        0x0 ../libssl_s.a(sslDecode.o)
 .note.GNU-stack
                0x0000000000000000        0x0 ../libssl_s.a(sslDecode.o)
 .note.gnu.property
                0x0000000000000000       0x20 ../libssl_s.a(sslDecode.o)
 .text          0x0000000000000000        0x0 ../libssl_s.a(sslEncode.o)
 .data          0x0000000000000000        0x0 ../libssl_s.a(sslEncode.o)
 .bss           0x0000000000000000        0x0 ../libssl_s.a(sslEncode.o)
 .text.getPkaAfterCv
                0x0000000000000000       0x67 ../libssl_s.a(sslEncode.o)
 .text.sslEncodeClosureAlert
                0x0000000000000000      0x15c ../libssl_s.a(sslEncode.o)
 .text.matrixSslEncodeHelloRequest
                0x0000000000000000      0x10c ../libssl_s.a(sslEncode.o)
 .note.GNU-stack
                0x0000000000000000        0x0 ../libssl_s.a(sslEncode.o)
 .note.gnu.property
                0x0000000000000000       0x20 ../libssl_s.a(sslEncode.o)
 .text          0x0000000000000000        0x0 ../libssl_s.a(tlsDefaults.o)
 .data          0x0000000000000000        0x0 ../libssl_s.a(tlsDefaults.o)
 .bss           0x0000000000000000        0x0 ../libssl_s.a(tlsDefaults.o)
 .note.GNU-stack
                0x0000000000000000        0x0 ../libssl_s.a(tlsDefaults.o)
 .note.gnu.property
                0x0000000000000000       0x20 ../libssl_s.a(tlsDefaults.o)
 .text          0x0000000000000000        0x0 ../libssl_s.a(tlsSelectKeys.o)
 .data          0x0000000000000000        0x0 ../libssl_s.a(tlsSelectKeys.o)
 .bss           0x0000000000000000        0x0 ../libssl_s.a(tlsSelectKeys.o)
 .text.matrixSslGetClientKeySelectInfo
                0x0000000000000000        0xc ../libssl_s.a(tlsSelectKeys.o)
 .note.GNU-stack
                0x0000000000000000        0x0 ../libssl_s.a(tlsSelectKeys.o)
 .note.gnu.property
                0x0000000000000000       0x20 ../libssl_s.a(tlsSelectKeys.o)
 .text          0x0000000000000000        0x0 ../libssl_s.a(tlsSigVer.o)
 .data          0x0000000000000000        0x0 ../libssl_s.a(tlsSigVer.o)
 .bss           0x0000000000000000        0x0 ../libssl_s.a(tlsSigVer.o)
 .text.getDefaultSkeHashSize
                0x0000000000000000       0x1b ../libssl_s.a(tlsSigVer.o)
 .text.tlsIsSupportedRsaSigAlg
                0x0000000000000000       0x46 ../libssl_s.a(tlsSigVer.o)
 .text.tlsIsSupportedEcdsaSigAlg
                0x0000000000000000       0x46 ../libssl_s.a(tlsSigVer.o)
 .text.tlsSigAlgToHashLen
                0x0000000000000000       0x86 ../libssl_s.a(tlsSigVer.o)
 .text.tlsSigAlgToMatrix
                0x0000000000000000       0x86 ../libssl_s.a(tlsSigVer.o)
 .text.weSupportSigAlg
                0x0000000000000000       0x60 ../libssl_s.a(tlsSigVer.o)
 .text.upgradeSigAlg
                0x0000000000000000       0xc6 ../libssl_s.a(tlsSigVer.o)
 .rodata.upgradeSigAlg
                0x0000000000000000       0x30 ../libssl_s.a(tlsSigVer.o)
 .note.GNU-stack
                0x0000000000000000        0x0 ../libssl_s.a(tlsSigVer.o)
 .note.gnu.property
                0x0000000000000000       0x20 ../libssl_s.a(tlsSigVer.o)
 .text          0x0000000000000000        0x0 ../libssl_s.a(tls13CipherSuite.o)
 .data          0x0000000000000000        0x0 ../libssl_s.a(tls13CipherSuite.o)
 .bss           0x0000000000000000        0x0 ../libssl_s.a(tls13CipherSuite.o)
 .note.GNU-stack
                0x0000000000000000        0x0 ../libssl_s.a(tls13CipherSuite.o)
 .note.gnu.property
                0x0000000000000000       0x20 ../libssl_s.a(tls13CipherSuite.o)
 .text          0x0000000000000000        0x0 ../libssl_s.a(tls13Encode.o)
 .data          0x0000000000000000        0x0 ../libssl_s.a(tls13Encode.o)
 .bss           0x0000000000000000        0x0 ../libssl_s.a(tls13Encode.o)
 .text.tls13ResetState
                0x0000000000000000       0x9f ../libssl_s.a(tls13Encode.o)
 .note.GNU-stack
                0x0000000000000000        0x0 ../libssl_s.a(tls13Encode.o)
 .note.gnu.property
                0x0000000000000000       0x20 ../libssl_s.a(tls13Encode.o)
 .text          0x0000000000000000        0x0 ../libssl_s.a(tls13EncodeExt.o)
 .data          0x0000000000000000        0x0 ../libssl_s.a(tls13EncodeExt.o)
 .bss           0x0000000000000000        0x0 ../libssl_s.a(tls13EncodeExt.o)
 .text.tls13WriteUserExtensions
                0x0000000000000000       0x93 ../libssl_s.a(tls13EncodeExt.o)
 .note.GNU-stack
                0x0000000000000000        0x0 ../libssl_s.a(tls13EncodeExt.o)
 .note.gnu.property
                0x0000000000000000       0x20 ../libssl_s.a(tls13EncodeExt.o)
 .text          0x0000000000000000        0x0 ../libssl_s.a(tls13Decode.o)
 .data          0x0000000000000000        0x0 ../libssl_s.a(tls13Decode.o)
 .bss           0x0000000000000000        0x0 ../libssl_s.a(tls13Decode.o)
 .note.GNU-stack
                0x0000000000000000        0x0 ../libssl_s.a(tls13Decode.o)
 .note.gnu.property
                0x0000000000000000       0x20 ../libssl_s.a(tls13Decode.o)
 .text          0x0000000000000000        0x0 ../libssl_s.a(tls13DecodeExt.o)
 .data          0x0000000000000000        0x0 ../libssl_s.a(tls13DecodeExt.o)
 .bss           0x0000000000000000        0x0 ../libssl_s.a(tls13DecodeExt.o)
 .text.tls13ParseStatusRequest
                0x0000000000000000       0x22 ../libssl_s.a(tls13DecodeExt.o)
 .text.tls13ParseSingleExtension
                0x0000000000000000      0x180 ../libssl_s.a(tls13DecodeExt.o)
 .note.GNU-stack
                0x0000000000000000        0x0 ../libssl_s.a(tls13DecodeExt.o)
 .note.gnu.property
                0x0000000000000000       0x20 ../libssl_s.a(tls13DecodeExt.o)
 .text          0x0000000000000000        0x0 ../libssl_s.a(tls13KeyAgree.o)
 .data          0x0000000000000000        0x0 ../libssl_s.a(tls13KeyAgree.o)
 .bss           0x0000000000000000        0x0 ../libssl_s.a(tls13KeyAgree.o)
 .text.tls13LoadDhParams
                0x0000000000000000       0x8e ../libssl_s.a(tls13KeyAgree.o)
 .text.tls13GenerateEcdheKey
                0x0000000000000000       0x8a ../libssl_s.a(tls13KeyAgree.o)
 .text.tls13ServerChooseGroup
                0x0000000000000000       0x22 ../libssl_s.a(tls13KeyAgree.o)
 .text.tls13ClearPeerSupportedGroupList
                0x0000000000000000       0x2e ../libssl_s.a(tls13KeyAgree.o)
 .text.tls13PeerSupportsGroup
                0x0000000000000000       0x33 ../libssl_s.a(tls13KeyAgree.o)
 .note.GNU-stack
                0x0000000000000000        0x0 ../libssl_s.a(tls13KeyAgree.o)
 .note.gnu.property
                0x0000000000000000       0x20 ../libssl_s.a(tls13KeyAgree.o)
 .text          0x0000000000000000        0x0 ../libssl_s.a(tls13KeySchedule.o)
 .data          0x0000000000000000        0x0 ../libssl_s.a(tls13KeySchedule.o)
 .bss           0x0000000000000000        0x0 ../libssl_s.a(tls13KeySchedule.o)
 .text.tls13DeriveSecret
                0x0000000000000000       0xb3 ../libssl_s.a(tls13KeySchedule.o)
 .note.GNU-stack
                0x0000000000000000        0x0 ../libssl_s.a(tls13KeySchedule.o)
 .note.gnu.property
                0x0000000000000000       0x20 ../libssl_s.a(tls13KeySchedule.o)
 .text          0x0000000000000000        0x0 ../libssl_s.a(tls13Negotiate.o)
 .data          0x0000000000000000        0x0 ../libssl_s.a(tls13Negotiate.o)
 .bss           0x0000000000000000        0x0 ../libssl_s.a(tls13Negotiate.o)
 .note.GNU-stack
                0x0000000000000000        0x0 ../libssl_s.a(tls13Negotiate.o)
 .note.gnu.property
                0x0000000000000000       0x20 ../libssl_s.a(tls13Negotiate.o)
 .text          0x0000000000000000        0x0 ../libssl_s.a(tls13Psk.o)
 .data          0x0000000000000000        0x0 ../libssl_s.a(tls13Psk.o)
 .bss           0x0000000000000000        0x0 ../libssl_s.a(tls13Psk.o)
 .text.tls13AddPskToList
                0x0000000000000000       0x30 ../libssl_s.a(tls13Psk.o)
 .note.GNU-stack
                0x0000000000000000        0x0 ../libssl_s.a(tls13Psk.o)
 .note.gnu.property
                0x0000000000000000       0x20 ../libssl_s.a(tls13Psk.o)
 .text          0x0000000000000000        0x0 ../libssl_s.a(tls13Resume.o)
 .data          0x0000000000000000        0x0 ../libssl_s.a(tls13Resume.o)
 .bss           0x0000000000000000        0x0 ../libssl_s.a(tls13Resume.o)
 .text.tls13GetCurrSessParams
                0x0000000000000000       0x76 ../libssl_s.a(tls13Resume.o)
 .note.GNU-stack
                0x0000000000000000        0x0 ../libssl_s.a(tls13Resume.o)
 .note.gnu.property
                0x0000000000000000       0x20 ../libssl_s.a(tls13Resume.o)
 .text          0x0000000000000000        0x0 ../libssl_s.a(tls13SigVer.o)
 .data          0x0000000000000000        0x0 ../libssl_s.a(tls13SigVer.o)
 .bss           0x0000000000000000        0x0 ../libssl_s.a(tls13SigVer.o)
 .text.tls13IsRsaPssSigAlg
                0x0000000000000000       0x25 ../libssl_s.a(tls13SigVer.o)
 .text.tls13RequiresPreHash
                0x0000000000000000       0x11 ../libssl_s.a(tls13SigVer.o)
 .note.GNU-stack
                0x0000000000000000        0x0 ../libssl_s.a(tls13SigVer.o)
 .note.gnu.property
                0x0000000000000000       0x20 ../libssl_s.a(tls13SigVer.o)
 .text          0x0000000000000000        0x0 ../libssl_s.a(tls13TrHash.o)
 .data          0x0000000000000000        0x0 ../libssl_s.a(tls13TrHash.o)
 .bss           0x0000000000000000        0x0 ../libssl_s.a(tls13TrHash.o)
 .text.tls13TranscriptHashFinish
                0x0000000000000000      0x189 ../libssl_s.a(tls13TrHash.o)
 .note.GNU-stack
                0x0000000000000000        0x0 ../libssl_s.a(tls13TrHash.o)
 .note.gnu.property
                0x0000000000000000       0x20 ../libssl_s.a(tls13TrHash.o)
 .text          0x0000000000000000        0x0 ../libssl_s.a(tls.o)
 .data          0x0000000000000000        0x0 ../libssl_s.a(tls.o)
 .bss           0x0000000000000000        0x0 ../libssl_s.a(tls.o)
 .text.tlsDeriveKeys
                0x0000000000000000      0x160 ../libssl_s.a(tls.o)
 .text.matrixSslNewHelloExtension
                0x0000000000000000       0x2a ../libssl_s.a(tls.o)
 .text.matrixSslLoadHelloExtension
                0x0000000000000000       0xef ../libssl_s.a(tls.o)
 .text.anyNonTls13VersionSupported
                0x0000000000000000        0xf ../libssl_s.a(tls.o)
 .text.peerOnlySupportsTls13
                0x0000000000000000       0x1b ../libssl_s.a(tls.o)
 .note.GNU-stack
                0x0000000000000000        0x0 ../libssl_s.a(tls.o)
 .note.gnu.property
                0x0000000000000000       0x20 ../libssl_s.a(tls.o)
 .text          0x0000000000000000        0x0 ../libssl_s.a(hsDecode.o)
 .data          0x0000000000000000        0x0 ../libssl_s.a(hsDecode.o)
 .bss           0x0000000000000000        0x0 ../libssl_s.a(hsDecode.o)
 .note.GNU-stack
                0x0000000000000000        0x0 ../libssl_s.a(hsDecode.o)
 .note.gnu.property
                0x0000000000000000       0x20 ../libssl_s.a(hsDecode.o)
 .text          0x0000000000000000        0x0 ../libssl_s.a(tls13Authenticate.o)
 .data          0x0000000000000000        0x0 ../libssl_s.a(tls13Authenticate.o)
 .bss           0x0000000000000000        0x0 ../libssl_s.a(tls13Authenticate.o)
 .text.tls13HandleUserCertCbResult
                0x0000000000000000       0x60 ../libssl_s.a(tls13Authenticate.o)
 .note.GNU-stack
                0x0000000000000000        0x0 ../libssl_s.a(tls13Authenticate.o)
 .note.gnu.property
                0x0000000000000000       0x20 ../libssl_s.a(tls13Authenticate.o)
 .text          0x0000000000000000        0x0 ../libssl_s.a(extDecode.o)
 .data          0x0000000000000000        0x0 ../libssl_s.a(extDecode.o)
 .bss           0x0000000000000000        0x0 ../libssl_s.a(extDecode.o)
 .note.GNU-stack
                0x0000000000000000        0x0 ../libssl_s.a(extDecode.o)
 .note.gnu.property
                0x0000000000000000       0x20 ../libssl_s.a(extDecode.o)
 .text          0x0000000000000000        0x0 ../../crypto/libcrypt_s.a(alg_info.o)
 .data          0x0000000000000000        0x0 ../../crypto/libcrypt_s.a(alg_info.o)
 .bss           0x0000000000000000        0x0 ../../crypto/libcrypt_s.a(alg_info.o)
 .rodata.psGetNamedSigAlgId.str1.1
                0x0000000000000000      0x115 ../../crypto/libcrypt_s.a(alg_info.o)
 .text.psGetNamedSigAlgId
                0x0000000000000000      0x1ef ../../crypto/libcrypt_s.a(alg_info.o)
 .rodata.psGetNamedGroupId.str1.1
                0x0000000000000000       0x5e ../../crypto/libcrypt_s.a(alg_info.o)
 .text.psGetNamedGroupId
                0x0000000000000000      0x11c ../../crypto/libcrypt_s.a(alg_info.o)
 .note.GNU-stack
                0x0000000000000000        0x0 ../../crypto/libcrypt_s.a(alg_info.o)
 .note.gnu.property
                0x0000000000000000       0x20 ../../crypto/libcrypt_s.a(alg_info.o)
 .text          0x0000000000000000        0x0 ../../crypto/libcrypt_s.a(aes_aesni.o)
 .data          0x0000000000000000        0x0 ../../crypto/libcrypt_s.a(aes_aesni.o)
 .bss           0x0000000000000000        0x0 ../../crypto/libcrypt_s.a(aes_aesni.o)
 .text.psAesClearBlockKey
                0x0000000000000000       0x15 ../../crypto/libcrypt_s.a(aes_aesni.o)
 .text.psAesEncryptBlock
                0x0000000000000000      0x163 ../../crypto/libcrypt_s.a(aes_aesni.o)
 .text.psAesDecryptBlock
                0x0000000000000000      0x1bd ../../crypto/libcrypt_s.a(aes_aesni.o)
 .text.psAesDecryptGCM2
                0x0000000000000000      0x10f ../../crypto/libcrypt_s.a(aes_aesni.o)
 .text.psAesDecryptGCMtagless
                0x0000000000000000       0xd3 ../../crypto/libcrypt_s.a(aes_aesni.o)
 .note.GNU-stack
                0x0000000000000000        0x0 ../../crypto/libcrypt_s.a(aes_aesni.o)
 .note.gnu.property
                0x0000000000000000       0x20 ../../crypto/libcrypt_s.a(aes_aesni.o)
 .text          0x0000000000000000        0x0 ../../crypto/libcrypt_s.a(sha1.o)
 .data          0x0000000000000000        0x0 ../../crypto/libcrypt_s.a(sha1.o)
 .bss           0x0000000000000000        0x0 ../../crypto/libcrypt_s.a(sha1.o)
 .note.GNU-stack
                0x0000000000000000        0x0 ../../crypto/libcrypt_s.a(sha1.o)
 .note.gnu.property
                0x0000000000000000       0x20 ../../crypto/libcrypt_s.a(sha1.o)
 .text          0x0000000000000000        0x0 ../../crypto/libcrypt_s.a(sha256.o)
 .data          0x0000000000000000        0x0 ../../crypto/libcrypt_s.a(sha256.o)
 .bss           0x0000000000000000        0x0 ../../crypto/libcrypt_s.a(sha256.o)
 .note.GNU-stack
                0x0000000000000000        0x0 ../../crypto/libcrypt_s.a(sha256.o)
 .note.gnu.property
                0x0000000000000000       0x20 ../../crypto/libcrypt_s.a(sha256.o)
 .text          0x0000000000000000        0x0 ../../crypto/libcrypt_s.a(sha512.o)
 .data          0x0000000000000000        0x0 ../../crypto/libcrypt_s.a(sha512.o)
 .bss           0x0000000000000000        0x0 ../../crypto/libcrypt_s.a(sha512.o)
 .note.GNU-stack
                0x0000000000000000        0x0 ../../crypto/libcrypt_s.a(sha512.o)
 .note.gnu.property
                0x0000000000000000       0x20 ../../crypto/libcrypt_s.a(sha512.o)
 .text          0x0000000000000000        0x0 ../../crypto/libcrypt_s.a(md5sha1.o)
 .data          0x0000000000000000        0x0 ../../crypto/libcrypt_s.a(md5sha1.o)
 .bss           0x0000000000000000        0x0 ../../crypto/libcrypt_s.a(md5sha1.o)
 .note.GNU-stack
                0x0000000000000000        0x0 ../../crypto/libcrypt_s.a(md5sha1.o)
 .note.gnu.property
                0x0000000000000000       0x20 ../../crypto/libcrypt_s.a(md5sha1.o)
 .text          0x0000000000000000        0x0 ../../crypto/libcrypt_s.a(md5.o)
 .data          0x0000000000000000        0x0 ../../crypto/libcrypt_s.a(md5.o)
 .bss           0x0000000000000000        0x0 ../../crypto/libcrypt_s.a(md5.o)
 .note.GNU-stack
                0x0000000000000000        0x0 ../../crypto/libcrypt_s.a(md5.o)
 .note.gnu.property
                0x0000000000000000       0x20 ../../crypto/libcrypt_s.a(md5.o)
 .text          0x0000000000000000        0x0 ../../crypto/libcrypt_s.a(hmac.o)
 .data          0x0000000000000000        0x0 ../../crypto/libcrypt_s.a(hmac.o)
 .bss           0x0000000000000000        0x0 ../../crypto/libcrypt_s.a(hmac.o)
 .note.GNU-stack
                0x0000000000000000        0x0 ../../crypto/libcrypt_s.a(hmac.o)
 .note.gnu.property
                0x0000000000000000       0x20 ../../crypto/libcrypt_s.a(hmac.o)
 .text          0x0000000000000000        0x0 ../../crypto/libcrypt_s.a(hkdf.o)
 .data          0x0000000000000000        0x0 ../../crypto/libcrypt_s.a(hkdf.o)
 .bss           0x0000000000000000        0x0 ../../crypto/libcrypt_s.a(hkdf.o)
 .note.GNU-stack
                0x0000000000000000        0x0 ../../crypto/libcrypt_s.a(hkdf.o)
 .note.gnu.property
                0x0000000000000000       0x20 ../../crypto/libcrypt_s.a(hkdf.o)
 .text          0x0000000000000000        0x0 ../../crypto/libcrypt_s.a(pem_decode_mem.o)
 .data          0x0000000000000000        0x0 ../../crypto/libcrypt_s.a(pem_decode_mem.o)
 .bss           0x0000000000000000        0x0 ../../crypto/libcrypt_s.a(pem_decode_mem.o)
 .note.GNU-stack
                0x0000000000000000        0x0 ../../crypto/libcrypt_s.a(pem_decode_mem.o)
 .note.gnu.property
                0x0000000000000000       0x20 ../../crypto/libcrypt_s.a(pem_decode_mem.o)
 .text          0x0000000000000000        0x0 ../../crypto/libcrypt_s.a(pkcs.o)
 .data          0x0000000000000000        0x0 ../../crypto/libcrypt_s.a(pkcs.o)
 .bss           0x0000000000000000        0x0 ../../crypto/libcrypt_s.a(pkcs.o)
 .text.pkcs12pbe
                0x0000000000000000      0x70f ../../crypto/libcrypt_s.a(pkcs.o)
 .text.pkcs12import
                0x0000000000000000      0x459 ../../crypto/libcrypt_s.a(pkcs.o)
 .text.parseSafeContents
                0x0000000000000000      0x3d9 ../../crypto/libcrypt_s.a(pkcs.o)
 .rodata.psPkcs12ParseMem.str1.1
                0x0000000000000000       0x1e ../../crypto/libcrypt_s.a(pkcs.o)
 .text.psPkcs12ParseMem
                0x0000000000000000     0x1860 ../../crypto/libcrypt_s.a(pkcs.o)
 .text.psPkcs12Parse
                0x0000000000000000       0xc3 ../../crypto/libcrypt_s.a(pkcs.o)
 .rodata.psPkcs3ParseDhParamFile.str1.1
                0x0000000000000000       0x45 ../../crypto/libcrypt_s.a(pkcs.o)
 .rodata.psPkcs3ParseDhParamFile.str1.8
                0x0000000000000000       0x34 ../../crypto/libcrypt_s.a(pkcs.o)
 .text.psPkcs3ParseDhParamFile
                0x0000000000000000      0x1b1 ../../crypto/libcrypt_s.a(pkcs.o)
 .text.psPkcs1OaepEncode
                0x0000000000000000      0x5cf ../../crypto/libcrypt_s.a(pkcs.o)
 .text.psPkcs1OaepDecode
                0x0000000000000000      0x558 ../../crypto/libcrypt_s.a(pkcs.o)
 .text.blockCipherWritePad
                0x0000000000000000       0x7a ../../crypto/libcrypt_s.a(pkcs.o)
 .note.GNU-stack
                0x0000000000000000        0x0 ../../crypto/libcrypt_s.a(pkcs.o)
 .note.gnu.property
                0x0000000000000000       0x20 ../../crypto/libcrypt_s.a(pkcs.o)
 .text          0x0000000000000000        0x0 ../../crypto/libcrypt_s.a(x509.o)
 .data          0x0000000000000000        0x0 ../../crypto/libcrypt_s.a(x509.o)
 .bss           0x0000000000000000        0x0 ../../crypto/libcrypt_s.a(x509.o)
 .text.psX509GetCertPublicKeyDer
                0x0000000000000000       0x8b ../../crypto/libcrypt_s.a(x509.o)
 .text.x509NewExtensions
                0x0000000000000000       0x52 ../../crypto/libcrypt_s.a(x509.o)
 .text.psX509GetNumOrganizationalUnits
                0x0000000000000000       0x3f ../../crypto/libcrypt_s.a(x509.o)
 .text.psX509GetOrganizationalUnit
                0x0000000000000000       0x84 ../../crypto/libcrypt_s.a(x509.o)
 .text.psX509GetNumDomainComponents
                0x0000000000000000       0x3f ../../crypto/libcrypt_s.a(x509.o)
 .text.psX509GetDomainComponent
                0x0000000000000000       0x84 ../../crypto/libcrypt_s.a(x509.o)
 .text.psX509GetConcatenatedDomainComponent
                0x0000000000000000      0x278 ../../crypto/libcrypt_s.a(x509.o)
 .rodata.psX509GetOnelineDN.str1.1
                0x0000000000000000       0x17 ../../crypto/libcrypt_s.a(x509.o)
 .text.psX509GetOnelineDN
                0x0000000000000000      0x7ab ../../crypto/libcrypt_s.a(x509.o)
 .text.psX509ParseCertFile
                0x0000000000000000      0x174 ../../crypto/libcrypt_s.a(x509.o)
 .text.psOcspResponseGetStatus
                0x0000000000000000       0x25 ../../crypto/libcrypt_s.a(x509.o)
 .text.psOcspResponseUninit
                0x0000000000000000       0x41 ../../crypto/libcrypt_s.a(x509.o)
 .note.GNU-stack
                0x0000000000000000        0x0 ../../crypto/libcrypt_s.a(x509.o)
 .note.gnu.property
                0x0000000000000000       0x20 ../../crypto/libcrypt_s.a(x509.o)
 .text          0x0000000000000000        0x0 ../../crypto/libcrypt_s.a(matrix.o)
 .data          0x0000000000000000        0x0 ../../crypto/libcrypt_s.a(matrix.o)
 .bss           0x0000000000000000        0x0 ../../crypto/libcrypt_s.a(matrix.o)
 .note.GNU-stack
                0x0000000000000000        0x0 ../../crypto/libcrypt_s.a(matrix.o)
 .note.gnu.property
                0x0000000000000000       0x20 ../../crypto/libcrypt_s.a(matrix.o)
 .text          0x0000000000000000        0x0 ../../crypto/libcrypt_s.a(pstm.o)
 .data          0x0000000000000000        0x0 ../../crypto/libcrypt_s.a(pstm.o)
 .bss           0x0000000000000000        0x0 ../../crypto/libcrypt_s.a(pstm.o)
 .text.pstm_abs
                0x0000000000000000       0x27 ../../crypto/libcrypt_s.a(pstm.o)
 .text.pstm_zero
                0x0000000000000000       0x31 ../../crypto/libcrypt_s.a(pstm.o)
 .text.pstm_unsigned_bin_size_nullsafe
                0x0000000000000000       0x49 ../../crypto/libcrypt_s.a(pstm.o)
 .text.pstm_2expt
                0x0000000000000000       0xe6 ../../crypto/libcrypt_s.a(pstm.o)
 .text.pstm_sub_d
                0x0000000000000000       0xb0 ../../crypto/libcrypt_s.a(pstm.o)
 .text.pstm_div_2d
                0x0000000000000000       0x80 ../../crypto/libcrypt_s.a(pstm.o)
 .text.pstm_exch
                0x0000000000000000       0x28 ../../crypto/libcrypt_s.a(pstm.o)
 .text.pstm_to_unsigned_bin_nr
                0x0000000000000000      0x1c7 ../../crypto/libcrypt_s.a(pstm.o)
 .text.pstm_to_unsigned_bin_alloc
                0x0000000000000000       0x94 ../../crypto/libcrypt_s.a(pstm.o)
 .note.GNU-stack
                0x0000000000000000        0x0 ../../crypto/libcrypt_s.a(pstm.o)
 .note.gnu.property
                0x0000000000000000       0x20 ../../crypto/libcrypt_s.a(pstm.o)
 .text          0x0000000000000000        0x0 ../../crypto/libcrypt_s.a(pstmnt.o)
 .data          0x0000000000000000        0x0 ../../crypto/libcrypt_s.a(pstmnt.o)
 .bss           0x0000000000000000        0x0 ../../crypto/libcrypt_s.a(pstmnt.o)
 .text.pstmnt_add_mask
                0x0000000000000000       0x43 ../../crypto/libcrypt_s.a(pstmnt.o)
 .text.pstmnt_sub_mask
                0x0000000000000000       0x43 ../../crypto/libcrypt_s.a(pstmnt.o)
 .text.pstmnt_select_mask
                0x0000000000000000       0xb7 ../../crypto/libcrypt_s.a(pstmnt.o)
 .text.pstmnt_montgomery_step
                0x0000000000000000       0x5c ../../crypto/libcrypt_s.a(pstmnt.o)
 .text.pstmnt_mod_exp_montgomery_skipF
                0x0000000000000000      0x3c7 ../../crypto/libcrypt_s.a(pstmnt.o)
 .note.GNU-stack
                0x0000000000000000        0x0 ../../crypto/libcrypt_s.a(pstmnt.o)
 .note.gnu.property
                0x0000000000000000       0x20 ../../crypto/libcrypt_s.a(pstmnt.o)
 .text          0x0000000000000000        0x0 ../../crypto/libcrypt_s.a(pstm_mul_comba.o)
 .data          0x0000000000000000        0x0 ../../crypto/libcrypt_s.a(pstm_mul_comba.o)
 .bss           0x0000000000000000        0x0 ../../crypto/libcrypt_s.a(pstm_mul_comba.o)
 .note.GNU-stack
                0x0000000000000000        0x0 ../../crypto/libcrypt_s.a(pstm_mul_comba.o)
 .note.gnu.property
                0x0000000000000000       0x20 ../../crypto/libcrypt_s.a(pstm_mul_comba.o)
 .text          0x0000000000000000        0x0 ../../crypto/libcrypt_s.a(pstm_sqr_comba.o)
 .data          0x0000000000000000        0x0 ../../crypto/libcrypt_s.a(pstm_sqr_comba.o)
 .bss           0x0000000000000000        0x0 ../../crypto/libcrypt_s.a(pstm_sqr_comba.o)
 .note.GNU-stack
                0x0000000000000000        0x0 ../../crypto/libcrypt_s.a(pstm_sqr_comba.o)
 .note.gnu.property
                0x0000000000000000       0x20 ../../crypto/libcrypt_s.a(pstm_sqr_comba.o)
 .text          0x0000000000000000        0x0 ../../crypto/libcrypt_s.a(prng.o)
 .data          0x0000000000000000        0x0 ../../crypto/libcrypt_s.a(prng.o)
 .bss           0x0000000000000000        0x0 ../../crypto/libcrypt_s.a(prng.o)
 .text.psInitPrng
                0x0000000000000000        0xd ../../crypto/libcrypt_s.a(prng.o)
 .note.GNU-stack
                0x0000000000000000        0x0 ../../crypto/libcrypt_s.a(prng.o)
 .note.gnu.property
                0x0000000000000000       0x20 ../../crypto/libcrypt_s.a(prng.o)
 .text          0x0000000000000000        0x0 ../../crypto/libcrypt_s.a(dh.o)
 .data          0x0000000000000000        0x0 ../../crypto/libcrypt_s.a(dh.o)
 .bss           0x0000000000000000        0x0 ../../crypto/libcrypt_s.a(dh.o)
 .text.psDhSize
                0x0000000000000000        0x9 ../../crypto/libcrypt_s.a(dh.o)
 .note.GNU-stack
                0x0000000000000000        0x0 ../../crypto/libcrypt_s.a(dh.o)
 .note.gnu.property
                0x0000000000000000       0x20 ../../crypto/libcrypt_s.a(dh.o)
 .text          0x0000000000000000        0x0 ../../crypto/libcrypt_s.a(dh_params.o)
 .data          0x0000000000000000        0x0 ../../crypto/libcrypt_s.a(dh_params.o)
 .bss           0x0000000000000000        0x0 ../../crypto/libcrypt_s.a(dh_params.o)
 .note.GNU-stack
                0x0000000000000000        0x0 ../../crypto/libcrypt_s.a(dh_params.o)
 .note.gnu.property
                0x0000000000000000       0x20 ../../crypto/libcrypt_s.a(dh_params.o)
 .text          0x0000000000000000        0x0 ../../crypto/libcrypt_s.a(dh_export.o)
 .data          0x0000000000000000        0x0 ../../crypto/libcrypt_s.a(dh_export.o)
 .bss           0x0000000000000000        0x0 ../../crypto/libcrypt_s.a(dh_export.o)
 .note.GNU-stack
                0x0000000000000000        0x0 ../../crypto/libcrypt_s.a(dh_export.o)
 .note.gnu.property
                0x0000000000000000       0x20 ../../crypto/libcrypt_s.a(dh_export.o)
 .text          0x0000000000000000        0x0 ../../crypto/libcrypt_s.a(dh_import.o)
 .data          0x0000000000000000        0x0 ../../crypto/libcrypt_s.a(dh_import.o)
 .bss           0x0000000000000000        0x0 ../../crypto/libcrypt_s.a(dh_import.o)
 .note.GNU-stack
                0x0000000000000000        0x0 ../../crypto/libcrypt_s.a(dh_import.o)
 .note.gnu.property
                0x0000000000000000       0x20 ../../crypto/libcrypt_s.a(dh_import.o)
 .text          0x0000000000000000        0x0 ../../crypto/libcrypt_s.a(dh_gen_key.o)
 .data          0x0000000000000000        0x0 ../../crypto/libcrypt_s.a(dh_gen_key.o)
 .bss           0x0000000000000000        0x0 ../../crypto/libcrypt_s.a(dh_gen_key.o)
 .text.psDhGenKeyInts
                0x0000000000000000       0x89 ../../crypto/libcrypt_s.a(dh_gen_key.o)
 .note.GNU-stack
                0x0000000000000000        0x0 ../../crypto/libcrypt_s.a(dh_gen_key.o)
 .note.gnu.property
                0x0000000000000000       0x20 ../../crypto/libcrypt_s.a(dh_gen_key.o)
 .text          0x0000000000000000        0x0 ../../crypto/libcrypt_s.a(dh_gen_secret.o)
 .data          0x0000000000000000        0x0 ../../crypto/libcrypt_s.a(dh_gen_secret.o)
 .bss           0x0000000000000000        0x0 ../../crypto/libcrypt_s.a(dh_gen_secret.o)
 .text.psDhGenSharedSecretParams
                0x0000000000000000      0x1bf ../../crypto/libcrypt_s.a(dh_gen_secret.o)
 .note.GNU-stack
                0x0000000000000000        0x0 ../../crypto/libcrypt_s.a(dh_gen_secret.o)
 .note.gnu.property
                0x0000000000000000       0x20 ../../crypto/libcrypt_s.a(dh_gen_secret.o)
 .text          0x0000000000000000        0x0 ../../crypto/libcrypt_s.a(ecc.o)
 .data          0x0000000000000000        0x0 ../../crypto/libcrypt_s.a(ecc.o)
 .bss           0x0000000000000000        0x0 ../../crypto/libcrypt_s.a(ecc.o)
 .note.GNU-stack
                0x0000000000000000        0x0 ../../crypto/libcrypt_s.a(ecc.o)
 .note.gnu.property
                0x0000000000000000       0x20 ../../crypto/libcrypt_s.a(ecc.o)
 .text          0x0000000000000000        0x0 ../../crypto/libcrypt_s.a(ecc_curve.o)
 .data          0x0000000000000000        0x0 ../../crypto/libcrypt_s.a(ecc_curve.o)
 .bss           0x0000000000000000        0x0 ../../crypto/libcrypt_s.a(ecc_curve.o)
 .text.getEccParamByName
                0x0000000000000000       0x86 ../../crypto/libcrypt_s.a(ecc_curve.o)
 .note.GNU-stack
                0x0000000000000000        0x0 ../../crypto/libcrypt_s.a(ecc_curve.o)
 .note.gnu.property
                0x0000000000000000       0x20 ../../crypto/libcrypt_s.a(ecc_curve.o)
 .text          0x0000000000000000        0x0 ../../crypto/libcrypt_s.a(ecc_curve_data.o)
 .data          0x0000000000000000        0x0 ../../crypto/libcrypt_s.a(ecc_curve_data.o)
 .bss           0x0000000000000000        0x0 ../../crypto/libcrypt_s.a(ecc_curve_data.o)
 .note.GNU-stack
                0x0000000000000000        0x0 ../../crypto/libcrypt_s.a(ecc_curve_data.o)
 .note.gnu.property
                0x0000000000000000       0x20 ../../crypto/libcrypt_s.a(ecc_curve_data.o)
 .text          0x0000000000000000        0x0 ../../crypto/libcrypt_s.a(ecc_curve_config.o)
 .data          0x0000000000000000        0x0 ../../crypto/libcrypt_s.a(ecc_curve_config.o)
 .bss           0x0000000000000000        0x0 ../../crypto/libcrypt_s.a(ecc_curve_config.o)
 .note.GNU-stack
                0x0000000000000000        0x0 ../../crypto/libcrypt_s.a(ecc_curve_config.o)
 .note.gnu.property
                0x0000000000000000       0x20 ../../crypto/libcrypt_s.a(ecc_curve_config.o)
 .text          0x0000000000000000        0x0 ../../crypto/libcrypt_s.a(ecc_priv.o)
 .data          0x0000000000000000        0x0 ../../crypto/libcrypt_s.a(ecc_priv.o)
 .bss           0x0000000000000000        0x0 ../../crypto/libcrypt_s.a(ecc_priv.o)
 .note.GNU-stack
                0x0000000000000000        0x0 ../../crypto/libcrypt_s.a(ecc_priv.o)
 .note.gnu.property
                0x0000000000000000       0x20 ../../crypto/libcrypt_s.a(ecc_priv.o)
 .text          0x0000000000000000        0x0 ../../crypto/libcrypt_s.a(ecc_pub.o)
 .data          0x0000000000000000        0x0 ../../crypto/libcrypt_s.a(ecc_pub.o)
 .bss           0x0000000000000000        0x0 ../../crypto/libcrypt_s.a(ecc_pub.o)
 .note.GNU-stack
                0x0000000000000000        0x0 ../../crypto/libcrypt_s.a(ecc_pub.o)
 .note.gnu.property
                0x0000000000000000       0x20 ../../crypto/libcrypt_s.a(ecc_pub.o)
 .text          0x0000000000000000        0x0 ../../crypto/libcrypt_s.a(ecc_keygen.o)
 .data          0x0000000000000000        0x0 ../../crypto/libcrypt_s.a(ecc_keygen.o)
 .bss           0x0000000000000000        0x0 ../../crypto/libcrypt_s.a(ecc_keygen.o)
 .note.GNU-stack
                0x0000000000000000        0x0 ../../crypto/libcrypt_s.a(ecc_keygen.o)
 .note.gnu.property
                0x0000000000000000       0x20 ../../crypto/libcrypt_s.a(ecc_keygen.o)
 .text          0x0000000000000000        0x0 ../../crypto/libcrypt_s.a(ecc_gen_shared.o)
 .data          0x0000000000000000        0x0 ../../crypto/libcrypt_s.a(ecc_gen_shared.o)
 .bss           0x0000000000000000        0x0 ../../crypto/libcrypt_s.a(ecc_gen_shared.o)
 .note.GNU-stack
                0x0000000000000000        0x0 ../../crypto/libcrypt_s.a(ecc_gen_shared.o)
 .note.gnu.property
                0x0000000000000000       0x20 ../../crypto/libcrypt_s.a(ecc_gen_shared.o)
 .text          0x0000000000000000        0x0 ../../crypto/libcrypt_s.a(ecc_parse_mem.o)
 .data          0x0000000000000000        0x0 ../../crypto/libcrypt_s.a(ecc_parse_mem.o)
 .bss           0x0000000000000000        0x0 ../../crypto/libcrypt_s.a(ecc_parse_mem.o)
 .text.psEd25519ParsePrivKey
                0x0000000000000000      0x302 ../../crypto/libcrypt_s.a(ecc_parse_mem.o)
 .text.psEd25519ParsePubKeyContent
                0x0000000000000000       0xa9 ../../crypto/libcrypt_s.a(ecc_parse_mem.o)
 .note.GNU-stack
                0x0000000000000000        0x0 ../../crypto/libcrypt_s.a(ecc_parse_mem.o)
 .note.gnu.property
                0x0000000000000000       0x20 ../../crypto/libcrypt_s.a(ecc_parse_mem.o)
 .text          0x0000000000000000        0x0 ../../crypto/libcrypt_s.a(ecc_export.o)
 .data          0x0000000000000000        0x0 ../../crypto/libcrypt_s.a(ecc_export.o)
 .bss           0x0000000000000000        0x0 ../../crypto/libcrypt_s.a(ecc_export.o)
 .note.GNU-stack
                0x0000000000000000        0x0 ../../crypto/libcrypt_s.a(ecc_export.o)
 .note.gnu.property
                0x0000000000000000       0x20 ../../crypto/libcrypt_s.a(ecc_export.o)
 .text          0x0000000000000000        0x0 ../../crypto/libcrypt_s.a(ecc_import.o)
 .data          0x0000000000000000        0x0 ../../crypto/libcrypt_s.a(ecc_import.o)
 .bss           0x0000000000000000        0x0 ../../crypto/libcrypt_s.a(ecc_import.o)
 .note.GNU-stack
                0x0000000000000000        0x0 ../../crypto/libcrypt_s.a(ecc_import.o)
 .note.gnu.property
                0x0000000000000000       0x20 ../../crypto/libcrypt_s.a(ecc_import.o)
 .text          0x0000000000000000        0x0 ../../crypto/libcrypt_s.a(pubkey.o)
 .data          0x0000000000000000        0x0 ../../crypto/libcrypt_s.a(pubkey.o)
 .bss           0x0000000000000000        0x0 ../../crypto/libcrypt_s.a(pubkey.o)
 .note.GNU-stack
                0x0000000000000000        0x0 ../../crypto/libcrypt_s.a(pubkey.o)
 .note.gnu.property
                0x0000000000000000       0x20 ../../crypto/libcrypt_s.a(pubkey.o)
 .text          0x0000000000000000        0x0 ../../crypto/libcrypt_s.a(pubkey_sign.o)
 .data          0x0000000000000000        0x0 ../../crypto/libcrypt_s.a(pubkey_sign.o)
 .bss           0x0000000000000000        0x0 ../../crypto/libcrypt_s.a(pubkey_sign.o)
 .note.GNU-stack
                0x0000000000000000        0x0 ../../crypto/libcrypt_s.a(pubkey_sign.o)
 .note.gnu.property
                0x0000000000000000       0x20 ../../crypto/libcrypt_s.a(pubkey_sign.o)
 .text          0x0000000000000000        0x0 ../../crypto/libcrypt_s.a(pubkey_verify.o)
 .data          0x0000000000000000        0x0 ../../crypto/libcrypt_s.a(pubkey_verify.o)
 .bss           0x0000000000000000        0x0 ../../crypto/libcrypt_s.a(pubkey_verify.o)
 .text.psHashDataAndVerifySig
                0x0000000000000000      0x287 ../../crypto/libcrypt_s.a(pubkey_verify.o)
 .note.GNU-stack
                0x0000000000000000        0x0 ../../crypto/libcrypt_s.a(pubkey_verify.o)
 .note.gnu.property
                0x0000000000000000       0x20 ../../crypto/libcrypt_s.a(pubkey_verify.o)
 .text          0x0000000000000000        0x0 ../../crypto/libcrypt_s.a(pubkey_parse_file.o)
 .data          0x0000000000000000        0x0 ../../crypto/libcrypt_s.a(pubkey_parse_file.o)
 .bss           0x0000000000000000        0x0 ../../crypto/libcrypt_s.a(pubkey_parse_file.o)
 .text.psParseUnknownPrivKey
                0x0000000000000000      0x16f ../../crypto/libcrypt_s.a(pubkey_parse_file.o)
 .text.psParseUnknownPubKey
                0x0000000000000000       0xa8 ../../crypto/libcrypt_s.a(pubkey_parse_file.o)
 .text.psPkcs1DecodePrivFile
                0x0000000000000000       0x62 ../../crypto/libcrypt_s.a(pubkey_parse_file.o)
 .note.GNU-stack
                0x0000000000000000        0x0 ../../crypto/libcrypt_s.a(pubkey_parse_file.o)
 .note.gnu.property
                0x0000000000000000       0x20 ../../crypto/libcrypt_s.a(pubkey_parse_file.o)
 .text          0x0000000000000000        0x0 ../../crypto/libcrypt_s.a(rsa.o)
 .data          0x0000000000000000        0x0 ../../crypto/libcrypt_s.a(rsa.o)
 .bss           0x0000000000000000        0x0 ../../crypto/libcrypt_s.a(rsa.o)
 .text.psRsaCopyKey
                0x0000000000000000      0x1c8 ../../crypto/libcrypt_s.a(rsa.o)
 .note.GNU-stack
                0x0000000000000000        0x0 ../../crypto/libcrypt_s.a(rsa.o)
 .note.gnu.property
                0x0000000000000000       0x20 ../../crypto/libcrypt_s.a(rsa.o)
 .text          0x0000000000000000        0x0 ../../crypto/libcrypt_s.a(rsa_priv.o)
 .data          0x0000000000000000        0x0 ../../crypto/libcrypt_s.a(rsa_priv.o)
 .bss           0x0000000000000000        0x0 ../../crypto/libcrypt_s.a(rsa_priv.o)
 .note.GNU-stack
                0x0000000000000000        0x0 ../../crypto/libcrypt_s.a(rsa_priv.o)
 .note.gnu.property
                0x0000000000000000       0x20 ../../crypto/libcrypt_s.a(rsa_priv.o)
 .text          0x0000000000000000        0x0 ../../crypto/libcrypt_s.a(rsa_pub.o)
 .data          0x0000000000000000        0x0 ../../crypto/libcrypt_s.a(rsa_pub.o)
 .bss           0x0000000000000000        0x0 ../../crypto/libcrypt_s.a(rsa_pub.o)
 .note.GNU-stack
                0x0000000000000000        0x0 ../../crypto/libcrypt_s.a(rsa_pub.o)
 .note.gnu.property
                0x0000000000000000       0x20 ../../crypto/libcrypt_s.a(rsa_pub.o)
 .text          0x0000000000000000        0x0 ../../crypto/libcrypt_s.a(rsa_parse_mem.o)
 .data          0x0000000000000000        0x0 ../../crypto/libcrypt_s.a(rsa_parse_mem.o)
 .bss           0x0000000000000000        0x0 ../../crypto/libcrypt_s.a(rsa_parse_mem.o)
 .text.psRsaParsePubKeyMem
                0x0000000000000000       0xf7 ../../crypto/libcrypt_s.a(rsa_parse_mem.o)
 .note.GNU-stack
                0x0000000000000000        0x0 ../../crypto/libcrypt_s.a(rsa_parse_mem.o)
 .note.gnu.property
                0x0000000000000000       0x20 ../../crypto/libcrypt_s.a(rsa_parse_mem.o)
 .text          0x0000000000000000        0x0 ../../crypto/libcrypt_s.a(rsa_parse_file.o)
 .data          0x0000000000000000        0x0 ../../crypto/libcrypt_s.a(rsa_parse_file.o)
 .bss           0x0000000000000000        0x0 ../../crypto/libcrypt_s.a(rsa_parse_file.o)
 .text.psPkcs1ParsePubFile
                0x0000000000000000       0xe7 ../../crypto/libcrypt_s.a(rsa_parse_file.o)
 .text.psPkcs1ParsePrivFile
                0x0000000000000000       0xd9 ../../crypto/libcrypt_s.a(rsa_parse_file.o)
 .note.GNU-stack
                0x0000000000000000        0x0 ../../crypto/libcrypt_s.a(rsa_parse_file.o)
 .note.gnu.property
                0x0000000000000000       0x20 ../../crypto/libcrypt_s.a(rsa_parse_file.o)
 .text          0x0000000000000000        0x0 ../../crypto/libcrypt_s.a(ps_chacha20poly1305ietf.o)
 .data          0x0000000000000000        0x0 ../../crypto/libcrypt_s.a(ps_chacha20poly1305ietf.o)
 .bss           0x0000000000000000        0x0 ../../crypto/libcrypt_s.a(ps_chacha20poly1305ietf.o)
 .text.psChacha20Poly1305IetfClear
                0x0000000000000000       0x15 ../../crypto/libcrypt_s.a(ps_chacha20poly1305ietf.o)
 .text.psChacha20Poly1305IetfEncryptDetached
                0x0000000000000000       0x4e ../../crypto/libcrypt_s.a(ps_chacha20poly1305ietf.o)
 .text.psChacha20Poly1305IetfDecryptDetached
                0x0000000000000000       0x4e ../../crypto/libcrypt_s.a(ps_chacha20poly1305ietf.o)
 .note.GNU-stack
                0x0000000000000000        0x0 ../../crypto/libcrypt_s.a(ps_chacha20poly1305ietf.o)
 .note.gnu.property
                0x0000000000000000       0x20 ../../crypto/libcrypt_s.a(ps_chacha20poly1305ietf.o)
 .text          0x0000000000000000        0x0 ../../crypto/libcrypt_s.a(aead_chacha20poly1305.o)
 .data          0x0000000000000000        0x0 ../../crypto/libcrypt_s.a(aead_chacha20poly1305.o)
 .bss           0x0000000000000000        0x0 ../../crypto/libcrypt_s.a(aead_chacha20poly1305.o)
 .text.psCrypto_aead_chacha20poly1305_encrypt_detached
                0x0000000000000000      0x15f ../../crypto/libcrypt_s.a(aead_chacha20poly1305.o)
 .text.unlikely.psCrypto_aead_chacha20poly1305_encrypt
                0x0000000000000000        0x5 ../../crypto/libcrypt_s.a(aead_chacha20poly1305.o)
 .text.psCrypto_aead_chacha20poly1305_encrypt
                0x0000000000000000       0x5c ../../crypto/libcrypt_s.a(aead_chacha20poly1305.o)
 .text.unlikely.psCrypto_aead_chacha20poly1305_ietf_encrypt
                0x0000000000000000        0x5 ../../crypto/libcrypt_s.a(aead_chacha20poly1305.o)
 .text.psCrypto_aead_chacha20poly1305_ietf_encrypt
                0x0000000000000000       0x5c ../../crypto/libcrypt_s.a(aead_chacha20poly1305.o)
 .text.psCrypto_aead_chacha20poly1305_decrypt_detached
                0x0000000000000000      0x196 ../../crypto/libcrypt_s.a(aead_chacha20poly1305.o)
 .text.psCrypto_aead_chacha20poly1305_decrypt
                0x0000000000000000       0x66 ../../crypto/libcrypt_s.a(aead_chacha20poly1305.o)
 .text.psCrypto_aead_chacha20poly1305_ietf_decrypt
                0x0000000000000000       0x66 ../../crypto/libcrypt_s.a(aead_chacha20poly1305.o)
 .text.psCrypto_aead_chacha20poly1305_ietf_keybytes
                0x0000000000000000        0xa ../../crypto/libcrypt_s.a(aead_chacha20poly1305.o)
 .text.psCrypto_aead_chacha20poly1305_ietf_npubbytes
                0x0000000000000000        0xa ../../crypto/libcrypt_s.a(aead_chacha20poly1305.o)
 .text.psCrypto_aead_chacha20poly1305_ietf_nsecbytes
                0x0000000000000000        0x7 ../../crypto/libcrypt_s.a(aead_chacha20poly1305.o)
 .text.psCrypto_aead_chacha20poly1305_ietf_abytes
                0x0000000000000000        0xa ../../crypto/libcrypt_s.a(aead_chacha20poly1305.o)
 .note.GNU-stack
                0x0000000000000000        0x0 ../../crypto/libcrypt_s.a(aead_chacha20poly1305.o)
 .note.gnu.property
                0x0000000000000000       0x20 ../../crypto/libcrypt_s.a(aead_chacha20poly1305.o)
 .text          0x0000000000000000        0x0 ../../crypto/libcrypt_s.a(utils.o)
 .data          0x0000000000000000        0x0 ../../crypto/libcrypt_s.a(utils.o)
 .bss           0x0000000000000000        0x0 ../../crypto/libcrypt_s.a(utils.o)
 .text.psSodium_dummy_symbol_to_prevent_compare_lto
                0x0000000000000000        0x5 ../../crypto/libcrypt_s.a(utils.o)
 .text.psSodium_compare
                0x0000000000000000       0x77 ../../crypto/libcrypt_s.a(utils.o)
 .text.psSodium_increment
                0x0000000000000000       0x71 ../../crypto/libcrypt_s.a(utils.o)
 .text.psSodium_add
                0x0000000000000000       0x81 ../../crypto/libcrypt_s.a(utils.o)
 .text.unlikely.psSodium_bin2hex
                0x0000000000000000        0x6 ../../crypto/libcrypt_s.a(utils.o)
 .text.psSodium_bin2hex
                0x0000000000000000       0xa3 ../../crypto/libcrypt_s.a(utils.o)
 .text.psSodium_hex2bin
                0x0000000000000000      0x16f ../../crypto/libcrypt_s.a(utils.o)
 .text.psSodium_mlock
                0x0000000000000000       0x2d ../../crypto/libcrypt_s.a(utils.o)
 .text.psSodium_munlock
                0x0000000000000000       0x38 ../../crypto/libcrypt_s.a(utils.o)
 .text.psSodium_mprotect_noaccess
                0x0000000000000000       0x1d ../../crypto/libcrypt_s.a(utils.o)
 .text.psSodium_mprotect_readonly
                0x0000000000000000       0x1d ../../crypto/libcrypt_s.a(utils.o)
 .text.psSodium_mprotect_readwrite
                0x0000000000000000       0x1d ../../crypto/libcrypt_s.a(utils.o)
 .note.GNU-stack
                0x0000000000000000        0x0 ../../crypto/libcrypt_s.a(utils.o)
 .note.gnu.property
                0x0000000000000000       0x20 ../../crypto/libcrypt_s.a(utils.o)
 .text          0x0000000000000000        0x0 ../../crypto/libcrypt_s.a(verify.o)
 .data          0x0000000000000000        0x0 ../../crypto/libcrypt_s.a(verify.o)
 .bss           0x0000000000000000        0x0 ../../crypto/libcrypt_s.a(verify.o)
 .text.psCrypto_verify_16_bytes
                0x0000000000000000        0xa ../../crypto/libcrypt_s.a(verify.o)
 .text.psCrypto_verify_32_bytes
                0x0000000000000000        0xa ../../crypto/libcrypt_s.a(verify.o)
 .text.psCrypto_verify_64
                0x0000000000000000       0x36 ../../crypto/libcrypt_s.a(verify.o)
 .text.psCrypto_verify_64_bytes
                0x0000000000000000        0xa ../../crypto/libcrypt_s.a(verify.o)
 .note.GNU-stack
                0x0000000000000000        0x0 ../../crypto/libcrypt_s.a(verify.o)
 .note.gnu.property
                0x0000000000000000       0x20 ../../crypto/libcrypt_s.a(verify.o)
 .text          0x0000000000000000        0x0 ../../crypto/libcrypt_s.a(runtime.o)
 .data          0x0000000000000000        0x0 ../../crypto/libcrypt_s.a(runtime.o)
 .bss           0x0000000000000000        0x0 ../../crypto/libcrypt_s.a(runtime.o)
 .text.psSodium_runtime_has_neon
                0x0000000000000000        0xb ../../crypto/libcrypt_s.a(runtime.o)
 .text.psSodium_runtime_has_sse3
                0x0000000000000000        0xb ../../crypto/libcrypt_s.a(runtime.o)
 .text.psSodium_runtime_has_sse41
                0x0000000000000000        0xb ../../crypto/libcrypt_s.a(runtime.o)
 .text.psSodium_runtime_has_avx
                0x0000000000000000        0xb ../../crypto/libcrypt_s.a(runtime.o)
 .text.psSodium_runtime_has_avx2
                0x0000000000000000        0xb ../../crypto/libcrypt_s.a(runtime.o)
 .text.psSodium_runtime_has_pclmul
                0x0000000000000000        0xb ../../crypto/libcrypt_s.a(runtime.o)
 .text.psSodium_runtime_has_aesni
                0x0000000000000000        0xb ../../crypto/libcrypt_s.a(runtime.o)
 .note.GNU-stack
                0x0000000000000000        0x0 ../../crypto/libcrypt_s.a(runtime.o)
 .note.gnu.property
                0x0000000000000000       0x20 ../../crypto/libcrypt_s.a(runtime.o)
 .text          0x0000000000000000        0x0 ../../crypto/libcrypt_s.a(ps_x25519.o)
 .data          0x0000000000000000        0x0 ../../crypto/libcrypt_s.a(ps_x25519.o)
 .bss           0x0000000000000000        0x0 ../../crypto/libcrypt_s.a(ps_x25519.o)
 .note.GNU-stack
                0x0000000000000000        0x0 ../../crypto/libcrypt_s.a(ps_x25519.o)
 .note.gnu.property
                0x0000000000000000       0x20 ../../crypto/libcrypt_s.a(ps_x25519.o)
 .text          0x0000000000000000        0x0 ../../crypto/libcrypt_s.a(ps_ed25519.o)
 .data          0x0000000000000000        0x0 ../../crypto/libcrypt_s.a(ps_ed25519.o)
 .bss           0x0000000000000000        0x0 ../../crypto/libcrypt_s.a(ps_ed25519.o)
 .note.GNU-stack
                0x0000000000000000        0x0 ../../crypto/libcrypt_s.a(ps_ed25519.o)
 .note.gnu.property
                0x0000000000000000       0x20 ../../crypto/libcrypt_s.a(ps_ed25519.o)
 .text          0x0000000000000000        0x0 ../../crypto/libcrypt_s.a(digest_info.o)
 .data          0x0000000000000000        0x0 ../../crypto/libcrypt_s.a(digest_info.o)
 .bss           0x0000000000000000        0x0 ../../crypto/libcrypt_s.a(digest_info.o)
 .note.GNU-stack
                0x0000000000000000        0x0 ../../crypto/libcrypt_s.a(digest_info.o)
 .note.gnu.property
                0x0000000000000000       0x20 ../../crypto/libcrypt_s.a(digest_info.o)
 .text          0x0000000000000000        0x0 ../../crypto/libcrypt_s.a(des3.o)
 .data          0x0000000000000000        0x0 ../../crypto/libcrypt_s.a(des3.o)
 .bss           0x0000000000000000        0x0 ../../crypto/libcrypt_s.a(des3.o)
 .text.psDes3Encrypt
                0x0000000000000000      0x290 ../../crypto/libcrypt_s.a(des3.o)
 .text.psDes3Clear
                0x0000000000000000       0x15 ../../crypto/libcrypt_s.a(des3.o)
 .note.GNU-stack
                0x0000000000000000        0x0 ../../crypto/libcrypt_s.a(des3.o)
 .note.gnu.property
                0x0000000000000000       0x20 ../../crypto/libcrypt_s.a(des3.o)
 .text          0x0000000000000000        0x0 ../../crypto/libcrypt_s.a(asn1.o)
 .data          0x0000000000000000        0x0 ../../crypto/libcrypt_s.a(asn1.o)
 .bss           0x0000000000000000        0x0 ../../crypto/libcrypt_s.a(asn1.o)
 .text.unlikely.getAsnSet32
                0x0000000000000000        0xb ../../crypto/libcrypt_s.a(asn1.o)
 .text.getAsnSet32
                0x0000000000000000      0x15e ../../crypto/libcrypt_s.a(asn1.o)
 .rodata.getAsnSet32
                0x0000000000000000       0x14 ../../crypto/libcrypt_s.a(asn1.o)
 .note.GNU-stack
                0x0000000000000000        0x0 ../../crypto/libcrypt_s.a(asn1.o)
 .note.gnu.property
                0x0000000000000000       0x20 ../../crypto/libcrypt_s.a(asn1.o)
 .text          0x0000000000000000        0x0 ../../crypto/libcrypt_s.a(base64.o)
 .data          0x0000000000000000        0x0 ../../crypto/libcrypt_s.a(base64.o)
 .bss           0x0000000000000000        0x0 ../../crypto/libcrypt_s.a(base64.o)
 .note.GNU-stack
                0x0000000000000000        0x0 ../../crypto/libcrypt_s.a(base64.o)
 .note.gnu.property
                0x0000000000000000       0x20 ../../crypto/libcrypt_s.a(base64.o)
 .text          0x0000000000000000        0x0 ../../crypto/libcrypt_s.a(crl.o)
 .data          0x0000000000000000        0x0 ../../crypto/libcrypt_s.a(crl.o)
 .bss           0x0000000000000000        0x0 ../../crypto/libcrypt_s.a(crl.o)
 .text.psX509FreeCRL.part.0
                0x0000000000000000       0xb3 ../../crypto/libcrypt_s.a(crl.o)
 .text.psCRL_Insert
                0x0000000000000000       0x9d ../../crypto/libcrypt_s.a(crl.o)
 .text.psCRL_Remove
                0x0000000000000000       0xe4 ../../crypto/libcrypt_s.a(crl.o)
 .text.psCRL_Delete
                0x0000000000000000       0x40 ../../crypto/libcrypt_s.a(crl.o)
 .text.psCRL_RemoveAll
                0x0000000000000000       0x66 ../../crypto/libcrypt_s.a(crl.o)
 .text.psCRL_DeleteAll
                0x0000000000000000       0x89 ../../crypto/libcrypt_s.a(crl.o)
 .text.internalCRLmatch
                0x0000000000000000       0x30 ../../crypto/libcrypt_s.a(crl.o)
 .text.psCRL_Update
                0x0000000000000000       0xff ../../crypto/libcrypt_s.a(crl.o)
 .text.psCRL_GetCRLForCert
                0x0000000000000000       0x3b ../../crypto/libcrypt_s.a(crl.o)
 .text.internalCrlIsRevoked
                0x0000000000000000       0xc6 ../../crypto/libcrypt_s.a(crl.o)
 .text.psCRL_isRevoked
                0x0000000000000000       0xb8 ../../crypto/libcrypt_s.a(crl.o)
 .text.psX509FreeCRL
                0x0000000000000000       0x11 ../../crypto/libcrypt_s.a(crl.o)
 .text.psCRL_determineRevokedStatusBDT
                0x0000000000000000      0x1b9 ../../crypto/libcrypt_s.a(crl.o)
 .text.psX509GetCRLVersion
                0x0000000000000000       0xdd ../../crypto/libcrypt_s.a(crl.o)
 .text.psX509ParseCRL
                0x0000000000000000      0x63d ../../crypto/libcrypt_s.a(crl.o)
 .text.psX509GetCRLdistURL
                0x0000000000000000       0x5f ../../crypto/libcrypt_s.a(crl.o)
 .note.GNU-stack
                0x0000000000000000        0x0 ../../crypto/libcrypt_s.a(crl.o)
 .note.gnu.property
                0x0000000000000000       0x20 ../../crypto/libcrypt_s.a(crl.o)
 .text          0x0000000000000000        0x0 ../../crypto/libcrypt_s.a(pem_decode_file.o)
 .data          0x0000000000000000        0x0 ../../crypto/libcrypt_s.a(pem_decode_file.o)
 .bss           0x0000000000000000        0x0 ../../crypto/libcrypt_s.a(pem_decode_file.o)
 .text.psPemFileToDer
                0x0000000000000000       0xd5 ../../crypto/libcrypt_s.a(pem_decode_file.o)
 .note.GNU-stack
                0x0000000000000000        0x0 ../../crypto/libcrypt_s.a(pem_decode_file.o)
 .note.gnu.property
                0x0000000000000000       0x20 ../../crypto/libcrypt_s.a(pem_decode_file.o)
 .text          0x0000000000000000        0x0 ../../crypto/libcrypt_s.a(ecc_math.o)
 .data          0x0000000000000000        0x0 ../../crypto/libcrypt_s.a(ecc_math.o)
 .bss           0x0000000000000000        0x0 ../../crypto/libcrypt_s.a(ecc_math.o)
 .note.GNU-stack
                0x0000000000000000        0x0 ../../crypto/libcrypt_s.a(ecc_math.o)
 .note.gnu.property
                0x0000000000000000       0x20 ../../crypto/libcrypt_s.a(ecc_math.o)
 .text          0x0000000000000000        0x0 ../../crypto/libcrypt_s.a(ecc_parse_file.o)
 .data          0x0000000000000000        0x0 ../../crypto/libcrypt_s.a(ecc_parse_file.o)
 .bss           0x0000000000000000        0x0 ../../crypto/libcrypt_s.a(ecc_parse_file.o)
 .text.psEccParsePrivFile
                0x0000000000000000       0xf4 ../../crypto/libcrypt_s.a(ecc_parse_file.o)
 .text.psEd25519ParsePrivFile
                0x0000000000000000       0x91 ../../crypto/libcrypt_s.a(ecc_parse_file.o)
 .note.GNU-stack
                0x0000000000000000        0x0 ../../crypto/libcrypt_s.a(ecc_parse_file.o)
 .note.gnu.property
                0x0000000000000000       0x20 ../../crypto/libcrypt_s.a(ecc_parse_file.o)
 .text          0x0000000000000000        0x0 ../../crypto/libcrypt_s.a(pubkey_parse_mem.o)
 .data          0x0000000000000000        0x0 ../../crypto/libcrypt_s.a(pubkey_parse_mem.o)
 .bss           0x0000000000000000        0x0 ../../crypto/libcrypt_s.a(pubkey_parse_mem.o)
 .text.psParseUnknownPrivKeyMem
                0x0000000000000000      0x1b2 ../../crypto/libcrypt_s.a(pubkey_parse_mem.o)
 .text.psParseSubjectPublicKeyInfo
                0x0000000000000000      0x12d ../../crypto/libcrypt_s.a(pubkey_parse_mem.o)
 .text.psParseUnknownPubKeyMem
                0x0000000000000000      0x104 ../../crypto/libcrypt_s.a(pubkey_parse_mem.o)
 .note.GNU-stack
                0x0000000000000000        0x0 ../../crypto/libcrypt_s.a(pubkey_parse_mem.o)
 .note.gnu.property
                0x0000000000000000       0x20 ../../crypto/libcrypt_s.a(pubkey_parse_mem.o)
 .text          0x0000000000000000        0x0 ../../crypto/libcrypt_s.a(stream_chacha20.o)
 .data          0x0000000000000000        0x0 ../../crypto/libcrypt_s.a(stream_chacha20.o)
 .bss           0x0000000000000000        0x0 ../../crypto/libcrypt_s.a(stream_chacha20.o)
 .text.psCrypto_stream_chacha20_keybytes
                0x0000000000000000        0xa ../../crypto/libcrypt_s.a(stream_chacha20.o)
 .text.psCrypto_stream_chacha20_noncebytes
                0x0000000000000000        0xa ../../crypto/libcrypt_s.a(stream_chacha20.o)
 .text.psCrypto_stream_chacha20_ietf_keybytes
                0x0000000000000000        0xa ../../crypto/libcrypt_s.a(stream_chacha20.o)
 .text.psCrypto_stream_chacha20_ietf_noncebytes
                0x0000000000000000        0xa ../../crypto/libcrypt_s.a(stream_chacha20.o)
 .text.psCrypto_stream_chacha20
                0x0000000000000000        0xd ../../crypto/libcrypt_s.a(stream_chacha20.o)
 .text.psCrypto_stream_chacha20_xor_ic
                0x0000000000000000        0xe ../../crypto/libcrypt_s.a(stream_chacha20.o)
 .text.psCrypto_stream_chacha20_xor
                0x0000000000000000       0x17 ../../crypto/libcrypt_s.a(stream_chacha20.o)
 .text.psCrypto_stream_chacha20_ietf_xor
                0x0000000000000000       0x17 ../../crypto/libcrypt_s.a(stream_chacha20.o)
 .note.GNU-stack
                0x0000000000000000        0x0 ../../crypto/libcrypt_s.a(stream_chacha20.o)
 .note.gnu.property
                0x0000000000000000       0x20 ../../crypto/libcrypt_s.a(stream_chacha20.o)
 .text          0x0000000000000000        0x0 ../../crypto/libcrypt_s.a(onetimeauth_poly1305.o)
 .data          0x0000000000000000        0x0 ../../crypto/libcrypt_s.a(onetimeauth_poly1305.o)
 .bss           0x0000000000000000        0x0 ../../crypto/libcrypt_s.a(onetimeauth_poly1305.o)
 .text.psCrypto_onetimeauth_poly1305
                0x0000000000000000        0xd ../../crypto/libcrypt_s.a(onetimeauth_poly1305.o)
 .text.psCrypto_onetimeauth_poly1305_verify
                0x0000000000000000        0xe ../../crypto/libcrypt_s.a(onetimeauth_poly1305.o)
 .text.psCrypto_onetimeauth_poly1305_bytes
                0x0000000000000000        0xa ../../crypto/libcrypt_s.a(onetimeauth_poly1305.o)
 .text.psCrypto_onetimeauth_poly1305_keybytes
                0x0000000000000000        0xa ../../crypto/libcrypt_s.a(onetimeauth_poly1305.o)
 .text.psCrypto_onetimeauth_poly1305_statebytes
                0x0000000000000000        0xa ../../crypto/libcrypt_s.a(onetimeauth_poly1305.o)
 .note.GNU-stack
                0x0000000000000000        0x0 ../../crypto/libcrypt_s.a(onetimeauth_poly1305.o)
 .note.gnu.property
                0x0000000000000000       0x20 ../../crypto/libcrypt_s.a(onetimeauth_poly1305.o)
 .text          0x0000000000000000        0x0 ../../crypto/libcrypt_s.a(crypto_scalarmult.o)
 .data          0x0000000000000000        0x0 ../../crypto/libcrypt_s.a(crypto_scalarmult.o)
 .bss           0x0000000000000000        0x0 ../../crypto/libcrypt_s.a(crypto_scalarmult.o)
 .rodata.psSodium_crypto_scalarmult_primitive.str1.1
                0x0000000000000000        0xb ../../crypto/libcrypt_s.a(crypto_scalarmult.o)
 .text.psSodium_crypto_scalarmult_primitive
                0x0000000000000000        0xc ../../crypto/libcrypt_s.a(crypto_scalarmult.o)
 .text.psSodium_crypto_scalarmult_base
                0x0000000000000000        0x9 ../../crypto/libcrypt_s.a(crypto_scalarmult.o)
 .text.psSodium_crypto_scalarmult_bytes
                0x0000000000000000        0xa ../../crypto/libcrypt_s.a(crypto_scalarmult.o)
 .text.psSodium_crypto_scalarmult_scalarbytes
                0x0000000000000000        0xa ../../crypto/libcrypt_s.a(crypto_scalarmult.o)
 .note.GNU-stack
                0x0000000000000000        0x0 ../../crypto/libcrypt_s.a(crypto_scalarmult.o)
 .note.gnu.property
                0x0000000000000000       0x20 ../../crypto/libcrypt_s.a(crypto_scalarmult.o)
 .text          0x0000000000000000        0x0 ../../crypto/libcrypt_s.a(sign.o)
 .data          0x0000000000000000        0x0 ../../crypto/libcrypt_s.a(sign.o)
 .bss           0x0000000000000000        0x0 ../../crypto/libcrypt_s.a(sign.o)
 .text.psSodium_crypto_sign_ed25519
                0x0000000000000000       0xb7 ../../crypto/libcrypt_s.a(sign.o)
 .note.GNU-stack
                0x0000000000000000        0x0 ../../crypto/libcrypt_s.a(sign.o)
 .note.gnu.property
                0x0000000000000000       0x20 ../../crypto/libcrypt_s.a(sign.o)
 .text          0x0000000000000000        0x0 ../../crypto/libcrypt_s.a(open.o)
 .data          0x0000000000000000        0x0 ../../crypto/libcrypt_s.a(open.o)
 .bss           0x0000000000000000        0x0 ../../crypto/libcrypt_s.a(open.o)
 .text.psSodium_crypto_sign_ed25519_open
                0x0000000000000000       0xa2 ../../crypto/libcrypt_s.a(open.o)
 .note.GNU-stack
                0x0000000000000000        0x0 ../../crypto/libcrypt_s.a(open.o)
 .note.gnu.property
                0x0000000000000000       0x20 ../../crypto/libcrypt_s.a(open.o)
 .text          0x0000000000000000        0x0 ../../crypto/libcrypt_s.a(pstm_montgomery_reduce.o)
 .data          0x0000000000000000        0x0 ../../crypto/libcrypt_s.a(pstm_montgomery_reduce.o)
 .bss           0x0000000000000000        0x0 ../../crypto/libcrypt_s.a(pstm_montgomery_reduce.o)
 .note.GNU-stack
                0x0000000000000000        0x0 ../../crypto/libcrypt_s.a(pstm_montgomery_reduce.o)
 .note.gnu.property
                0x0000000000000000       0x20 ../../crypto/libcrypt_s.a(pstm_montgomery_reduce.o)
 .text          0x0000000000000000        0x0 ../../crypto/libcrypt_s.a(poly1305_sse2.o)
 .data          0x0000000000000000        0x0 ../../crypto/libcrypt_s.a(poly1305_sse2.o)
 .bss           0x0000000000000000        0x0 ../../crypto/libcrypt_s.a(poly1305_sse2.o)
 .note.GNU-stack
                0x0000000000000000        0x0 ../../crypto/libcrypt_s.a(poly1305_sse2.o)
 .note.gnu.property
                0x0000000000000000       0x20 ../../crypto/libcrypt_s.a(poly1305_sse2.o)
 .text          0x0000000000000000        0x0 ../../crypto/libcrypt_s.a(poly1305_donna.o)
 .data          0x0000000000000000        0x0 ../../crypto/libcrypt_s.a(poly1305_donna.o)
 .bss           0x0000000000000000        0x0 ../../crypto/libcrypt_s.a(poly1305_donna.o)
 .note.GNU-stack
                0x0000000000000000        0x0 ../../crypto/libcrypt_s.a(poly1305_donna.o)
 .note.gnu.property
                0x0000000000000000       0x20 ../../crypto/libcrypt_s.a(poly1305_donna.o)
 .text          0x0000000000000000        0x0 ../../crypto/libcrypt_s.a(chacha20_dolbeau-ssse3.o)
 .data          0x0000000000000000        0x0 ../../crypto/libcrypt_s.a(chacha20_dolbeau-ssse3.o)
 .bss           0x0000000000000000        0x0 ../../crypto/libcrypt_s.a(chacha20_dolbeau-ssse3.o)
 .note.GNU-stack
                0x0000000000000000        0x0 ../../crypto/libcrypt_s.a(chacha20_dolbeau-ssse3.o)
 .note.gnu.property
                0x0000000000000000       0x20 ../../crypto/libcrypt_s.a(chacha20_dolbeau-ssse3.o)
 .text          0x0000000000000000        0x0 ../../crypto/libcrypt_s.a(chacha20_ref.o)
 .data          0x0000000000000000        0x0 ../../crypto/libcrypt_s.a(chacha20_ref.o)
 .bss           0x0000000000000000        0x0 ../../crypto/libcrypt_s.a(chacha20_ref.o)
 .note.GNU-stack
                0x0000000000000000        0x0 ../../crypto/libcrypt_s.a(chacha20_ref.o)
 .note.gnu.property
                0x0000000000000000       0x20 ../../crypto/libcrypt_s.a(chacha20_ref.o)
 .text          0x0000000000000000        0x0 ../../crypto/libcrypt_s.a(scalarmult_curve25519.o)
 .data          0x0000000000000000        0x0 ../../crypto/libcrypt_s.a(scalarmult_curve25519.o)
 .bss           0x0000000000000000        0x0 ../../crypto/libcrypt_s.a(scalarmult_curve25519.o)
 .text.psSodium_crypto_scalarmult_curve25519_base
                0x0000000000000000        0xe ../../crypto/libcrypt_s.a(scalarmult_curve25519.o)
 .text.psSodium_crypto_scalarmult_curve25519_bytes
                0x0000000000000000        0xa ../../crypto/libcrypt_s.a(scalarmult_curve25519.o)
 .text.psSodium_crypto_scalarmult_curve25519_scalarbytes
                0x0000000000000000        0xa ../../crypto/libcrypt_s.a(scalarmult_curve25519.o)
 .text._psSodium_crypto_scalarmult_curve25519_pick_best_implementation
                0x0000000000000000       0x15 ../../crypto/libcrypt_s.a(scalarmult_curve25519.o)
 .note.GNU-stack
                0x0000000000000000        0x0 ../../crypto/libcrypt_s.a(scalarmult_curve25519.o)
 .note.gnu.property
                0x0000000000000000       0x20 ../../crypto/libcrypt_s.a(scalarmult_curve25519.o)
 .text          0x0000000000000000        0x0 ../../crypto/libcrypt_s.a(x25519_ref10.o)
 .data          0x0000000000000000        0x0 ../../crypto/libcrypt_s.a(x25519_ref10.o)
 .bss           0x0000000000000000        0x0 ../../crypto/libcrypt_s.a(x25519_ref10.o)
 .note.GNU-stack
                0x0000000000000000        0x0 ../../crypto/libcrypt_s.a(x25519_ref10.o)
 .note.gnu.property
                0x0000000000000000       0x20 ../../crypto/libcrypt_s.a(x25519_ref10.o)
 .text          0x0000000000000000        0x0 ../../crypto/libcrypt_s.a(ed25519_ref10.o)
 .data          0x0000000000000000        0x0 ../../crypto/libcrypt_s.a(ed25519_ref10.o)
 .bss           0x0000000000000000        0x0 ../../crypto/libcrypt_s.a(ed25519_ref10.o)
 .text.psSodium_ge25519_select_cached
                0x0000000000000000      0x484 ../../crypto/libcrypt_s.a(ed25519_ref10.o)
 .text.psSodium_ge25519_frombytes
                0x0000000000000000      0x489 ../../crypto/libcrypt_s.a(ed25519_ref10.o)
 .text.psSodium_ge25519_p1p1_to_p2
                0x0000000000000000       0x4d ../../crypto/libcrypt_s.a(ed25519_ref10.o)
 .text.psSodium_ge25519_p1p1_to_p3
                0x0000000000000000       0x5b ../../crypto/libcrypt_s.a(ed25519_ref10.o)
 .text.psSodium_ge25519_mul_l
                0x0000000000000000      0xb33 ../../crypto/libcrypt_s.a(ed25519_ref10.o)
 .text.psSodium_ge25519_scalarmult
                0x0000000000000000      0x9c8 ../../crypto/libcrypt_s.a(ed25519_ref10.o)
 .text.psSodium_ge25519_is_on_curve
                0x0000000000000000      0x1b0 ../../crypto/libcrypt_s.a(ed25519_ref10.o)
 .text.psSodium_ge25519_is_on_main_subgroup
                0x0000000000000000      0x450 ../../crypto/libcrypt_s.a(ed25519_ref10.o)
 .text.psSodium_ge25519_is_canonical
                0x0000000000000000       0x46 ../../crypto/libcrypt_s.a(ed25519_ref10.o)
 .text.psSodium_sc25519_is_canonical
                0x0000000000000000       0x4e ../../crypto/libcrypt_s.a(ed25519_ref10.o)
 .text.unlikely.psSodium_ge25519_from_uniform
                0x0000000000000000        0x5 ../../crypto/libcrypt_s.a(ed25519_ref10.o)
 .text.psSodium_ge25519_from_uniform
                0x0000000000000000      0x7cf ../../crypto/libcrypt_s.a(ed25519_ref10.o)
 .rodata.L.0    0x0000000000000000       0x20 ../../crypto/libcrypt_s.a(ed25519_ref10.o)
 .rodata.aslide.2
                0x0000000000000000       0xfd ../../crypto/libcrypt_s.a(ed25519_ref10.o)
 .rodata.curve25519_A
                0x0000000000000000       0x28 ../../crypto/libcrypt_s.a(ed25519_ref10.o)
 .note.GNU-stack
                0x0000000000000000        0x0 ../../crypto/libcrypt_s.a(ed25519_ref10.o)
 .note.gnu.property
                0x0000000000000000       0x20 ../../crypto/libcrypt_s.a(ed25519_ref10.o)
 .text          0x0000000000000000        0x0 ../../core/libcore_s.a(memset_s.o)
 .data          0x0000000000000000        0x0 ../../core/libcore_s.a(memset_s.o)
 .bss           0x0000000000000000        0x0 ../../core/libcore_s.a(memset_s.o)
 .note.GNU-stack
                0x0000000000000000        0x0 ../../core/libcore_s.a(memset_s.o)
 .note.gnu.property
                0x0000000000000000       0x20 ../../core/libcore_s.a(memset_s.o)
 .text          0x0000000000000000        0x0 ../../core/libcore_s.a(corelib_main.o)
 .data          0x0000000000000000        0x0 ../../core/libcore_s.a(corelib_main.o)
 .bss           0x0000000000000000        0x0 ../../core/libcore_s.a(corelib_main.o)
 .text.psCoreLibInternalLock
                0x0000000000000000       0x1b ../../core/libcore_s.a(corelib_main.o)
 .text.psCoreLibInternalUnlock
                0x0000000000000000       0x1c ../../core/libcore_s.a(corelib_main.o)
 .note.GNU-stack
                0x0000000000000000        0x0 ../../core/libcore_s.a(corelib_main.o)
 .note.gnu.property
                0x0000000000000000       0x20 ../../core/libcore_s.a(corelib_main.o)
 .text          0x0000000000000000        0x0 ../../core/libcore_s.a(corelib_trace.o)
 .data          0x0000000000000000        0x0 ../../core/libcore_s.a(corelib_trace.o)
 .bss           0x0000000000000000        0x0 ../../core/libcore_s.a(corelib_trace.o)
 .note.GNU-stack
                0x0000000000000000        0x0 ../../core/libcore_s.a(corelib_trace.o)
 .note.gnu.property
                0x0000000000000000       0x20 ../../core/libcore_s.a(corelib_trace.o)
 .text          0x0000000000000000        0x0 ../../core/libcore_s.a(corelib_date.o)
 .data          0x0000000000000000        0x0 ../../core/libcore_s.a(corelib_date.o)
 .bss           0x0000000000000000        0x0 ../../core/libcore_s.a(corelib_date.o)
 .rodata.psBrokenDownTimeStrTwoDigitYear.str1.1
                0x0000000000000000        0xe ../../core/libcore_s.a(corelib_date.o)
 .text.psBrokenDownTimeStrTwoDigitYear
                0x0000000000000000       0x30 ../../core/libcore_s.a(corelib_date.o)
 .rodata.psBrokenDownTimeImport.str1.1
                0x0000000000000000       0x10 ../../core/libcore_s.a(corelib_date.o)
 .note.GNU-stack
                0x0000000000000000        0x0 ../../core/libcore_s.a(corelib_date.o)
 .note.gnu.property
                0x0000000000000000       0x20 ../../core/libcore_s.a(corelib_date.o)
 .text          0x0000000000000000        0x0 ../../core/libcore_s.a(corelib_strings.o)
 .data          0x0000000000000000        0x0 ../../core/libcore_s.a(corelib_strings.o)
 .bss           0x0000000000000000        0x0 ../../core/libcore_s.a(corelib_strings.o)
 .text.psToUtf16String
                0x0000000000000000       0x19 ../../core/libcore_s.a(corelib_strings.o)
 .text.psToUtf32String
                0x0000000000000000       0x19 ../../core/libcore_s.a(corelib_strings.o)
 .rodata.psBinaryToHex.str1.1
                0x0000000000000000        0x3 ../../core/libcore_s.a(corelib_strings.o)
 .text.psBinaryToHex
                0x0000000000000000       0x9c ../../core/libcore_s.a(corelib_strings.o)
 .text.psStrCaseCmp
                0x0000000000000000       0xa2 ../../core/libcore_s.a(corelib_strings.o)
 .note.GNU-stack
                0x0000000000000000        0x0 ../../core/libcore_s.a(corelib_strings.o)
 .note.gnu.property
                0x0000000000000000       0x20 ../../core/libcore_s.a(corelib_strings.o)
 .text          0x0000000000000000        0x0 ../../core/libcore_s.a(corelib_list.o)
 .data          0x0000000000000000        0x0 ../../core/libcore_s.a(corelib_list.o)
 .bss           0x0000000000000000        0x0 ../../core/libcore_s.a(corelib_list.o)
 .text.psParseList
                0x0000000000000000      0x18f ../../core/libcore_s.a(corelib_list.o)
 .note.GNU-stack
                0x0000000000000000        0x0 ../../core/libcore_s.a(corelib_list.o)
 .note.gnu.property
                0x0000000000000000       0x20 ../../core/libcore_s.a(corelib_list.o)
 .text          0x0000000000000000        0x0 ../../core/libcore_s.a(psbuf.o)
 .data          0x0000000000000000        0x0 ../../core/libcore_s.a(psbuf.o)
 .bss           0x0000000000000000        0x0 ../../core/libcore_s.a(psbuf.o)
 .text.output_len
                0x0000000000000000       0x72 ../../core/libcore_s.a(psbuf.o)
 .text.psBufFromData
                0x0000000000000000       0x7f ../../core/libcore_s.a(psbuf.o)
 .text.psBufEmptyFromPointerSize
                0x0000000000000000       0x24 ../../core/libcore_s.a(psbuf.o)
 .rodata.psBufAsHex.str1.1
                0x0000000000000000        0x5 ../../core/libcore_s.a(psbuf.o)
 .text.psBufAsHex
                0x0000000000000000       0x99 ../../core/libcore_s.a(psbuf.o)
 .text.psBufGetMaxAppendSize
                0x0000000000000000       0x10 ../../core/libcore_s.a(psbuf.o)
 .text.psBufGetMaxPrependSize
                0x0000000000000000        0xc ../../core/libcore_s.a(psbuf.o)
 .text.psBufGetData
                0x0000000000000000        0x9 ../../core/libcore_s.a(psbuf.o)
 .text.psBufGetDataSize
                0x0000000000000000        0xd ../../core/libcore_s.a(psbuf.o)
 .text.psBufPrependSize
                0x0000000000000000       0x29 ../../core/libcore_s.a(psbuf.o)
 .text.psBufNormalize
                0x0000000000000000       0x48 ../../core/libcore_s.a(psbuf.o)
 .text.psBufCopyDataN
                0x0000000000000000       0x67 ../../core/libcore_s.a(psbuf.o)
 .text.psDynBufReservePrepend
                0x0000000000000000       0x15 ../../core/libcore_s.a(psbuf.o)
 .text.psDynBufPrependSize
                0x0000000000000000       0x69 ../../core/libcore_s.a(psbuf.o)
 .text.psDynBufSubInit
                0x0000000000000000       0xb4 ../../core/libcore_s.a(psbuf.o)
 .text.psDynBufSubInitAt
                0x0000000000000000       0x9f ../../core/libcore_s.a(psbuf.o)
 .text.psDynBufSubFinish
                0x0000000000000000       0xe9 ../../core/libcore_s.a(psbuf.o)
 .text.psDynBufAppendAsn1TagGen
                0x0000000000000000       0x93 ../../core/libcore_s.a(psbuf.o)
 .text.psDynBufBeginConstructedTag
                0x0000000000000000       0x38 ../../core/libcore_s.a(psbuf.o)
 .text.psDynBufEndConstructedTag
                0x0000000000000000       0x91 ../../core/libcore_s.a(psbuf.o)
 .text.psParseBufCanGetTag
                0x0000000000000000       0x21 ../../core/libcore_s.a(psbuf.o)
 .text.psParseBufCopyAll
                0x0000000000000000       0x60 ../../core/libcore_s.a(psbuf.o)
 .text.psParseBufCopyUntilByte
                0x0000000000000000       0x6d ../../core/libcore_s.a(psbuf.o)
 .text.psParseBufEq
                0x0000000000000000       0x6c ../../core/libcore_s.a(psbuf.o)
 .text.psParseBufSkipTag
                0x0000000000000000       0x5f ../../core/libcore_s.a(psbuf.o)
 .text.psParseBufCancel
                0x0000000000000000       0x3b ../../core/libcore_s.a(psbuf.o)
 .rodata.__PRETTY_FUNCTION__.0
                0x0000000000000000       0x14 ../../core/libcore_s.a(psbuf.o)
 .note.GNU-stack
                0x0000000000000000        0x0 ../../core/libcore_s.a(psbuf.o)
 .note.gnu.property
                0x0000000000000000       0x20 ../../core/libcore_s.a(psbuf.o)
 .text          0x0000000000000000        0x0 ../../core/libcore_s.a(psStat.o)
 .data          0x0000000000000000        0x0 ../../core/libcore_s.a(psStat.o)
 .bss           0x0000000000000000        0x0 ../../core/libcore_s.a(psStat.o)
 .note.GNU-stack
                0x0000000000000000        0x0 ../../core/libcore_s.a(psStat.o)
 .note.gnu.property
                0x0000000000000000       0x20 ../../core/libcore_s.a(psStat.o)
 .text          0x0000000000000000        0x0 ../../core/libcore_s.a(osdep.o)
 .data          0x0000000000000000        0x0 ../../core/libcore_s.a(osdep.o)
 .bss           0x0000000000000000        0x0 ../../core/libcore_s.a(osdep.o)
 .text.psDiffUsecs
                0x0000000000000000       0x43 ../../core/libcore_s.a(osdep.o)
 .text.psCompareTime
                0x0000000000000000       0x29 ../../core/libcore_s.a(osdep.o)
 .text.osdepTraceOpen
                0x0000000000000000        0x7 ../../core/libcore_s.a(osdep.o)
 .text.osdepTraceClose
                0x0000000000000000        0x5 ../../core/libcore_s.a(osdep.o)
 .text._psTracePtr
                0x0000000000000000       0x49 ../../core/libcore_s.a(osdep.o)
 .text.psGetFileBufFp
                0x0000000000000000      0x120 ../../core/libcore_s.a(osdep.o)
 .rodata.psGetFileBuf.str1.1
                0x0000000000000000        0x2 ../../core/libcore_s.a(osdep.o)
 .text.psGetFileBuf
                0x0000000000000000       0x60 ../../core/libcore_s.a(osdep.o)
 .note.GNU-stack
                0x0000000000000000        0x0 ../../core/libcore_s.a(osdep.o)
 .note.gnu.property
                0x0000000000000000       0x20 ../../core/libcore_s.a(osdep.o)
 .text          0x0000000000000000        0x0 ../../core/libcore_s.a(cl_memset.o)
 .data          0x0000000000000000        0x0 ../../core/libcore_s.a(cl_memset.o)
 .bss           0x0000000000000000        0x0 ../../core/libcore_s.a(cl_memset.o)
 .text.CL_MemSet
                0x0000000000000000       0x17 ../../core/libcore_s.a(cl_memset.o)
 .note.GNU-stack
                0x0000000000000000        0x0 ../../core/libcore_s.a(cl_memset.o)
 .note.gnu.property
                0x0000000000000000       0x20 ../../core/libcore_s.a(cl_memset.o)
 .data          0x0000000000000000        0x0 /usr/lib/x86_64-linux-gnu/libc_nonshared.a(elf-init.oS)
 .bss           0x0000000000000000        0x0 /usr/lib/x86_64-linux-gnu/libc_nonshared.a(elf-init.oS)
 .note.GNU-stack
                0x0000000000000000        0x0 /usr/lib/x86_64-linux-gnu/libc_nonshared.a(elf-init.oS)
 .note.gnu.property
                0x0000000000000000       0x20 /usr/lib/x86_64-linux-gnu/libc_nonshared.a(elf-init.oS)
 .text          0x0000000000000000        0x0 /usr/lib/gcc/x86_64-linux-gnu/11/crtendS.o
 .data          0x0000000000000000        0x0 /usr/lib/gcc/x86_64-linux-gnu/11/crtendS.o
 .bss           0x0000000000000000        0x0 /usr/lib/gcc/x86_64-linux-gnu/11/crtendS.o
 .note.GNU-stack
                0x0000000000000000        0x0 /usr/lib/gcc/x86_64-linux-gnu/11/crtendS.o
 .note.gnu.property
                0x0000000000000000       0x20 /usr/lib/gcc/x86_64-linux-gnu/11/crtendS.o
 .text          0x0000000000000000        0x0 /usr/lib/gcc/x86_64-linux-gnu/11/../../../x86_64-linux-gnu/crtn.o
 .data          0x0000000000000000        0x0 /usr/lib/gcc/x86_64-linux-gnu/11/../../../x86_64-linux-gnu/crtn.o
 .bss           0x0000000000000000        0x0 /usr/lib/gcc/x86_64-linux-gnu/11/../../../x86_64-linux-gnu/crtn.o
 .note.gnu.property
                0x0000000000000000       0x20 /usr/lib/gcc/x86_64-linux-gnu/11/../../../x86_64-linux-gnu/crtn.o
 .note.GNU-stack
                0x0000000000000000        0x0 /usr/lib/gcc/x86_64-linux-gnu/11/../../../x86_64-linux-gnu/crtn.o

Memory Configuration

Name             Origin             Length             Attributes
*default*        0x0000000000000000 0xffffffffffffffff

Linker script and memory map

LOAD /usr/lib/gcc/x86_64-linux-gnu/11/../../../x86_64-linux-gnu/Scrt1.o
LOAD /usr/lib/gcc/x86_64-linux-gnu/11/../../../x86_64-linux-gnu/crti.o
LOAD /usr/lib/gcc/x86_64-linux-gnu/11/crtbeginS.o
LOAD sslTest.o
LOAD ../libssl_s.a
LOAD ../../crypto/libcrypt_s.a
LOAD ../../core/libcore_s.a
LOAD /usr/lib/gcc/x86_64-linux-gnu/11/../../../x86_64-linux-gnu/libpthread.so
LOAD /usr/lib/gcc/x86_64-linux-gnu/11/libgcc.a
LOAD /usr/lib/gcc/x86_64-linux-gnu/11/libgcc_s.so
START GROUP
LOAD /usr/lib/gcc/x86_64-linux-gnu/11/../../../x86_64-linux-gnu/libgcc_s.so.1
LOAD /usr/lib/gcc/x86_64-linux-gnu/11/libgcc.a
END GROUP
LOAD /usr/lib/gcc/x86_64-linux-gnu/11/../../../x86_64-linux-gnu/libc.so
START GROUP
LOAD /lib/x86_64-linux-gnu/libc.so.6
LOAD /usr/lib/x86_64-linux-gnu/libc_nonshared.a
LOAD /lib/x86_64-linux-gnu/ld-linux-x86-64.so.2
END GROUP
LOAD /usr/lib/gcc/x86_64-linux-gnu/11/libgcc.a
LOAD /usr/lib/gcc/x86_64-linux-gnu/11/libgcc_s.so
START GROUP
LOAD /usr/lib/gcc/x86_64-linux-gnu/11/../../../x86_64-linux-gnu/libgcc_s.so.1
LOAD /usr/lib/gcc/x86_64-linux-gnu/11/libgcc.a
END GROUP
LOAD /usr/lib/gcc/x86_64-linux-gnu/11/crtendS.o
LOAD /usr/lib/gcc/x86_64-linux-gnu/11/../../../x86_64-linux-gnu/crtn.o
                [!provide]                        PROVIDE (__executable_start = SEGMENT_START ("text-segment", 0x0))
                0x0000000000000350                . = (SEGMENT_START ("text-segment", 0x0) + SIZEOF_HEADERS)

.interp         0x0000000000000350       0x1c
 *(.interp)
 .interp        0x0000000000000350       0x1c /usr/lib/gcc/x86_64-linux-gnu/11/../../../x86_64-linux-gnu/Scrt1.o

.note.gnu.property
                0x0000000000000370       0x20
 .note.gnu.property
                0x0000000000000370       0x20 /usr/lib/gcc/x86_64-linux-gnu/11/../../../x86_64-linux-gnu/Scrt1.o

.note.gnu.build-id
                0x0000000000000390       0x24
 *(.note.gnu.build-id)
 .note.gnu.build-id
                0x0000000000000390       0x24 /usr/lib/gcc/x86_64-linux-gnu/11/../../../x86_64-linux-gnu/Scrt1.o

.note.ABI-tag   0x00000000000003b4       0x20
 .note.ABI-tag  0x00000000000003b4       0x20 /usr/lib/gcc/x86_64-linux-gnu/11/../../../x86_64-linux-gnu/Scrt1.o

.hash
 *(.hash)

.gnu.hash       0x00000000000003d8       0x28
 *(.gnu.hash)
 .gnu.hash      0x00000000000003d8       0x28 /usr/lib/gcc/x86_64-linux-gnu/11/../../../x86_64-linux-gnu/Scrt1.o

.dynsym         0x0000000000000400      0x588
 *(.dynsym)
 .dynsym        0x0000000000000400      0x588 /usr/lib/gcc/x86_64-linux-gnu/11/../../../x86_64-linux-gnu/Scrt1.o

.dynstr         0x0000000000000988      0x2f0
 *(.dynstr)
 .dynstr        0x0000000000000988      0x2f0 /usr/lib/gcc/x86_64-linux-gnu/11/../../../x86_64-linux-gnu/Scrt1.o

.gnu.version    0x0000000000000c78       0x76
 *(.gnu.version)
 .gnu.version   0x0000000000000c78       0x76 /usr/lib/gcc/x86_64-linux-gnu/11/../../../x86_64-linux-gnu/Scrt1.o

.gnu.version_d  0x0000000000000cf0        0x0
 *(.gnu.version_d)
 .gnu.version_d
                0x0000000000000cf0        0x0 /usr/lib/gcc/x86_64-linux-gnu/11/../../../x86_64-linux-gnu/Scrt1.o

.gnu.version_r  0x0000000000000cf0       0x90
 *(.gnu.version_r)
 .gnu.version_r
                0x0000000000000cf0       0x90 /usr/lib/gcc/x86_64-linux-gnu/11/../../../x86_64-linux-gnu/Scrt1.o

.rela.dyn       0x0000000000000d80     0x1608
 *(.rela.init)
 *(.rela.text .rela.text.* .rela.gnu.linkonce.t.*)
 .rela.text.parse_args
                0x0000000000000d80        0x0 /usr/lib/gcc/x86_64-linux-gnu/11/../../../x86_64-linux-gnu/Scrt1.o
 .rela.text.startup.main
                0x0000000000000d80        0x0 /usr/lib/gcc/x86_64-linux-gnu/11/../../../x86_64-linux-gnu/Scrt1.o
 .rela.text     0x0000000000000d80        0x0 /usr/lib/gcc/x86_64-linux-gnu/11/../../../x86_64-linux-gnu/Scrt1.o
 *(.rela.fini)
 *(.rela.rodata .rela.rodata.* .rela.gnu.linkonce.r.*)
 *(.rela.data .rela.data.* .rela.gnu.linkonce.d.*)
 .rela.data.rel.ro
                0x0000000000000d80        0x0 /usr/lib/gcc/x86_64-linux-gnu/11/../../../x86_64-linux-gnu/Scrt1.o
 .rela.data.rel.local
                0x0000000000000d80       0x18 /usr/lib/gcc/x86_64-linux-gnu/11/../../../x86_64-linux-gnu/Scrt1.o
 .rela.data.rel.ro.supportedCiphers
                0x0000000000000d98      0xf60 /usr/lib/gcc/x86_64-linux-gnu/11/../../../x86_64-linux-gnu/Scrt1.o
 .rela.data.rel.ro.local.eccCurves
                0x0000000000001cf8      0x348 /usr/lib/gcc/x86_64-linux-gnu/11/../../../x86_64-linux-gnu/Scrt1.o
 .rela.data.rel.implementation
                0x0000000000002040       0x48 /usr/lib/gcc/x86_64-linux-gnu/11/../../../x86_64-linux-gnu/Scrt1.o
 .rela.data.rel.local.psCrypto_onetimeauth_poly1305_sse2_implementation
                0x0000000000002088       0x78 /usr/lib/gcc/x86_64-linux-gnu/11/../../../x86_64-linux-gnu/Scrt1.o
 .rela.data.rel.local.psCrypto_onetimeauth_poly1305_donna_implementation
                0x0000000000002100       0x78 /usr/lib/gcc/x86_64-linux-gnu/11/../../../x86_64-linux-gnu/Scrt1.o
 .rela.data.rel.local.psCrypto_stream_chacha20_dolbeau_ssse3_implementation
                0x0000000000002178       0x60 /usr/lib/gcc/x86_64-linux-gnu/11/../../../x86_64-linux-gnu/Scrt1.o
 .rela.data.rel.local.psCrypto_stream_chacha20_ref_implementation
                0x00000000000021d8       0x60 /usr/lib/gcc/x86_64-linux-gnu/11/../../../x86_64-linux-gnu/Scrt1.o
 .rela.data.rel.local.psSodium_crypto_scalarmult_curve25519_ref10_implementation
                0x0000000000002238       0x30 /usr/lib/gcc/x86_64-linux-gnu/11/../../../x86_64-linux-gnu/Scrt1.o
 .rela.data.rel.ro.psStaticAllocationsPool
                0x0000000000002268       0x18 /usr/lib/gcc/x86_64-linux-gnu/11/../../../x86_64-linux-gnu/Scrt1.o
 *(.rela.tdata .rela.tdata.* .rela.gnu.linkonce.td.*)
 *(.rela.tbss .rela.tbss.* .rela.gnu.linkonce.tb.*)
 *(.rela.ctors)
 *(.rela.dtors)
 *(.rela.got)
 .rela.got      0x0000000000002280       0xc0 /usr/lib/gcc/x86_64-linux-gnu/11/../../../x86_64-linux-gnu/Scrt1.o
 *(.rela.bss .rela.bss.* .rela.gnu.linkonce.b.*)
 .rela.bss      0x0000000000002340       0x18 /usr/lib/gcc/x86_64-linux-gnu/11/../../../x86_64-linux-gnu/Scrt1.o
 *(.rela.ldata .rela.ldata.* .rela.gnu.linkonce.l.*)
 *(.rela.lbss .rela.lbss.* .rela.gnu.linkonce.lb.*)
 *(.rela.lrodata .rela.lrodata.* .rela.gnu.linkonce.lr.*)
 *(.rela.ifunc)
 .rela.ifunc    0x0000000000002358        0x0 /usr/lib/gcc/x86_64-linux-gnu/11/../../../x86_64-linux-gnu/Scrt1.o
 .rela.fini_array
                0x0000000000002358       0x18 /usr/lib/gcc/x86_64-linux-gnu/11/../../../x86_64-linux-gnu/Scrt1.o
 .rela.init_array
                0x0000000000002370       0x18 /usr/lib/gcc/x86_64-linux-gnu/11/../../../x86_64-linux-gnu/Scrt1.o

.rela.plt       0x0000000000002388      0x4c8
 *(.rela.plt)
 .rela.plt      0x0000000000002388      0x4c8 /usr/lib/gcc/x86_64-linux-gnu/11/../../../x86_64-linux-gnu/Scrt1.o
 *(.rela.iplt)
                0x0000000000003000                . = ALIGN (CONSTANT (MAXPAGESIZE))

.init           0x0000000000003000       0x1b
 *(SORT_NONE(.init))
 .init          0x0000000000003000       0x16 /usr/lib/gcc/x86_64-linux-gnu/11/../../../x86_64-linux-gnu/crti.o
                0x0000000000003000                _init
 .init          0x0000000000003016        0x5 /usr/lib/gcc/x86_64-linux-gnu/11/../../../x86_64-linux-gnu/crtn.o

.plt            0x0000000000003020      0x340
 *(.plt)
 .plt           0x0000000000003020      0x340 /usr/lib/gcc/x86_64-linux-gnu/11/../../../x86_64-linux-gnu/Scrt1.o
 *(.iplt)

.plt.got        0x0000000000003360       0x10
 *(.plt.got)
 .plt.got       0x0000000000003360       0x10 /usr/lib/gcc/x86_64-linux-gnu/11/../../../x86_64-linux-gnu/Scrt1.o
                0x0000000000003360                __cxa_finalize@@GLIBC_2.2.5

.plt.sec        0x0000000000003370      0x330
 *(.plt.sec)
 .plt.sec       0x0000000000003370      0x330 /usr/lib/gcc/x86_64-linux-gnu/11/../../../x86_64-linux-gnu/Scrt1.o
                0x0000000000003370                __ctype_toupper_loc@@GLIBC_2.3
                0x0000000000003380                getenv@@GLIBC_2.2.5
                0x0000000000003390                __snprintf_chk@@GLIBC_2.3.4
                0x00000000000033a0                free@@GLIBC_2.2.5
                0x00000000000033b0                putchar@@GLIBC_2.2.5
                0x00000000000033c0                pthread_create@@GLIBC_2.2.5
                0x00000000000033d0                strcasecmp@@GLIBC_2.2.5
                0x00000000000033e0                abort@@GLIBC_2.2.5
                0x00000000000033f0                __errno_location@@GLIBC_2.2.5
                0x0000000000003400                strncmp@@GLIBC_2.2.5
                0x0000000000003410                strcpy@@GLIBC_2.2.5
                0x0000000000003420                puts@@GLIBC_2.2.5
                0x0000000000003430                clock_gettime@@GLIBC_2.17
                0x0000000000003440                strlen@@GLIBC_2.2.5
                0x0000000000003450                pthread_mutexattr_destroy@@GLIBC_2.2.5
                0x0000000000003460                __stack_chk_fail@@GLIBC_2.4
                0x0000000000003470                strchr@@GLIBC_2.2.5
                0x0000000000003480                pthread_mutex_destroy@@GLIBC_2.2.5
                0x0000000000003490                pthread_mutexattr_init@@GLIBC_2.2.5
                0x00000000000034a0                gmtime_r@@GLIBC_2.2.5
                0x00000000000034b0                __assert_fail@@GLIBC_2.2.5
                0x00000000000034c0                fputs@@GLIBC_2.2.5
                0x00000000000034d0                memset@@GLIBC_2.2.5
                0x00000000000034e0                close@@GLIBC_2.2.5
                0x00000000000034f0                memchr@@GLIBC_2.2.5
                0x0000000000003500                read@@GLIBC_2.2.5
                0x0000000000003510                memcmp@@GLIBC_2.2.5
                0x0000000000003520                calloc@@GLIBC_2.2.5
                0x0000000000003530                strcmp@@GLIBC_2.2.5
                0x0000000000003540                __memcpy_chk@@GLIBC_2.3.4
                0x0000000000003550                strtol@@GLIBC_2.2.5
                0x0000000000003560                memcpy@@GLIBC_2.14
                0x0000000000003570                time@@GLIBC_2.2.5
                0x0000000000003580                pthread_mutex_unlock@@GLIBC_2.2.5
                0x0000000000003590                malloc@@GLIBC_2.2.5
                0x00000000000035a0                realloc@@GLIBC_2.2.5
                0x00000000000035b0                __printf_chk@@GLIBC_2.3.4
                0x00000000000035c0                setvbuf@@GLIBC_2.2.5
                0x00000000000035d0                strftime@@GLIBC_2.2.5
                0x00000000000035e0                memmove@@GLIBC_2.2.5
                0x00000000000035f0                open@@GLIBC_2.2.5
                0x0000000000003600                fopen@@GLIBC_2.2.5
                0x0000000000003610                pthread_join@@GLIBC_2.2.5
                0x0000000000003620                __memset_chk@@GLIBC_2.3.4
                0x0000000000003630                exit@@GLIBC_2.2.5
                0x0000000000003640                fwrite@@GLIBC_2.2.5
                0x0000000000003650                __fprintf_chk@@GLIBC_2.3.4
                0x0000000000003660                pthread_mutexattr_setpshared@@GLIBC_2.2.5
                0x0000000000003670                pthread_mutex_init@@GLIBC_2.2.5
                0x0000000000003680                strstr@@GLIBC_2.2.5
                0x0000000000003690                pthread_mutex_lock@@GLIBC_2.2.5

.text           0x00000000000036a0    0x73815
 *(.text.unlikely .text.*_unlikely .text.unlikely.*)
 .text.unlikely.psVerFromEncoding
                0x00000000000036a0        0x6 ../libssl_s.a(hsNegotiateVersion.o)
 .text.unlikely.psVerFromEncodingMajMin
                0x00000000000036a6        0x6 ../libssl_s.a(hsNegotiateVersion.o)
 .text.unlikely.tls13GenSharedSecret
                0x00000000000036ac       0x3a ../libssl_s.a(tls13KeyAgree.o)
 .text.unlikely.getExplicitExtensions
                0x00000000000036e6        0x8 ../../crypto/libcrypt_s.a(x509.o)
 .text.unlikely.getAsnLength32
                0x00000000000036ee        0x6 ../../crypto/libcrypt_s.a(asn1.o)
 .text.unlikely.getAsnSequence32
                0x00000000000036f4        0xb ../../crypto/libcrypt_s.a(asn1.o)
 .text.unlikely.chacha20_encrypt_bytes.part.0
                0x00000000000036ff        0x5 ../../crypto/libcrypt_s.a(chacha20_dolbeau-ssse3.o)
 .text.unlikely.chacha20_encrypt_bytes.part.0
                0x0000000000003704        0x5 ../../crypto/libcrypt_s.a(chacha20_ref.o)
 .text.unlikely.psLockMutex
                0x0000000000003709        0x5 ../../core/libcore_s.a(osdep.o)
 .text.unlikely.psUnlockMutex
                0x000000000000370e        0x5 ../../core/libcore_s.a(osdep.o)
 *(.text.exit .text.exit.*)
 *(.text.startup .text.startup.*)
 *fill*         0x0000000000003713        0xd 
 .text.startup.main
                0x0000000000003720      0x215 sslTest.o
                0x0000000000003720                main
 *(.text.hot .text.hot.*)
 *(SORT_BY_NAME(.text.sorted.*))
 *(.text .stub .text.* .gnu.linkonce.t.*)
 *fill*         0x0000000000003935        0xb 
 .text          0x0000000000003940       0x2f /usr/lib/gcc/x86_64-linux-gnu/11/../../../x86_64-linux-gnu/Scrt1.o
                0x0000000000003940                _start
 *fill*         0x000000000000396f        0x1 
 .text          0x0000000000003970       0xb9 /usr/lib/gcc/x86_64-linux-gnu/11/crtbeginS.o
 *fill*         0x0000000000003a29        0x7 
 .text.clnCertChecker
                0x0000000000003a30        0xf sslTest.o
 *fill*         0x0000000000003a3f        0x1 
 .text.performHandshake
                0x0000000000003a40      0x174 sslTest.o
 *fill*         0x0000000000003bb4        0xc 
 .text.tls13PerformHandshake
                0x0000000000003bc0      0x293 sslTest.o
 *fill*         0x0000000000003e53        0xd 
 .text.initializeServer
                0x0000000000003e60      0x299 sslTest.o
 *fill*         0x00000000000040f9        0x7 
 .text.initializeClient
                0x0000000000004100      0x357 sslTest.o
 *fill*         0x0000000000004457        0x9 
 .text.initializeResumedHandshake
                0x0000000000004460       0xf4 sslTest.o
 *fill*         0x0000000000004554        0xc 
 .text.initializeClientAuthHandshake
                0x0000000000004560      0x1d4 sslTest.o
 *fill*         0x0000000000004734        0xc 
 .text.tls13InitializeServer
                0x0000000000004740      0x376 sslTest.o
 *fill*         0x0000000000004ab6        0xa 
 .text.identityCb
                0x0000000000004ac0       0x4c sslTest.o
 *fill*         0x0000000000004b0c        0x4 
 .text.tls13SendEarlyData
                0x0000000000004b10      0x129 sslTest.o
 *fill*         0x0000000000004c39        0x7 
 .text.tls13InitializeClient
                0x0000000000004c40      0x524 sslTest.o
 *fill*         0x0000000000005164        0xc 
 .text.svrCertChecker
                0x0000000000005170        0xf sslTest.o
 *fill*         0x000000000000517f        0x1 
 .text.exchangeAppData.part.0.constprop.0
                0x0000000000005180      0x489 sslTest.o
 *fill*         0x0000000000005609        0x7 
 .text.exchangeAppData.part.0.constprop.1
                0x0000000000005610      0x489 sslTest.o
 *fill*         0x0000000000005a99        0x7 
 .text.exchangeAppData.part.0.constprop.2
                0x0000000000005aa0      0x489 sslTest.o
 *fill*         0x0000000000005f29        0x7 
 .text.parse_args
                0x0000000000005f30       0xea sslTest.o
                0x0000000000005f30                parse_args
 *fill*         0x000000000000601a        0x6 
 .text.testProtocolVersion
                0x0000000000006020      0x114 sslTest.o
                0x0000000000006020                testProtocolVersion
 *fill*         0x0000000000006134        0xc 
 .text.sslTest  0x0000000000006140      0xc91 sslTest.o
                0x0000000000006140                sslTest
 *fill*         0x0000000000006dd1        0xf 
 .text.tls13sslTest
                0x0000000000006de0      0x713 sslTest.o
                0x0000000000006de0                tls13sslTest
 *fill*         0x00000000000074f3        0xd 
 .text.invokeSslTest
                0x0000000000007500       0x52 sslTest.o
                0x0000000000007500                invokeSslTest
 *fill*         0x0000000000007552        0xe 
 .text.sslTestPt
                0x0000000000007560       0x59 sslTest.o
                0x0000000000007560                sslTestPt
 *fill*         0x00000000000075b9        0x7 
 .text.csNullInit
                0x00000000000075c0        0x7 ../libssl_s.a(cipherSuite.o)
 *fill*         0x00000000000075c7        0x9 
 .text.csNullGenerateMac
                0x00000000000075d0        0x7 ../libssl_s.a(cipherSuite.o)
 *fill*         0x00000000000075d7        0x9 
 .text.csNullEncrypt
                0x00000000000075e0       0x1e ../libssl_s.a(cipherSuite.o)
 *fill*         0x00000000000075fe        0x2 
 .text.csAesEncrypt
                0x0000000000007600       0x26 ../libssl_s.a(cipherSuite.o)
                0x0000000000007600                csAesEncrypt
 *fill*         0x0000000000007626        0xa 
 .text.csAesDecrypt
                0x0000000000007630       0x26 ../libssl_s.a(cipherSuite.o)
                0x0000000000007630                csAesDecrypt
 *fill*         0x0000000000007656        0xa 
 .text.csNullDecrypt
                0x0000000000007660       0x1e ../libssl_s.a(cipherSuite.o)
 *fill*         0x000000000000767e        0x2 
 .text.csShaGenerateMac
                0x0000000000007680      0x159 ../libssl_s.a(cipherSuite.o)
 *fill*         0x00000000000077d9        0x7 
 .text.csShaVerifyMac
                0x00000000000077e0      0x10a ../libssl_s.a(cipherSuite.o)
 *fill*         0x00000000000078ea        0x6 
 .text.csAesGcmInit
                0x00000000000078f0       0xb2 ../libssl_s.a(cipherSuite.o)
                0x00000000000078f0                csAesGcmInit
 *fill*         0x00000000000079a2        0xe 
 .text.csAesGcmDecrypt
                0x00000000000079b0      0x16a ../libssl_s.a(cipherSuite.o)
                0x00000000000079b0                csAesGcmDecrypt
 *fill*         0x0000000000007b1a        0x6 
 .text.csAesGcmEncrypt
                0x0000000000007b20      0x1c9 ../libssl_s.a(cipherSuite.o)
                0x0000000000007b20                csAesGcmEncrypt
 *fill*         0x0000000000007ce9        0x7 
 .text.csAesInit
                0x0000000000007cf0       0xcf ../libssl_s.a(cipherSuite.o)
                0x0000000000007cf0                csAesInit
 *fill*         0x0000000000007dbf        0x1 
 .text.csChacha20Poly1305IetfInit
                0x0000000000007dc0       0x81 ../libssl_s.a(cipherSuite.o)
                0x0000000000007dc0                csChacha20Poly1305IetfInit
 *fill*         0x0000000000007e41        0xf 
 .text.csNullVerifyMac
                0x0000000000007e50        0x7 ../libssl_s.a(cipherSuite.o)
 *fill*         0x0000000000007e57        0x9 
 .text.haveKeyMaterial
                0x0000000000007e60      0x532 ../libssl_s.a(cipherSuite.o)
                0x0000000000007e60                haveKeyMaterial
 *fill*         0x0000000000008392        0xe 
 .text.sslGetCipherSpecListExt.constprop.0
                0x00000000000083a0      0x28c ../libssl_s.a(cipherSuite.o)
 *fill*         0x000000000000862c        0x4 
 .text.csCheckCertAgainstCipherSuite
                0x0000000000008630       0x4d ../libssl_s.a(cipherSuite.o)
                0x0000000000008630                csCheckCertAgainstCipherSuite
 *fill*         0x000000000000867d        0x3 
 .text.sslGetDefinedCipherSpec
                0x0000000000008680       0x5b ../libssl_s.a(cipherSuite.o)
                0x0000000000008680                sslGetDefinedCipherSpec
 *fill*         0x00000000000086db        0x5 
 .text.sslGetCipherSpec
                0x00000000000086e0      0x255 ../libssl_s.a(cipherSuite.o)
                0x00000000000086e0                sslGetCipherSpec
 *fill*         0x0000000000008935        0xb 
 .text.chooseCipherSuite
                0x0000000000008940      0x66e ../libssl_s.a(cipherSuite.o)
                0x0000000000008940                chooseCipherSuite
 *fill*         0x0000000000008fae        0x2 
 .text.eccSuitesSupported
                0x0000000000008fb0      0x2c6 ../libssl_s.a(cipherSuite.o)
                0x0000000000008fb0                eccSuitesSupported
 *fill*         0x0000000000009276        0xa 
 .text.sslGetCipherSpecList
                0x0000000000009280        0xe ../libssl_s.a(cipherSuite.o)
                0x0000000000009280                sslGetCipherSpecList
 *fill*         0x000000000000928e        0x2 
 .text.sslGetCipherSpecListLen
                0x0000000000009290        0xf ../libssl_s.a(cipherSuite.o)
                0x0000000000009290                sslGetCipherSpecListLen
 *fill*         0x000000000000929f        0x1 
 .text.matrixSslSetKexFlags
                0x00000000000092a0       0xd1 ../libssl_s.a(cipherSuite.o)
                0x00000000000092a0                matrixSslSetKexFlags
 *fill*         0x0000000000009371        0xf 
 .text.fragmentHSMessage
                0x0000000000009380      0x2e8 ../libssl_s.a(dtls.o)
 *fill*         0x0000000000009668        0x8 
 .text.dtlsGenCookieSecret
                0x0000000000009670       0x4e ../libssl_s.a(dtls.o)
                0x0000000000009670                dtlsGenCookieSecret
 *fill*         0x00000000000096be        0x2 
 .text.dtlsComputeCookie
                0x00000000000096c0       0xbd ../libssl_s.a(dtls.o)
                0x00000000000096c0                dtlsComputeCookie
 *fill*         0x000000000000977d        0x3 
 .text.matrixDtlsSetPmtu
                0x0000000000009780       0x39 ../libssl_s.a(dtls.o)
                0x0000000000009780                matrixDtlsSetPmtu
 *fill*         0x00000000000097b9        0x7 
 .text.matrixDtlsGetPmtu
                0x00000000000097c0        0xb ../libssl_s.a(dtls.o)
                0x00000000000097c0                matrixDtlsGetPmtu
 *fill*         0x00000000000097cb        0x5 
 .text.dtlsWriteCertificate
                0x00000000000097d0      0x106 ../libssl_s.a(dtls.o)
                0x00000000000097d0                dtlsWriteCertificate
 *fill*         0x00000000000098d6        0xa 
 .text.dtlsWriteCertificateRequest
                0x00000000000098e0      0x167 ../libssl_s.a(dtls.o)
                0x00000000000098e0                dtlsWriteCertificateRequest
 *fill*         0x0000000000009a47        0x9 
 .text.dtlsEncryptFragRecord
                0x0000000000009a50      0x2ad ../libssl_s.a(dtls.o)
                0x0000000000009a50                dtlsEncryptFragRecord
 *fill*         0x0000000000009cfd        0x3 
 .text.dtlsHsHashFragMsg
                0x0000000000009d00      0x146 ../libssl_s.a(dtls.o)
                0x0000000000009d00                dtlsHsHashFragMsg
 *fill*         0x0000000000009e46        0xa 
 .text.dtlsChkReplayWindow
                0x0000000000009e50      0x139 ../libssl_s.a(dtls.o)
                0x0000000000009e50                dtlsChkReplayWindow
 *fill*         0x0000000000009f89        0x7 
 .text.dtlsInitFrag
                0x0000000000009f90       0x53 ../libssl_s.a(dtls.o)
                0x0000000000009f90                dtlsInitFrag
 *fill*         0x0000000000009fe3        0xd 
 .text.dtlsSeenFrag
                0x0000000000009ff0      0x1de ../libssl_s.a(dtls.o)
                0x0000000000009ff0                dtlsSeenFrag
 *fill*         0x000000000000a1ce        0x2 
 .text.dtlsIncrRsn
                0x000000000000a1d0       0xb7 ../libssl_s.a(dtls.o)
                0x000000000000a1d0                dtlsIncrRsn
 *fill*         0x000000000000a287        0x9 
 .text.incrTwoByte
                0x000000000000a290       0x87 ../libssl_s.a(dtls.o)
                0x000000000000a290                incrTwoByte
 *fill*         0x000000000000a317        0x9 
 .text.zeroSixByte
                0x000000000000a320       0x11 ../libssl_s.a(dtls.o)
                0x000000000000a320                zeroSixByte
 *fill*         0x000000000000a331        0xf 
 .text.dtlsCompareEpoch
                0x000000000000a340       0x36 ../libssl_s.a(dtls.o)
                0x000000000000a340                dtlsCompareEpoch
 *fill*         0x000000000000a376        0xa 
 .text.matrixDtlsGetOutdata
                0x000000000000a380      0x5be ../libssl_s.a(dtls.o)
                0x000000000000a380                matrixDtlsGetOutdata
 *fill*         0x000000000000a93e        0x2 
 .text.matrixDtlsSentData
                0x000000000000a940       0x2f ../libssl_s.a(dtls.o)
                0x000000000000a940                matrixDtlsSentData
 *fill*         0x000000000000a96f        0x1 
 .text.tlsGenerateFinishedHash
                0x000000000000a970      0x678 ../libssl_s.a(hsHash.o)
 *fill*         0x000000000000afe8        0x8 
 .text.sslInitHSHash
                0x000000000000aff0       0x78 ../libssl_s.a(hsHash.o)
                0x000000000000aff0                sslInitHSHash
 *fill*         0x000000000000b068        0x8 
 .text.sslUpdateHSHash
                0x000000000000b070       0xcf ../libssl_s.a(hsHash.o)
                0x000000000000b070                sslUpdateHSHash
 *fill*         0x000000000000b13f        0x1 
 .text.sslSha1RetrieveHSHash
                0x000000000000b140       0x1e ../libssl_s.a(hsHash.o)
                0x000000000000b140                sslSha1RetrieveHSHash
 *fill*         0x000000000000b15e        0x2 
 .text.sslSha384RetrieveHSHash
                0x000000000000b160       0x2d ../libssl_s.a(hsHash.o)
                0x000000000000b160                sslSha384RetrieveHSHash
 *fill*         0x000000000000b18d        0x3 
 .text.sslSha512RetrieveHSHash
                0x000000000000b190       0x39 ../libssl_s.a(hsHash.o)
                0x000000000000b190                sslSha512RetrieveHSHash
 *fill*         0x000000000000b1c9        0x7 
 .text.sslSha1SnapshotHSHash
                0x000000000000b1d0       0x10 ../libssl_s.a(hsHash.o)
                0x000000000000b1d0                sslSha1SnapshotHSHash
 .text.sslSha384SnapshotHSHash
                0x000000000000b1e0       0xfd ../libssl_s.a(hsHash.o)
                0x000000000000b1e0                sslSha384SnapshotHSHash
 *fill*         0x000000000000b2dd        0x3 
 .text.sslSha512SnapshotHSHash
                0x000000000000b2e0       0xfd ../libssl_s.a(hsHash.o)
                0x000000000000b2e0                sslSha512SnapshotHSHash
 *fill*         0x000000000000b3dd        0x3 
 .text.extMasterSecretSnapshotHSHash
                0x000000000000b3e0      0x277 ../libssl_s.a(hsHash.o)
                0x000000000000b3e0                extMasterSecretSnapshotHSHash
 *fill*         0x000000000000b657        0x9 
 .text.sslSnapshotHSHash
                0x000000000000b660       0xd5 ../libssl_s.a(hsHash.o)
                0x000000000000b660                sslSnapshotHSHash
 *fill*         0x000000000000b735        0xb 
 .text.psEncodeVersionMin
                0x000000000000b740       0xf6 ../libssl_s.a(hsNegotiateVersion.o)
                0x000000000000b740                psEncodeVersionMin
 *fill*         0x000000000000b836        0xa 
 .text.psEncodeVersionMaj
                0x000000000000b840       0x96 ../libssl_s.a(hsNegotiateVersion.o)
                0x000000000000b840                psEncodeVersionMaj
 *fill*         0x000000000000b8d6        0xa 
 .text.psVerFromEncoding
                0x000000000000b8e0      0x116 ../libssl_s.a(hsNegotiateVersion.o)
                0x000000000000b8e0                psVerFromEncoding
 *fill*         0x000000000000b9f6        0xa 
 .text.psVerFromEncodingMajMin
                0x000000000000ba00      0x116 ../libssl_s.a(hsNegotiateVersion.o)
                0x000000000000ba00                psVerFromEncodingMajMin
 *fill*         0x000000000000bb16        0xa 
 .text.psVerGetHighestTls
                0x000000000000bb20       0x2e ../libssl_s.a(hsNegotiateVersion.o)
                0x000000000000bb20                psVerGetHighestTls
 *fill*         0x000000000000bb4e        0x2 
 .text.checkClientHelloVersion
                0x000000000000bb50       0x94 ../libssl_s.a(hsNegotiateVersion.o)
                0x000000000000bb50                checkClientHelloVersion
 *fill*         0x000000000000bbe4        0xc 
 .text.checkServerHelloVersion
                0x000000000000bbf0       0x38 ../libssl_s.a(hsNegotiateVersion.o)
                0x000000000000bbf0                checkServerHelloVersion
 *fill*         0x000000000000bc28        0x8 
 .text.checkSupportedVersions
                0x000000000000bc30       0xda ../libssl_s.a(hsNegotiateVersion.o)
                0x000000000000bc30                checkSupportedVersions
 *fill*         0x000000000000bd0a        0x6 
 .text.performTls13DowngradeCheck
                0x000000000000bd10       0x69 ../libssl_s.a(hsNegotiateVersion.o)
                0x000000000000bd10                performTls13DowngradeCheck
 *fill*         0x000000000000bd79        0x7 
 .text.matrixSslOpenWithConfig
                0x000000000000bd80      0x1dd ../libssl_s.a(matrixssl.o)
                0x000000000000bd80                matrixSslOpenWithConfig
 *fill*         0x000000000000bf5d        0x3 
 .text.matrixSslClose
                0x000000000000bf60       0x46 ../libssl_s.a(matrixssl.o)
                0x000000000000bf60                matrixSslClose
 *fill*         0x000000000000bfa6        0xa 
 .text.matrixSslGetEarlyDataStatus
                0x000000000000bfb0       0x16 ../libssl_s.a(matrixssl.o)
                0x000000000000bfb0                matrixSslGetEarlyDataStatus
 *fill*         0x000000000000bfc6        0xa 
 .text.matrixSslGetMaxEarlyData
                0x000000000000bfd0       0x46 ../libssl_s.a(matrixssl.o)
                0x000000000000bfd0                matrixSslGetMaxEarlyData
 *fill*         0x000000000000c016        0xa 
 .text.matrixSslHandshakeIsComplete
                0x000000000000c020       0x11 ../libssl_s.a(matrixssl.o)
                0x000000000000c020                matrixSslHandshakeIsComplete
 *fill*         0x000000000000c031        0xf 
 .text.matrixSslSetCertValidator
                0x000000000000c040       0x16 ../libssl_s.a(matrixssl.o)
                0x000000000000c040                matrixSslSetCertValidator
 *fill*         0x000000000000c056        0xa 
 .text.matrixRegisterSession
                0x000000000000c060      0x1a0 ../libssl_s.a(matrixssl.o)
                0x000000000000c060                matrixRegisterSession
 .text.matrixClearSession
                0x000000000000c200      0x156 ../libssl_s.a(matrixssl.o)
                0x000000000000c200                matrixClearSession
 *fill*         0x000000000000c356        0xa 
 .text.matrixResumeSession
                0x000000000000c360      0x255 ../libssl_s.a(matrixssl.o)
                0x000000000000c360                matrixResumeSession
 *fill*         0x000000000000c5b5        0xb 
 .text.matrixUpdateSession
                0x000000000000c5c0      0x16a ../libssl_s.a(matrixssl.o)
                0x000000000000c5c0                matrixUpdateSession
 *fill*         0x000000000000c72a        0x6 
 .text.matrixSslDeleteSession
                0x000000000000c730      0x2e9 ../libssl_s.a(matrixssl.o)
                0x000000000000c730                matrixSslDeleteSession
 *fill*         0x000000000000ca19        0x7 
 .text.matrixSslNewSession
                0x000000000000ca20      0x567 ../libssl_s.a(matrixssl.o)
                0x000000000000ca20                matrixSslNewSession
 *fill*         0x000000000000cf87        0x9 
 .text.matrixSslLoadSessionTicketKeys
                0x000000000000cf90      0x145 ../libssl_s.a(matrixssl.o)
                0x000000000000cf90                matrixSslLoadSessionTicketKeys
 *fill*         0x000000000000d0d5        0xb 
 .text.matrixSessionTicketLen
                0x000000000000d0e0        0xa ../libssl_s.a(matrixssl.o)
                0x000000000000d0e0                matrixSessionTicketLen
 *fill*         0x000000000000d0ea        0x6 
 .text.matrixCreateSessionTicket
                0x000000000000d0f0      0x23d ../libssl_s.a(matrixssl.o)
                0x000000000000d0f0                matrixCreateSessionTicket
 *fill*         0x000000000000d32d        0x3 
 .text.matrixUnlockSessionTicket
                0x000000000000d330      0x38f ../libssl_s.a(matrixssl.o)
                0x000000000000d330                matrixUnlockSessionTicket
 *fill*         0x000000000000d6bf        0x1 
 .text.matrixSslGetSessionId
                0x000000000000d6c0       0xe6 ../libssl_s.a(matrixssl.o)
                0x000000000000d6c0                matrixSslGetSessionId
 *fill*         0x000000000000d7a6        0xa 
 .text.matrixServerGetKeysSNI
                0x000000000000d7b0       0x5c ../libssl_s.a(matrixssl.o)
                0x000000000000d7b0                matrixServerGetKeysSNI
 *fill*         0x000000000000d80c        0x4 
 .text.sslResetContext
                0x000000000000d810      0x13a ../libssl_s.a(matrixssl.o)
                0x000000000000d810                sslResetContext
 *fill*         0x000000000000d94a        0x6 
 .text.matrixValidateCertsExt
                0x000000000000d950      0x836 ../libssl_s.a(matrixssl.o)
                0x000000000000d950                matrixValidateCertsExt
 *fill*         0x000000000000e186        0xa 
 .text.matrixUserCertValidator
                0x000000000000e190       0x2b ../libssl_s.a(matrixssl.o)
                0x000000000000e190                matrixUserCertValidator
 *fill*         0x000000000000e1bb        0x5 
 .text.matrixSslReorderCertChain
                0x000000000000e1c0       0xc1 ../libssl_s.a(matrixsslKeys.o)
                0x000000000000e1c0                matrixSslReorderCertChain
 *fill*         0x000000000000e281        0xf 
 .text.matrixSslCreateIdentity
                0x000000000000e290      0x5b6 ../libssl_s.a(matrixsslKeys.o)
                0x000000000000e290                matrixSslCreateIdentity
 *fill*         0x000000000000e846        0xa 
 .text.matrixSslLoadRsaKeysMem
                0x000000000000e850      0x3ce ../libssl_s.a(matrixsslKeys.o)
                0x000000000000e850                matrixSslLoadRsaKeysMem
 *fill*         0x000000000000ec1e        0x2 
 .text.matrixSslLoadEcKeysMem
                0x000000000000ec20      0x3ce ../libssl_s.a(matrixsslKeys.o)
                0x000000000000ec20                matrixSslLoadEcKeysMem
 *fill*         0x000000000000efee        0x2 
 .text.matrixSslLoadDhParamsMem
                0x000000000000eff0       0x1e ../libssl_s.a(matrixsslKeys.o)
                0x000000000000eff0                matrixSslLoadDhParamsMem
 *fill*         0x000000000000f00e        0x2 
 .text.curveIdToFlag
                0x000000000000f010       0x88 ../libssl_s.a(matrixsslKeys.o)
                0x000000000000f010                curveIdToFlag
 *fill*         0x000000000000f098        0x8 
 .text.psTestUserEcID
                0x000000000000f0a0       0x90 ../libssl_s.a(matrixsslKeys.o)
                0x000000000000f0a0                psTestUserEcID
 .text.psTestUserEc
                0x000000000000f130      0x364 ../libssl_s.a(matrixsslKeys.o)
                0x000000000000f130                psTestUserEc
 *fill*         0x000000000000f494        0xc 
 .text.matrixSslGenEphemeralEcKey
                0x000000000000f4a0      0x190 ../libssl_s.a(matrixsslKeys.o)
                0x000000000000f4a0                matrixSslGenEphemeralEcKey
 .text.matrixSslNewKeys
                0x000000000000f630       0x70 ../libssl_s.a(matrixsslKeys.o)
                0x000000000000f630                matrixSslNewKeys
 .text.matrixSslDeleteKeys
                0x000000000000f6a0      0x139 ../libssl_s.a(matrixsslKeys.o)
                0x000000000000f6a0                matrixSslDeleteKeys
 *fill*         0x000000000000f7d9        0x7 
 .text.revertToDefaultBufsize
                0x000000000000f7e0       0xda ../libssl_s.a(matrixsslApi.o)
 *fill*         0x000000000000f8ba        0x6 
 .text.matrixSslNewClientSession
                0x000000000000f8c0      0x490 ../libssl_s.a(matrixsslApi.o)
                0x000000000000f8c0                matrixSslNewClientSession
 .text.matrixSslRegisterClientIdentityCallback
                0x000000000000fd50        0xc ../libssl_s.a(matrixsslApi.o)
                0x000000000000fd50                matrixSslRegisterClientIdentityCallback
 *fill*         0x000000000000fd5c        0x4 
 .text.matrixSslNewSessionId
                0x000000000000fd60       0x2a ../libssl_s.a(matrixsslApi.o)
                0x000000000000fd60                matrixSslNewSessionId
 *fill*         0x000000000000fd8a        0x6 
 .text.matrixSslClearSessionId
                0x000000000000fd90       0x4e ../libssl_s.a(matrixsslApi.o)
                0x000000000000fd90                matrixSslClearSessionId
 *fill*         0x000000000000fdde        0x2 
 .text.matrixSslDeleteSessionId
                0x000000000000fde0       0x41 ../libssl_s.a(matrixsslApi.o)
                0x000000000000fde0                matrixSslDeleteSessionId
 *fill*         0x000000000000fe21        0xf 
 .text.matrixSslNewServerSession
                0x000000000000fe30      0x138 ../libssl_s.a(matrixsslApi.o)
                0x000000000000fe30                matrixSslNewServerSession
 *fill*         0x000000000000ff68        0x8 
 .text.matrixSslGetReadbuf
                0x000000000000ff70       0x9c ../libssl_s.a(matrixsslApi.o)
                0x000000000000ff70                matrixSslGetReadbuf
 *fill*         0x000000000001000c        0x4 
 .text.matrixSslGetOutdata
                0x0000000000010010       0x88 ../libssl_s.a(matrixsslApi.o)
                0x0000000000010010                matrixSslGetOutdata
 *fill*         0x0000000000010098        0x8 
 .text.matrixSslGetWritebuf
                0x00000000000100a0      0x337 ../libssl_s.a(matrixsslApi.o)
                0x00000000000100a0                matrixSslGetWritebuf
 *fill*         0x00000000000103d7        0x9 
 .text.matrixSslEncodeWritebuf
                0x00000000000103e0      0x1da ../libssl_s.a(matrixsslApi.o)
                0x00000000000103e0                matrixSslEncodeWritebuf
 *fill*         0x00000000000105ba        0x6 
 .text.matrixSslReceivedData
                0x00000000000105c0      0xa4c ../libssl_s.a(matrixsslApi.o)
                0x00000000000105c0                matrixSslReceivedData
 *fill*         0x000000000001100c        0x4 
 .text.matrixSslProcessedData
                0x0000000000011010      0x1da ../libssl_s.a(matrixsslApi.o)
                0x0000000000011010                matrixSslProcessedData
 *fill*         0x00000000000111ea        0x6 
 .text.matrixSslSentData
                0x00000000000111f0      0x130 ../libssl_s.a(matrixsslApi.o)
                0x00000000000111f0                matrixSslSentData
 .text.addVersion
                0x0000000000011320       0xa8 ../libssl_s.a(matrixsslInitVer.o)
                0x0000000000011320                addVersion
 *fill*         0x00000000000113c8        0x8 
 .text.initSupportedVersions
                0x00000000000113d0      0x6e8 ../libssl_s.a(matrixsslInitVer.o)
                0x00000000000113d0                initSupportedVersions
 *fill*         0x0000000000011ab8        0x8 
 .text.prf      0x0000000000011ac0      0xbc5 ../libssl_s.a(prf.o)
                0x0000000000011ac0                prf
 *fill*         0x0000000000012685        0xb 
 .text.prf2     0x0000000000012690      0x50b ../libssl_s.a(prf.o)
                0x0000000000012690                prf2
 *fill*         0x0000000000012b9b        0x5 
 .text.matrixSslLoadPsk
                0x0000000000012ba0      0x230 ../libssl_s.a(psk.o)
                0x0000000000012ba0                matrixSslLoadPsk
 .text.matrixPskGetHint
                0x0000000000012dd0       0x11 ../libssl_s.a(psk.o)
                0x0000000000012dd0                matrixPskGetHint
 *fill*         0x0000000000012de1        0xf 
 .text.matrixSslPskGetKeyId
                0x0000000000012df0       0x2a ../libssl_s.a(psk.o)
                0x0000000000012df0                matrixSslPskGetKeyId
 *fill*         0x0000000000012e1a        0x6 
 .text.matrixSslPskGetKey
                0x0000000000012e20       0xd7 ../libssl_s.a(psk.o)
                0x0000000000012e20                matrixSslPskGetKey
 *fill*         0x0000000000012ef7        0x9 
 .text.matrixSslDecode
                0x0000000000012f00     0x2b07 ../libssl_s.a(sslDecode.o)
                0x0000000000012f00                matrixSslDecode
 *fill*         0x0000000000015a07        0x9 
 .text.addCertFragOverhead
                0x0000000000015a10      0x19b ../libssl_s.a(sslEncode.o)
 *fill*         0x0000000000015bab        0x5 
 .text.nowDoCkePka
                0x0000000000015bb0      0xa31 ../libssl_s.a(sslEncode.o)
 *fill*         0x00000000000165e1        0xf 
 .text.matrixSslGetEncodedSize
                0x00000000000165f0      0x166 ../libssl_s.a(sslEncode.o)
                0x00000000000165f0                matrixSslGetEncodedSize
 *fill*         0x0000000000016756        0xa 
 .text.accountForEcdsaSizeChange
                0x0000000000016760      0x3ec ../libssl_s.a(sslEncode.o)
                0x0000000000016760                accountForEcdsaSizeChange
 *fill*         0x0000000000016b4c        0x4 
 .text.calcCkeSize
                0x0000000000016b50       0xeb ../libssl_s.a(sslEncode.o)
                0x0000000000016b50                calcCkeSize
 *fill*         0x0000000000016c3b        0x5 
 .text.clearFlightList
                0x0000000000016c40       0x43 ../libssl_s.a(sslEncode.o)
                0x0000000000016c40                clearFlightList
 *fill*         0x0000000000016c83        0xd 
 .text.getPkaAfter
                0x0000000000016c90       0x30 ../libssl_s.a(sslEncode.o)
                0x0000000000016c90                getPkaAfter
 .text.freePkaAfter
                0x0000000000016cc0       0x68 ../libssl_s.a(sslEncode.o)
                0x0000000000016cc0                freePkaAfter
 *fill*         0x0000000000016d28        0x8 
 .text.clearPkaAfter
                0x0000000000016d30       0x99 ../libssl_s.a(sslEncode.o)
                0x0000000000016d30                clearPkaAfter
 *fill*         0x0000000000016dc9        0x7 
 .text.writeRecordHeader
                0x0000000000016dd0      0x544 ../libssl_s.a(sslEncode.o)
                0x0000000000016dd0                writeRecordHeader
 *fill*         0x0000000000017314        0xc 
 .text.writeCertificateStatus.part.0
                0x0000000000017320      0x229 ../libssl_s.a(sslEncode.o)
 *fill*         0x0000000000017549        0x7 
 .text.writeChangeCipherSpec
                0x0000000000017550      0x1e9 ../libssl_s.a(sslEncode.o)
 *fill*         0x0000000000017739        0x7 
 .text.writeFinished
                0x0000000000017740      0x279 ../libssl_s.a(sslEncode.o)
 *fill*         0x00000000000179b9        0x7 
 .text.postponeEncryptRecord
                0x00000000000179c0      0x270 ../libssl_s.a(sslEncode.o)
                0x00000000000179c0                postponeEncryptRecord
 .text.writeServerKeyExchange
                0x0000000000017c30      0x400 ../libssl_s.a(sslEncode.o)
 .text.writeServerHello
                0x0000000000018030      0x608 ../libssl_s.a(sslEncode.o)
 *fill*         0x0000000000018638        0x8 
 .text.writeCertificate.part.0
                0x0000000000018640      0x770 ../libssl_s.a(sslEncode.o)
 .text.writeClientKeyExchange
                0x0000000000018db0      0xace ../libssl_s.a(sslEncode.o)
 *fill*         0x000000000001987e        0x2 
 .text.encryptRecord
                0x0000000000019880      0x55f ../libssl_s.a(sslEncode.o)
                0x0000000000019880                encryptRecord
 *fill*         0x0000000000019ddf        0x1 
 .text.matrixSslEncode
                0x0000000000019de0      0x2ff ../libssl_s.a(sslEncode.o)
                0x0000000000019de0                matrixSslEncode
 *fill*         0x000000000001a0df        0x1 
 .text.writeAlert
                0x000000000001a0e0      0x15b ../libssl_s.a(sslEncode.o)
 *fill*         0x000000000001a23b        0x5 
 .text.encryptFlight
                0x000000000001a240      0xb40 ../libssl_s.a(sslEncode.o)
 .text.psGenerateServerRandom
                0x000000000001ad80       0x8a ../libssl_s.a(sslEncode.o)
                0x000000000001ad80                psGenerateServerRandom
 *fill*         0x000000000001ae0a        0x6 
 .text.matrixSslEncodeClientHello
                0x000000000001ae10      0xef2 ../libssl_s.a(sslEncode.o)
                0x000000000001ae10                matrixSslEncodeClientHello
 *fill*         0x000000000001bd02        0xe 
 .text.sslEncodeResponse
                0x000000000001bd10     0x297e ../libssl_s.a(sslEncode.o)
                0x000000000001bd10                sslEncodeResponse
 *fill*         0x000000000001e68e        0x2 
 .text.psWriteRecordInfo
                0x000000000001e690      0x1bf ../libssl_s.a(sslEncode.o)
                0x000000000001e690                psWriteRecordInfo
 *fill*         0x000000000001e84f        0x1 
 .text.psWriteHandshakeHeader
                0x000000000001e850       0xb7 ../libssl_s.a(sslEncode.o)
                0x000000000001e850                psWriteHandshakeHeader
 *fill*         0x000000000001e907        0x9 
 .text.sslWritePad
                0x000000000001e910       0x73 ../libssl_s.a(sslEncode.o)
                0x000000000001e910                sslWritePad
 *fill*         0x000000000001e983        0xd 
 .text.getDefaultSigAlgs
                0x000000000001e990      0x16a ../libssl_s.a(tlsDefaults.o)
                0x000000000001e990                getDefaultSigAlgs
 *fill*         0x000000000001eafa        0x6 
 .text.tls13GetDefaultSigAlgsCert
                0x000000000001eb00       0x7e ../libssl_s.a(tlsDefaults.o)
                0x000000000001eb00                tls13GetDefaultSigAlgsCert
 *fill*         0x000000000001eb7e        0x2 
 .text.tls13GetDefaultGroups
                0x000000000001eb80       0x2d ../libssl_s.a(tlsDefaults.o)
                0x000000000001eb80                tls13GetDefaultGroups
 *fill*         0x000000000001ebad        0x3 
 .text.getDefaultCipherSuites
                0x000000000001ebb0       0x8e ../libssl_s.a(tlsDefaults.o)
                0x000000000001ebb0                getDefaultCipherSuites
 *fill*         0x000000000001ec3e        0x2 
 .text.getDefaultVersions
                0x000000000001ec40       0x38 ../libssl_s.a(tlsDefaults.o)
                0x000000000001ec40                getDefaultVersions
 *fill*         0x000000000001ec78        0x8 
 .text.matrixSslSetClientIdentity
                0x000000000001ec80       0x33 ../libssl_s.a(tlsSelectKeys.o)
                0x000000000001ec80                matrixSslSetClientIdentity
 *fill*         0x000000000001ecb3        0xd 
 .text.matrixSslChooseClientKeys
                0x000000000001ecc0      0x167 ../libssl_s.a(tlsSelectKeys.o)
                0x000000000001ecc0                matrixSslChooseClientKeys
 *fill*         0x000000000001ee27        0x9 
 .text.computeSkeHash
                0x000000000001ee30      0x203 ../libssl_s.a(tlsSigVer.o)
                0x000000000001ee30                computeSkeHash
 *fill*         0x000000000001f033        0xd 
 .text.tlsPrepareSkeSignature
                0x000000000001f040      0x3f2 ../libssl_s.a(tlsSigVer.o)
                0x000000000001f040                tlsPrepareSkeSignature
 *fill*         0x000000000001f432        0xe 
 .text.tlsMakeSkeSignature
                0x000000000001f440      0x26b ../libssl_s.a(tlsSigVer.o)
                0x000000000001f440                tlsMakeSkeSignature
 *fill*         0x000000000001f6ab        0x5 
 .text.tlsVerify
                0x000000000001f6b0      0x551 ../libssl_s.a(tlsSigVer.o)
                0x000000000001f6b0                tlsVerify
 *fill*         0x000000000001fc01        0xf 
 .text.peerSupportsSigAlg
                0x000000000001fc10       0xe3 ../libssl_s.a(tlsSigVer.o)
                0x000000000001fc10                peerSupportsSigAlg
 *fill*         0x000000000001fcf3        0xd 
 .text.canUseSigAlg
                0x000000000001fd00      0x14c ../libssl_s.a(tlsSigVer.o)
                0x000000000001fd00                canUseSigAlg
 *fill*         0x000000000001fe4c        0x4 
 .text.chooseSigAlgInt
                0x000000000001fe50      0x31b ../libssl_s.a(tlsSigVer.o)
                0x000000000001fe50                chooseSigAlgInt
 *fill*         0x000000000002016b        0x5 
 .text.chooseSkeSigAlg
                0x0000000000020170       0x53 ../libssl_s.a(tlsSigVer.o)
                0x0000000000020170                chooseSkeSigAlg
 *fill*         0x00000000000201c3        0xd 
 .text.chooseSigAlg
                0x00000000000201d0      0x316 ../libssl_s.a(tlsSigVer.o)
                0x00000000000201d0                chooseSigAlg
 *fill*         0x00000000000204e6        0xa 
 .text.getSignatureAndHashAlgorithmEncoding
                0x00000000000204f0      0x13e ../libssl_s.a(tlsSigVer.o)
                0x00000000000204f0                getSignatureAndHashAlgorithmEncoding
 *fill*         0x000000000002062e        0x2 
 .text.csAesGcmInitTls13
                0x0000000000020630       0xb2 ../libssl_s.a(tls13CipherSuite.o)
                0x0000000000020630                csAesGcmInitTls13
 *fill*         0x00000000000206e2        0xe 
 .text.csAesGcmEncryptTls13
                0x00000000000206f0      0x19b ../libssl_s.a(tls13CipherSuite.o)
                0x00000000000206f0                csAesGcmEncryptTls13
 *fill*         0x000000000002088b        0x5 
 .text.csAesGcmDecryptTls13
                0x0000000000020890      0x1a4 ../libssl_s.a(tls13CipherSuite.o)
                0x0000000000020890                csAesGcmDecryptTls13
 *fill*         0x0000000000020a34        0xc 
 .text.csChacha20Poly1305IetfEncryptTls13
                0x0000000000020a40      0x1ab ../libssl_s.a(tls13CipherSuite.o)
                0x0000000000020a40                csChacha20Poly1305IetfEncryptTls13
 *fill*         0x0000000000020beb        0x5 
 .text.csChacha20Poly1305IetfDecryptTls13
                0x0000000000020bf0      0x173 ../libssl_s.a(tls13CipherSuite.o)
                0x0000000000020bf0                csChacha20Poly1305IetfDecryptTls13
 *fill*         0x0000000000020d63        0xd 
 .text.tls13GetCipherHmacAlg
                0x0000000000020d70       0x20 ../libssl_s.a(tls13CipherSuite.o)
                0x0000000000020d70                tls13GetCipherHmacAlg
 .text.tls13GetCipherHashSize
                0x0000000000020d90       0x25 ../libssl_s.a(tls13CipherSuite.o)
                0x0000000000020d90                tls13GetCipherHashSize
 *fill*         0x0000000000020db5        0xb 
 .text.tls13CipherIdToHmacAlg
                0x0000000000020dc0       0x39 ../libssl_s.a(tls13CipherSuite.o)
                0x0000000000020dc0                tls13CipherIdToHmacAlg
 *fill*         0x0000000000020df9        0x7 
 .text.isTls13Ciphersuite
                0x0000000000020e00       0x14 ../libssl_s.a(tls13CipherSuite.o)
                0x0000000000020e00                isTls13Ciphersuite
 *fill*         0x0000000000020e14        0xc 
 .text.tls13GetPadLen
                0x0000000000020e20      0x125 ../libssl_s.a(tls13Encode.o)
                0x0000000000020e20                tls13GetPadLen
 *fill*         0x0000000000020f45        0xb 
 .text.tls13WriteRecordHeader
                0x0000000000020f50      0x60d ../libssl_s.a(tls13Encode.o)
 *fill*         0x000000000002155d        0x3 
 .text.makeHsRecord
                0x0000000000021560      0x37e ../libssl_s.a(tls13Encode.o)
 *fill*         0x00000000000218de        0x2 
 .text.tls13WriteServerHello
                0x00000000000218e0      0x2aa ../libssl_s.a(tls13Encode.o)
 *fill*         0x0000000000021b8a        0x6 
 .text.tls13WriteCertificate
                0x0000000000021b90      0x396 ../libssl_s.a(tls13Encode.o)
 *fill*         0x0000000000021f26        0xa 
 .text.tls13WriteCertificateVerify
                0x0000000000021f30      0x2f2 ../libssl_s.a(tls13Encode.o)
 *fill*         0x0000000000022222        0xe 
 .text.tls13WriteFinished
                0x0000000000022230      0x12b ../libssl_s.a(tls13Encode.o)
 *fill*         0x000000000002235b        0x5 
 .text.tls13EstimateNextFlightSize
                0x0000000000022360       0x3e ../libssl_s.a(tls13Encode.o)
                0x0000000000022360                tls13EstimateNextFlightSize
 *fill*         0x000000000002239e        0x2 
 .text.tls13EncryptMessage
                0x00000000000223a0      0x186 ../libssl_s.a(tls13Encode.o)
                0x00000000000223a0                tls13EncryptMessage
 *fill*         0x0000000000022526        0xa 
 .text.tls13EncodeAppData
                0x0000000000022530      0x184 ../libssl_s.a(tls13Encode.o)
                0x0000000000022530                tls13EncodeAppData
 *fill*         0x00000000000226b4        0xc 
 .text.tls13EncodeAlert
                0x00000000000226c0      0x137 ../libssl_s.a(tls13Encode.o)
                0x00000000000226c0                tls13EncodeAlert
 *fill*         0x00000000000227f7        0x9 
 .text.tls13WriteClientHello
                0x0000000000022800      0x4c2 ../libssl_s.a(tls13Encode.o)
                0x0000000000022800                tls13WriteClientHello
 *fill*         0x0000000000022cc2        0xe 
 .text.tls13EncodeResponse
                0x0000000000022cd0      0x9f0 ../libssl_s.a(tls13Encode.o)
                0x0000000000022cd0                tls13EncodeResponse
 .text.tls13WriteCookie
                0x00000000000236c0      0x1a4 ../libssl_s.a(tls13EncodeExt.o)
 *fill*         0x0000000000023864        0xc 
 .text.tls13WritePreSharedKey.constprop.0
                0x0000000000023870      0x46c ../libssl_s.a(tls13EncodeExt.o)
 *fill*         0x0000000000023cdc        0x4 
 .text.tls13WriteSigAlgs
                0x0000000000023ce0      0x152 ../libssl_s.a(tls13EncodeExt.o)
                0x0000000000023ce0                tls13WriteSigAlgs
 *fill*         0x0000000000023e32        0xe 
 .text.tls13WriteCertificateAuthorities
                0x0000000000023e40      0x199 ../libssl_s.a(tls13EncodeExt.o)
                0x0000000000023e40                tls13WriteCertificateAuthorities
 *fill*         0x0000000000023fd9        0x7 
 .text.tls13WriteEarlyData
                0x0000000000023fe0       0x9f ../libssl_s.a(tls13EncodeExt.o)
                0x0000000000023fe0                tls13WriteEarlyData
 *fill*         0x000000000002407f        0x1 
 .text.tls13FillInPskBinders
                0x0000000000024080      0x1b9 ../libssl_s.a(tls13EncodeExt.o)
                0x0000000000024080                tls13FillInPskBinders
 *fill*         0x0000000000024239        0x7 
 .text.tls13WriteServerHelloExtensions
                0x0000000000024240      0x284 ../libssl_s.a(tls13EncodeExt.o)
                0x0000000000024240                tls13WriteServerHelloExtensions
 *fill*         0x00000000000244c4        0xc 
 .text.tls13WriteOCSPStatusRequest
                0x00000000000244d0      0x1cb ../libssl_s.a(tls13EncodeExt.o)
                0x00000000000244d0                tls13WriteOCSPStatusRequest
 *fill*         0x000000000002469b        0x5 
 .text.tls13WriteClientHelloExtensions
                0x00000000000246a0      0x900 ../libssl_s.a(tls13EncodeExt.o)
                0x00000000000246a0                tls13WriteClientHelloExtensions
 .text.tls13ParseAndHandleAlert
                0x0000000000024fa0       0xa5 ../libssl_s.a(tls13Decode.o)
 *fill*         0x0000000000025045        0xb 
 .text.matrixSslDecodeTls13
                0x0000000000025050     0x23c2 ../libssl_s.a(tls13Decode.o)
                0x0000000000025050                matrixSslDecodeTls13
 *fill*         0x0000000000027412        0xe 
 .text.tls13ParseStatusRequest.part.0
                0x0000000000027420      0x17c ../libssl_s.a(tls13DecodeExt.o)
 *fill*         0x000000000002759c        0x4 
 .text.tls13ExtensionAllowedInMessage
                0x00000000000275a0      0x104 ../libssl_s.a(tls13DecodeExt.o)
                0x00000000000275a0                tls13ExtensionAllowedInMessage
 *fill*         0x00000000000276a4        0xc 
 .text.tls13ParseSupportedVersions
                0x00000000000276b0       0xd2 ../libssl_s.a(tls13DecodeExt.o)
                0x00000000000276b0                tls13ParseSupportedVersions
 *fill*         0x0000000000027782        0xe 
 .text.tls13ParsePreSharedKey
                0x0000000000027790      0x7c4 ../libssl_s.a(tls13DecodeExt.o)
                0x0000000000027790                tls13ParsePreSharedKey
 *fill*         0x0000000000027f54        0xc 
 .text.tls13ParsePskKeyExchangeModes
                0x0000000000027f60      0x22a ../libssl_s.a(tls13DecodeExt.o)
                0x0000000000027f60                tls13ParsePskKeyExchangeModes
 *fill*         0x000000000002818a        0x6 
 .text.tls13ParseCookie
                0x0000000000028190      0x1f6 ../libssl_s.a(tls13DecodeExt.o)
                0x0000000000028190                tls13ParseCookie
 *fill*         0x0000000000028386        0xa 
 .text.tls13ParseEarlyData
                0x0000000000028390       0xb5 ../libssl_s.a(tls13DecodeExt.o)
                0x0000000000028390                tls13ParseEarlyData
 *fill*         0x0000000000028445        0xb 
 .text.tls13ParseExtensions
                0x0000000000028450      0x1fe ../libssl_s.a(tls13DecodeExt.o)
                0x0000000000028450                tls13ParseExtensions
 *fill*         0x000000000002864e        0x2 
 .text.tls13ParseSignatureAlgorithms
                0x0000000000028650      0x222 ../libssl_s.a(tls13DecodeExt.o)
                0x0000000000028650                tls13ParseSignatureAlgorithms
 *fill*         0x0000000000028872        0xe 
 .text.tls13ParseCertificateAuthorities
                0x0000000000028880      0x2eb ../libssl_s.a(tls13DecodeExt.o)
                0x0000000000028880                tls13ParseCertificateAuthorities
 *fill*         0x0000000000028b6b        0x5 
 .text.tls13ParseEncryptedExtensions
                0x0000000000028b70      0x2b7 ../libssl_s.a(tls13DecodeExt.o)
                0x0000000000028b70                tls13ParseEncryptedExtensions
 *fill*         0x0000000000028e27        0x9 
 .text.tls13ParseServerHelloExtensions
                0x0000000000028e30      0x4af ../libssl_s.a(tls13DecodeExt.o)
                0x0000000000028e30                tls13ParseServerHelloExtensions
 *fill*         0x00000000000292df        0x1 
 .text.tls13GenerateKeyForGroup
                0x00000000000292e0      0x290 ../libssl_s.a(tls13KeyAgree.o)
 .text.tls13ImportPublicValue
                0x0000000000029570      0x19f ../libssl_s.a(tls13KeyAgree.o)
                0x0000000000029570                tls13ImportPublicValue
 *fill*         0x000000000002970f        0x1 
 .text.tls13ExportPublicValue
                0x0000000000029710      0x149 ../libssl_s.a(tls13KeyAgree.o)
                0x0000000000029710                tls13ExportPublicValue
 *fill*         0x0000000000029859        0x7 
 .text.tls13IntersectionPrioritySelect
                0x0000000000029860       0xf1 ../libssl_s.a(tls13KeyAgree.o)
                0x0000000000029860                tls13IntersectionPrioritySelect
 *fill*         0x0000000000029951        0xf 
 .text.tls13IntersectionPrioritySelectU16
                0x0000000000029960      0x425 ../libssl_s.a(tls13KeyAgree.o)
                0x0000000000029960                tls13IntersectionPrioritySelectU16
 *fill*         0x0000000000029d85        0xb 
 .text.tls13NegotiateGroup
                0x0000000000029d90      0x36f ../libssl_s.a(tls13KeyAgree.o)
                0x0000000000029d90                tls13NegotiateGroup
 *fill*         0x000000000002a0ff        0x1 
 .text.tls13ServerChooseHelloRetryRequestGroup
                0x000000000002a100       0x22 ../libssl_s.a(tls13KeyAgree.o)
                0x000000000002a100                tls13ServerChooseHelloRetryRequestGroup
 *fill*         0x000000000002a122        0xe 
 .text.tls13GenerateEphemeralKeys
                0x000000000002a130       0x8e ../libssl_s.a(tls13KeyAgree.o)
                0x000000000002a130                tls13GenerateEphemeralKeys
 *fill*         0x000000000002a1be        0x2 
 .text.tls13GenSharedSecret
                0x000000000002a1c0      0x388 ../libssl_s.a(tls13KeyAgree.o)
                0x000000000002a1c0                tls13GenSharedSecret
 *fill*         0x000000000002a548        0x8 
 .text.tls13GetGroupKey
                0x000000000002a550       0x3f ../libssl_s.a(tls13KeyAgree.o)
                0x000000000002a550                tls13GetGroupKey
 *fill*         0x000000000002a58f        0x1 
 .text.tls13AddPeerSupportedGroup
                0x000000000002a590       0x46 ../libssl_s.a(tls13KeyAgree.o)
                0x000000000002a590                tls13AddPeerSupportedGroup
 *fill*         0x000000000002a5d6        0xa 
 .text.tls13AddPeerKeyShareGroup
                0x000000000002a5e0       0x46 ../libssl_s.a(tls13KeyAgree.o)
                0x000000000002a5e0                tls13AddPeerKeyShareGroup
 *fill*         0x000000000002a626        0xa 
 .text.tls13WeSupportGroup
                0x000000000002a630       0x33 ../libssl_s.a(tls13KeyAgree.o)
                0x000000000002a630                tls13WeSupportGroup
 *fill*         0x000000000002a663        0xd 
 .text.tls13GenerateEarlySecret
                0x000000000002a670      0x15b ../libssl_s.a(tls13KeySchedule.o)
                0x000000000002a670                tls13GenerateEarlySecret
 *fill*         0x000000000002a7cb        0x5 
 .text.tls13DeriveEarlySecrets
                0x000000000002a7d0      0x211 ../libssl_s.a(tls13KeySchedule.o)
                0x000000000002a7d0                tls13DeriveEarlySecrets
 *fill*         0x000000000002a9e1        0xf 
 .text.tls13DeriveHandshakeTrafficSecrets
                0x000000000002a9f0      0x318 ../libssl_s.a(tls13KeySchedule.o)
                0x000000000002a9f0                tls13DeriveHandshakeTrafficSecrets
 *fill*         0x000000000002ad08        0x8 
 .text.tls13DeriveAppTrafficSecrets
                0x000000000002ad10      0x2e4 ../libssl_s.a(tls13KeySchedule.o)
                0x000000000002ad10                tls13DeriveAppTrafficSecrets
 *fill*         0x000000000002aff4        0xc 
 .text.tls13DeriveResumptionMasterSecret
                0x000000000002b000       0xc3 ../libssl_s.a(tls13KeySchedule.o)
                0x000000000002b000                tls13DeriveResumptionMasterSecret
 *fill*         0x000000000002b0c3        0xd 
 .text.tls13DeriveHandshakeKeys
                0x000000000002b0d0      0x183 ../libssl_s.a(tls13KeySchedule.o)
                0x000000000002b0d0                tls13DeriveHandshakeKeys
 *fill*         0x000000000002b253        0xd 
 .text.tls13DeriveEarlyDataSecret
                0x000000000002b260      0x1ba ../libssl_s.a(tls13KeySchedule.o)
                0x000000000002b260                tls13DeriveEarlyDataSecret
 *fill*         0x000000000002b41a        0x6 
 .text.tls13DeriveEarlyDataKeys
                0x000000000002b420       0xd8 ../libssl_s.a(tls13KeySchedule.o)
                0x000000000002b420                tls13DeriveEarlyDataKeys
 *fill*         0x000000000002b4f8        0x8 
 .text.tls13DeriveAppKeys
                0x000000000002b500      0x183 ../libssl_s.a(tls13KeySchedule.o)
                0x000000000002b500                tls13DeriveAppKeys
 *fill*         0x000000000002b683        0xd 
 .text.tls13DeriveBinderKey
                0x000000000002b690       0x8d ../libssl_s.a(tls13KeySchedule.o)
                0x000000000002b690                tls13DeriveBinderKey
 *fill*         0x000000000002b71d        0x3 
 .text.tls13DeriveFinishedKey
                0x000000000002b720       0xff ../libssl_s.a(tls13KeySchedule.o)
                0x000000000002b720                tls13DeriveFinishedKey
 *fill*         0x000000000002b81f        0x1 
 .text.tls13ActivateEarlyDataWriteKeys
                0x000000000002b820       0xce ../libssl_s.a(tls13KeySchedule.o)
                0x000000000002b820                tls13ActivateEarlyDataWriteKeys
 *fill*         0x000000000002b8ee        0x2 
 .text.tls13ActivateEarlyDataReadKeys
                0x000000000002b8f0       0xce ../libssl_s.a(tls13KeySchedule.o)
                0x000000000002b8f0                tls13ActivateEarlyDataReadKeys
 *fill*         0x000000000002b9be        0x2 
 .text.tls13ActivateHsWriteKeys
                0x000000000002b9c0       0xc6 ../libssl_s.a(tls13KeySchedule.o)
                0x000000000002b9c0                tls13ActivateHsWriteKeys
 *fill*         0x000000000002ba86        0xa 
 .text.tls13ActivateHsReadKeys
                0x000000000002ba90       0xc6 ../libssl_s.a(tls13KeySchedule.o)
                0x000000000002ba90                tls13ActivateHsReadKeys
 *fill*         0x000000000002bb56        0xa 
 .text.tls13ActivateAppWriteKeys
                0x000000000002bb60       0xce ../libssl_s.a(tls13KeySchedule.o)
                0x000000000002bb60                tls13ActivateAppWriteKeys
 *fill*         0x000000000002bc2e        0x2 
 .text.tls13ActivateAppReadKeys
                0x000000000002bc30       0xce ../libssl_s.a(tls13KeySchedule.o)
                0x000000000002bc30                tls13ActivateAppReadKeys
 *fill*         0x000000000002bcfe        0x2 
 .text.tls13TryNegotiateParams
                0x000000000002bd00      0x224 ../libssl_s.a(tls13Negotiate.o)
                0x000000000002bd00                tls13TryNegotiateParams
 *fill*         0x000000000002bf24        0xc 
 .text.tls13NewPsk
                0x000000000002bf30      0x19d ../libssl_s.a(tls13Psk.o)
                0x000000000002bf30                tls13NewPsk
 *fill*         0x000000000002c0cd        0x3 
 .text.matrixSslLoadTls13Psk
                0x000000000002c0d0       0x5d ../libssl_s.a(tls13Psk.o)
                0x000000000002c0d0                matrixSslLoadTls13Psk
 *fill*         0x000000000002c12d        0x3 
 .text.tls13LoadSessionPsks
                0x000000000002c130      0x14a ../libssl_s.a(tls13Psk.o)
                0x000000000002c130                tls13LoadSessionPsks
 *fill*         0x000000000002c27a        0x6 
 .text.tls13AddSessionPsk
                0x000000000002c280       0x90 ../libssl_s.a(tls13Psk.o)
                0x000000000002c280                tls13AddSessionPsk
 .text.tls13FindSessionPsk
                0x000000000002c310       0xe4 ../libssl_s.a(tls13Psk.o)
                0x000000000002c310                tls13FindSessionPsk
 *fill*         0x000000000002c3f4        0xc 
 .text.tls13GetPskHmacAlg
                0x000000000002c400       0x46 ../libssl_s.a(tls13Psk.o)
                0x000000000002c400                tls13GetPskHmacAlg
 *fill*         0x000000000002c446        0xa 
 .text.tls13GetPskHashLen
                0x000000000002c450       0x70 ../libssl_s.a(tls13Psk.o)
                0x000000000002c450                tls13GetPskHashLen
 .text.tls13FreePsk
                0x000000000002c4c0       0x79 ../libssl_s.a(tls13Psk.o)
                0x000000000002c4c0                tls13FreePsk
 *fill*         0x000000000002c539        0x7 
 .text.tls13DeriveResumptionPsk
                0x000000000002c540       0x87 ../libssl_s.a(tls13Resume.o)
                0x000000000002c540                tls13DeriveResumptionPsk
 *fill*         0x000000000002c5c7        0x9 
 .text.tls13StorePsk
                0x000000000002c5d0      0x113 ../libssl_s.a(tls13Resume.o)
                0x000000000002c5d0                tls13StorePsk
 *fill*         0x000000000002c6e3        0xd 
 .text.tls13ExportState
                0x000000000002c6f0      0x1f4 ../libssl_s.a(tls13Resume.o)
                0x000000000002c6f0                tls13ExportState
 *fill*         0x000000000002c8e4        0xc 
 .text.tls13NewTicket
                0x000000000002c8f0      0x3d6 ../libssl_s.a(tls13Resume.o)
                0x000000000002c8f0                tls13NewTicket
 *fill*         0x000000000002ccc6        0xa 
 .text.tls13ValidateSessionParams
                0x000000000002ccd0       0x61 ../libssl_s.a(tls13Resume.o)
                0x000000000002ccd0                tls13ValidateSessionParams
 *fill*         0x000000000002cd31        0xf 
 .text.tls13ImportState
                0x000000000002cd40      0x566 ../libssl_s.a(tls13Resume.o)
                0x000000000002cd40                tls13ImportState
 *fill*         0x000000000002d2a6        0xa 
 .text.tls13DecryptTicket
                0x000000000002d2b0      0x20d ../libssl_s.a(tls13Resume.o)
                0x000000000002d2b0                tls13DecryptTicket
 *fill*         0x000000000002d4bd        0x3 
 .text.tls13ClearHsState
                0x000000000002d4c0        0xf ../libssl_s.a(tls13Resume.o)
                0x000000000002d4c0                tls13ClearHsState
 *fill*         0x000000000002d4cf        0x1 
 .text.tls13ChooseSigAlg
                0x000000000002d4d0      0x23c ../libssl_s.a(tls13SigVer.o)
                0x000000000002d4d0                tls13ChooseSigAlg
 *fill*         0x000000000002d70c        0x4 
 .text.tls13Sign
                0x000000000002d710      0x26e ../libssl_s.a(tls13SigVer.o)
                0x000000000002d710                tls13Sign
 *fill*         0x000000000002d97e        0x2 
 .text.tls13Verify
                0x000000000002d980      0x34b ../libssl_s.a(tls13SigVer.o)
                0x000000000002d980                tls13Verify
 *fill*         0x000000000002dccb        0x5 
 .text.tls13IsRsaSigAlg
                0x000000000002dcd0       0x4f ../libssl_s.a(tls13SigVer.o)
                0x000000000002dcd0                tls13IsRsaSigAlg
 *fill*         0x000000000002dd1f        0x1 
 .text.tls13IsEcdsaSigAlg
                0x000000000002dd20       0x36 ../libssl_s.a(tls13SigVer.o)
                0x000000000002dd20                tls13IsEcdsaSigAlg
 *fill*         0x000000000002dd56        0xa 
 .text.tls13IsInsecureSigAlg
                0x000000000002dd60       0x10 ../libssl_s.a(tls13SigVer.o)
                0x000000000002dd60                tls13IsInsecureSigAlg
 .text.tls13TranscriptHashInit
                0x000000000002dd70       0x5c ../libssl_s.a(tls13TrHash.o)
                0x000000000002dd70                tls13TranscriptHashInit
 *fill*         0x000000000002ddcc        0x4 
 .text.tls13TranscriptHashUpdate
                0x000000000002ddd0       0xcb ../libssl_s.a(tls13TrHash.o)
                0x000000000002ddd0                tls13TranscriptHashUpdate
 *fill*         0x000000000002de9b        0x5 
 .text.tls13TranscriptHashReinit
                0x000000000002dea0      0x2ac ../libssl_s.a(tls13TrHash.o)
                0x000000000002dea0                tls13TranscriptHashReinit
 *fill*         0x000000000002e14c        0x4 
 .text.tls13TranscriptHashSnapshotAlg
                0x000000000002e150      0x18e ../libssl_s.a(tls13TrHash.o)
                0x000000000002e150                tls13TranscriptHashSnapshotAlg
 *fill*         0x000000000002e2de        0x2 
 .text.tls13TranscriptHashSnapshot
                0x000000000002e2e0       0x3a ../libssl_s.a(tls13TrHash.o)
                0x000000000002e2e0                tls13TranscriptHashSnapshot
 *fill*         0x000000000002e31a        0x6 
 .text.genKeyBlock
                0x000000000002e320      0x241 ../libssl_s.a(tls.o)
 *fill*         0x000000000002e561        0xf 
 .text.tlsExtendedDeriveKeys
                0x000000000002e570      0x17c ../libssl_s.a(tls.o)
                0x000000000002e570                tlsExtendedDeriveKeys
 *fill*         0x000000000002e6ec        0x4 
 .text.tlsHMACSha1
                0x000000000002e6f0      0x1f2 ../libssl_s.a(tls.o)
                0x000000000002e6f0                tlsHMACSha1
 *fill*         0x000000000002e8e2        0xe 
 .text.tlsHMACSha2
                0x000000000002e8f0      0x270 ../libssl_s.a(tls.o)
                0x000000000002e8f0                tlsHMACSha2
 .text.sslCreateKeys
                0x000000000002eb60      0x187 ../libssl_s.a(tls.o)
                0x000000000002eb60                sslCreateKeys
 *fill*         0x000000000002ece7        0x9 
 .text.sslActivateReadCipher
                0x000000000002ecf0      0x32d ../libssl_s.a(tls.o)
                0x000000000002ecf0                sslActivateReadCipher
 *fill*         0x000000000002f01d        0x3 
 .text.sslActivateWriteCipher
                0x000000000002f020      0x557 ../libssl_s.a(tls.o)
                0x000000000002f020                sslActivateWriteCipher
 *fill*         0x000000000002f577        0x9 
 .text.psCopyHelloExtension
                0x000000000002f580       0xf2 ../libssl_s.a(tls.o)
                0x000000000002f580                psCopyHelloExtension
 *fill*         0x000000000002f672        0xe 
 .text.psAddUserExtToSession
                0x000000000002f680       0x52 ../libssl_s.a(tls.o)
                0x000000000002f680                psAddUserExtToSession
 *fill*         0x000000000002f6d2        0xe 
 .text.matrixSslDeleteHelloExtension
                0x000000000002f6e0       0x71 ../libssl_s.a(tls.o)
                0x000000000002f6e0                matrixSslDeleteHelloExtension
 *fill*         0x000000000002f751        0xf 
 .text.findFromUint16Array
                0x000000000002f760       0x2e ../libssl_s.a(tls.o)
                0x000000000002f760                findFromUint16Array
 *fill*         0x000000000002f78e        0x2 
 .text.anyTls13VersionSupported
                0x000000000002f790       0x12 ../libssl_s.a(tls.o)
                0x000000000002f790                anyTls13VersionSupported
 *fill*         0x000000000002f7a2        0xe 
 .text.weOnlySupportTls13
                0x000000000002f7b0       0x1b ../libssl_s.a(tls.o)
                0x000000000002f7b0                weOnlySupportTls13
 *fill*         0x000000000002f7cb        0x5 
 .text.parseClientHello
                0x000000000002f7d0      0x8ae ../libssl_s.a(hsDecode.o)
                0x000000000002f7d0                parseClientHello
 *fill*         0x000000000003007e        0x2 
 .text.parseClientKeyExchange
                0x0000000000030080      0xa1b ../libssl_s.a(hsDecode.o)
                0x0000000000030080                parseClientKeyExchange
 *fill*         0x0000000000030a9b        0x5 
 .text.parseCertificateVerify
                0x0000000000030aa0      0x2e5 ../libssl_s.a(hsDecode.o)
                0x0000000000030aa0                parseCertificateVerify
 *fill*         0x0000000000030d85        0xb 
 .text.parseServerHello
                0x0000000000030d90      0x610 ../libssl_s.a(hsDecode.o)
                0x0000000000030d90                parseServerHello
 .text.parseServerKeyExchange
                0x00000000000313a0      0x518 ../libssl_s.a(hsDecode.o)
                0x00000000000313a0                parseServerKeyExchange
 *fill*         0x00000000000318b8        0x8 
 .text.parseCertificateStatus
                0x00000000000318c0      0x1b5 ../libssl_s.a(hsDecode.o)
                0x00000000000318c0                parseCertificateStatus
 *fill*         0x0000000000031a75        0xb 
 .text.parseServerHelloDone
                0x0000000000031a80      0x19b ../libssl_s.a(hsDecode.o)
                0x0000000000031a80                parseServerHelloDone
 *fill*         0x0000000000031c1b        0x5 
 .text.parseCertificateRequest
                0x0000000000031c20      0x2f3 ../libssl_s.a(hsDecode.o)
                0x0000000000031c20                parseCertificateRequest
 *fill*         0x0000000000031f13        0xd 
 .text.parseFinished
                0x0000000000031f20      0x272 ../libssl_s.a(hsDecode.o)
                0x0000000000031f20                parseFinished
 *fill*         0x0000000000032192        0xe 
 .text.parseCertificate
                0x00000000000321a0      0x6f6 ../libssl_s.a(hsDecode.o)
                0x00000000000321a0                parseCertificate
 *fill*         0x0000000000032896        0xa 
 .text.tls13ValidateCertChain
                0x00000000000328a0      0x361 ../libssl_s.a(tls13Authenticate.o)
                0x00000000000328a0                tls13ValidateCertChain
 *fill*         0x0000000000032c01        0xf 
 .text.tlsParseSignatureAlgorithms
                0x0000000000032c10      0x189 ../libssl_s.a(extDecode.o)
                0x0000000000032c10                tlsParseSignatureAlgorithms
 *fill*         0x0000000000032d99        0x7 
 .text.parseClientHelloExtensions
                0x0000000000032da0      0xb3c ../libssl_s.a(extDecode.o)
                0x0000000000032da0                parseClientHelloExtensions
 *fill*         0x00000000000338dc        0x4 
 .text.parseServerHelloExtensions
                0x00000000000338e0      0x54c ../libssl_s.a(extDecode.o)
                0x00000000000338e0                parseServerHelloExtensions
 *fill*         0x0000000000033e2c        0x4 
 .text.psGetOutputBlockLength
                0x0000000000033e30       0x1c ../../crypto/libcrypt_s.a(alg_info.o)
                0x0000000000033e30                psGetOutputBlockLength
 *fill*         0x0000000000033e4c        0x4 
 .text.psSigAlgToHashLen
                0x0000000000033e50       0xf6 ../../crypto/libcrypt_s.a(alg_info.o)
                0x0000000000033e50                psSigAlgToHashLen
 *fill*         0x0000000000033f46        0xa 
 .text.psPssHashAlgToHashLen
                0x0000000000033f50       0x1b ../../crypto/libcrypt_s.a(alg_info.o)
                0x0000000000033f50                psPssHashAlgToHashLen
 *fill*         0x0000000000033f6b        0x5 
 .text.psHashLenToSigAlg
                0x0000000000033f70      0x126 ../../crypto/libcrypt_s.a(alg_info.o)
                0x0000000000033f70                psHashLenToSigAlg
 *fill*         0x0000000000034096        0xa 
 .text.psIsInsecureSigAlg
                0x00000000000340a0       0x51 ../../crypto/libcrypt_s.a(alg_info.o)
                0x00000000000340a0                psIsInsecureSigAlg
 *fill*         0x00000000000340f1        0xf 
 .text.psIsValidHashLenSigAlgCombination
                0x0000000000034100       0x7b ../../crypto/libcrypt_s.a(alg_info.o)
                0x0000000000034100                psIsValidHashLenSigAlgCombination
 *fill*         0x000000000003417b        0x5 
 .text.psIsEcdheGroup
                0x0000000000034180       0x18 ../../crypto/libcrypt_s.a(alg_info.o)
                0x0000000000034180                psIsEcdheGroup
 *fill*         0x0000000000034198        0x8 
 .text.psIsSigAlgSupported
                0x00000000000341a0       0xc8 ../../crypto/libcrypt_s.a(alg_info.o)
                0x00000000000341a0                psIsSigAlgSupported
 *fill*         0x0000000000034268        0x8 
 .text.psIsGroupSupported
                0x0000000000034270       0x2d ../../crypto/libcrypt_s.a(alg_info.o)
                0x0000000000034270                psIsGroupSupported
 *fill*         0x000000000003429d        0x3 
 .text.galois_mul
                0x00000000000342a0       0xe9 ../../crypto/libcrypt_s.a(aes_aesni.o)
 *fill*         0x0000000000034389        0x7 
 .text.galois_counter.part.0
                0x0000000000034390      0x46d ../../crypto/libcrypt_s.a(aes_aesni.o)
 *fill*         0x00000000000347fd        0x3 
 .text.galois_hash.constprop.0
                0x0000000000034800      0x24b ../../crypto/libcrypt_s.a(aes_aesni.o)
 *fill*         0x0000000000034a4b        0x5 
 .text.gcm_final
                0x0000000000034a50      0x297 ../../crypto/libcrypt_s.a(aes_aesni.o)
 *fill*         0x0000000000034ce7        0x9 
 .text.gcm_update.part.0
                0x0000000000034cf0      0x346 ../../crypto/libcrypt_s.a(aes_aesni.o)
 *fill*         0x0000000000035036        0xa 
 .text.psAesInitBlockKey
                0x0000000000035040      0xc77 ../../crypto/libcrypt_s.a(aes_aesni.o)
                0x0000000000035040                psAesInitBlockKey
 *fill*         0x0000000000035cb7        0x9 
 .text.psAesClearCBC
                0x0000000000035cc0       0x15 ../../crypto/libcrypt_s.a(aes_aesni.o)
                0x0000000000035cc0                psAesClearCBC
 *fill*         0x0000000000035cd5        0xb 
 .text.psAesInitCBC
                0x0000000000035ce0      0x12e ../../crypto/libcrypt_s.a(aes_aesni.o)
                0x0000000000035ce0                psAesInitCBC
 *fill*         0x0000000000035e0e        0x2 
 .text.psAesEncryptCBC
                0x0000000000035e10      0x1c4 ../../crypto/libcrypt_s.a(aes_aesni.o)
                0x0000000000035e10                psAesEncryptCBC
 *fill*         0x0000000000035fd4        0xc 
 .text.psAesDecryptCBC
                0x0000000000035fe0      0x219 ../../crypto/libcrypt_s.a(aes_aesni.o)
                0x0000000000035fe0                psAesDecryptCBC
 *fill*         0x00000000000361f9        0x7 
 .text.psAesClearGCM
                0x0000000000036200       0x15 ../../crypto/libcrypt_s.a(aes_aesni.o)
                0x0000000000036200                psAesClearGCM
 *fill*         0x0000000000036215        0xb 
 .text.psAesInitGCM
                0x0000000000036220      0x2bd ../../crypto/libcrypt_s.a(aes_aesni.o)
                0x0000000000036220                psAesInitGCM
 *fill*         0x00000000000364dd        0x3 
 .text.psAesReadyGCM
                0x00000000000364e0       0x67 ../../crypto/libcrypt_s.a(aes_aesni.o)
                0x00000000000364e0                psAesReadyGCM
 *fill*         0x0000000000036547        0x9 
 .text.psAesReadyGCMRandomIV
                0x0000000000036550       0xa0 ../../crypto/libcrypt_s.a(aes_aesni.o)
                0x0000000000036550                psAesReadyGCMRandomIV
 .text.psAesEncryptGCM
                0x00000000000365f0       0xcb ../../crypto/libcrypt_s.a(aes_aesni.o)
                0x00000000000365f0                psAesEncryptGCM
 *fill*         0x00000000000366bb        0x5 
 .text.psAesGetGCMTag
                0x00000000000366c0       0xbe ../../crypto/libcrypt_s.a(aes_aesni.o)
                0x00000000000366c0                psAesGetGCMTag
 *fill*         0x000000000003677e        0x2 
 .text.psAesDecryptGCM
                0x0000000000036780      0x10f ../../crypto/libcrypt_s.a(aes_aesni.o)
                0x0000000000036780                psAesDecryptGCM
 *fill*         0x000000000003688f        0x1 
 .text._sha1_compress
                0x0000000000036890     0x113b ../../crypto/libcrypt_s.a(sha1.o)
 *fill*         0x00000000000379cb        0x5 
 .text.psSha1Init
                0x00000000000379d0       0x25 ../../crypto/libcrypt_s.a(sha1.o)
                0x00000000000379d0                psSha1Init
 *fill*         0x00000000000379f5        0xb 
 .text.psSha1Update
                0x0000000000037a00       0xb1 ../../crypto/libcrypt_s.a(sha1.o)
                0x0000000000037a00                psSha1Update
 *fill*         0x0000000000037ab1        0xf 
 .text.psSha1Final
                0x0000000000037ac0      0x17b ../../crypto/libcrypt_s.a(sha1.o)
                0x0000000000037ac0                psSha1Final
 *fill*         0x0000000000037c3b        0x5 
 .text._sha256_compress
                0x0000000000037c40      0x4f1 ../../crypto/libcrypt_s.a(sha256.o)
 *fill*         0x0000000000038131        0xf 
 .text.psSha256Init
                0x0000000000038140       0x2d ../../crypto/libcrypt_s.a(sha256.o)
                0x0000000000038140                psSha256Init
 *fill*         0x000000000003816d        0x3 
 .text.psSha256Update
                0x0000000000038170       0xd1 ../../crypto/libcrypt_s.a(sha256.o)
                0x0000000000038170                psSha256Update
 *fill*         0x0000000000038241        0xf 
 .text.psSha256Final
                0x0000000000038250      0x1cb ../../crypto/libcrypt_s.a(sha256.o)
                0x0000000000038250                psSha256Final
 *fill*         0x000000000003841b        0x5 
 .text._sha512_compress
                0x0000000000038420      0xb90 ../../crypto/libcrypt_s.a(sha512.o)
 .text.psSha512Init
                0x0000000000038fb0       0x42 ../../crypto/libcrypt_s.a(sha512.o)
                0x0000000000038fb0                psSha512Init
 *fill*         0x0000000000038ff2        0xe 
 .text.psSha512Update
                0x0000000000039000      0x17d ../../crypto/libcrypt_s.a(sha512.o)
                0x0000000000039000                psSha512Update
 *fill*         0x000000000003917d        0x3 
 .text.psSha512Final
                0x0000000000039180      0x3f4 ../../crypto/libcrypt_s.a(sha512.o)
                0x0000000000039180                psSha512Final
 *fill*         0x0000000000039574        0xc 
 .text.psSha512Single
                0x0000000000039580       0xa2 ../../crypto/libcrypt_s.a(sha512.o)
                0x0000000000039580                psSha512Single
 *fill*         0x0000000000039622        0xe 
 .text.psSha384Init
                0x0000000000039630       0x42 ../../crypto/libcrypt_s.a(sha512.o)
                0x0000000000039630                psSha384Init
 *fill*         0x0000000000039672        0xe 
 .text.psSha384Update
                0x0000000000039680        0x9 ../../crypto/libcrypt_s.a(sha512.o)
                0x0000000000039680                psSha384Update
 *fill*         0x0000000000039689        0x7 
 .text.psSha384Final
                0x0000000000039690       0x64 ../../crypto/libcrypt_s.a(sha512.o)
                0x0000000000039690                psSha384Final
 *fill*         0x00000000000396f4        0xc 
 .text.psMd5Sha1Init
                0x0000000000039700       0x44 ../../crypto/libcrypt_s.a(md5sha1.o)
                0x0000000000039700                psMd5Sha1Init
 *fill*         0x0000000000039744        0xc 
 .text.psMd5Sha1Update
                0x0000000000039750       0x29 ../../crypto/libcrypt_s.a(md5sha1.o)
                0x0000000000039750                psMd5Sha1Update
 *fill*         0x0000000000039779        0x7 
 .text.psMd5Sha1Final
                0x0000000000039780       0x28 ../../crypto/libcrypt_s.a(md5sha1.o)
                0x0000000000039780                psMd5Sha1Final
 *fill*         0x00000000000397a8        0x8 
 .text._md5_compress
                0x00000000000397b0      0x7d1 ../../crypto/libcrypt_s.a(md5.o)
 *fill*         0x0000000000039f81        0xf 
 .text.psMd5Init
                0x0000000000039f90       0x21 ../../crypto/libcrypt_s.a(md5.o)
                0x0000000000039f90                psMd5Init
 *fill*         0x0000000000039fb1        0xf 
 .text.psMd5Update
                0x0000000000039fc0       0xb1 ../../crypto/libcrypt_s.a(md5.o)
                0x0000000000039fc0                psMd5Update
 *fill*         0x000000000003a071        0xf 
 .text.psMd5Final
                0x000000000003a080      0x13a ../../crypto/libcrypt_s.a(md5.o)
                0x000000000003a080                psMd5Final
 *fill*         0x000000000003a1ba        0x6 
 .text.psHmacInit
                0x000000000003a1c0      0xfbd ../../crypto/libcrypt_s.a(hmac.o)
                0x000000000003a1c0                psHmacInit
 *fill*         0x000000000003b17d        0x3 
 .text.psHmacUpdate
                0x000000000003b180       0x5a ../../crypto/libcrypt_s.a(hmac.o)
                0x000000000003b180                psHmacUpdate
 *fill*         0x000000000003b1da        0x6 
 .text.psHmacSingle
                0x000000000003b1e0     0x12ad ../../crypto/libcrypt_s.a(hmac.o)
                0x000000000003b1e0                psHmacSingle
 *fill*         0x000000000003c48d        0x3 
 .text.psHmacFinal
                0x000000000003c490      0x29d ../../crypto/libcrypt_s.a(hmac.o)
                0x000000000003c490                psHmacFinal
 *fill*         0x000000000003c72d        0x3 
 .text.psHmacMd5
                0x000000000003c730      0x4fb ../../crypto/libcrypt_s.a(hmac.o)
                0x000000000003c730                psHmacMd5
 *fill*         0x000000000003cc2b        0x5 
 .text.psHmacMd5Init
                0x000000000003cc30      0x422 ../../crypto/libcrypt_s.a(hmac.o)
                0x000000000003cc30                psHmacMd5Init
 *fill*         0x000000000003d052        0xe 
 .text.psHmacMd5Update
                0x000000000003d060        0xd ../../crypto/libcrypt_s.a(hmac.o)
                0x000000000003d060                psHmacMd5Update
 *fill*         0x000000000003d06d        0x3 
 .text.psHmacMd5Final
                0x000000000003d070       0xa4 ../../crypto/libcrypt_s.a(hmac.o)
                0x000000000003d070                psHmacMd5Final
 *fill*         0x000000000003d114        0xc 
 .text.psHmacSha1
                0x000000000003d120      0x4fb ../../crypto/libcrypt_s.a(hmac.o)
                0x000000000003d120                psHmacSha1
 *fill*         0x000000000003d61b        0x5 
 .text.psHmacSha1Init
                0x000000000003d620      0x422 ../../crypto/libcrypt_s.a(hmac.o)
                0x000000000003d620                psHmacSha1Init
 *fill*         0x000000000003da42        0xe 
 .text.psHmacSha1Update
                0x000000000003da50        0xd ../../crypto/libcrypt_s.a(hmac.o)
                0x000000000003da50                psHmacSha1Update
 *fill*         0x000000000003da5d        0x3 
 .text.psHmacSha1Final
                0x000000000003da60       0xa4 ../../crypto/libcrypt_s.a(hmac.o)
                0x000000000003da60                psHmacSha1Final
 *fill*         0x000000000003db04        0xc 
 .text.psHmacSha256
                0x000000000003db10      0x58f ../../crypto/libcrypt_s.a(hmac.o)
                0x000000000003db10                psHmacSha256
 *fill*         0x000000000003e09f        0x1 
 .text.psHmacSha256Init
                0x000000000003e0a0      0x422 ../../crypto/libcrypt_s.a(hmac.o)
                0x000000000003e0a0                psHmacSha256Init
 *fill*         0x000000000003e4c2        0xe 
 .text.psHmacSha256Update
                0x000000000003e4d0        0xd ../../crypto/libcrypt_s.a(hmac.o)
                0x000000000003e4d0                psHmacSha256Update
 *fill*         0x000000000003e4dd        0x3 
 .text.psHmacSha256Final
                0x000000000003e4e0       0xa4 ../../crypto/libcrypt_s.a(hmac.o)
                0x000000000003e4e0                psHmacSha256Final
 *fill*         0x000000000003e584        0xc 
 .text.psHmacSha384
                0x000000000003e590      0x627 ../../crypto/libcrypt_s.a(hmac.o)
                0x000000000003e590                psHmacSha384
 *fill*         0x000000000003ebb7        0x9 
 .text.psHmac   0x000000000003ebc0      0x106 ../../crypto/libcrypt_s.a(hmac.o)
                0x000000000003ebc0                psHmac
 *fill*         0x000000000003ecc6        0xa 
 .text.psHmacSha384Init
                0x000000000003ecd0      0x4c5 ../../crypto/libcrypt_s.a(hmac.o)
                0x000000000003ecd0                psHmacSha384Init
 *fill*         0x000000000003f195        0xb 
 .text.psHmacSha384Update
                0x000000000003f1a0        0xd ../../crypto/libcrypt_s.a(hmac.o)
                0x000000000003f1a0                psHmacSha384Update
 *fill*         0x000000000003f1ad        0x3 
 .text.psHmacSha384Final
                0x000000000003f1b0       0xbc ../../crypto/libcrypt_s.a(hmac.o)
                0x000000000003f1b0                psHmacSha384Final
 *fill*         0x000000000003f26c        0x4 
 .text.psHkdfExpand
                0x000000000003f270      0x2b0 ../../crypto/libcrypt_s.a(hkdf.o)
                0x000000000003f270                psHkdfExpand
 .text.psHkdfExtract
                0x000000000003f520       0x46 ../../crypto/libcrypt_s.a(hkdf.o)
                0x000000000003f520                psHkdfExtract
 *fill*         0x000000000003f566        0xa 
 .text.psHkdfExpandLabel
                0x000000000003f570      0x27c ../../crypto/libcrypt_s.a(hkdf.o)
                0x000000000003f570                psHkdfExpandLabel
 *fill*         0x000000000003f7ec        0x4 
 .text.psPemCheckOk
                0x000000000003f7f0      0x220 ../../crypto/libcrypt_s.a(pem_decode_mem.o)
                0x000000000003f7f0                psPemCheckOk
 .text.psPemDecode
                0x000000000003fa10      0x35b ../../crypto/libcrypt_s.a(pem_decode_mem.o)
                0x000000000003fa10                psPemDecode
 *fill*         0x000000000003fd6b        0x5 
 .text.psPemTryDecode
                0x000000000003fd70       0x7c ../../crypto/libcrypt_s.a(pem_decode_mem.o)
                0x000000000003fd70                psPemTryDecode
 *fill*         0x000000000003fdec        0x4 
 .text.psPemCertBufToList
                0x000000000003fdf0      0x2b6 ../../crypto/libcrypt_s.a(pem_decode_mem.o)
                0x000000000003fdf0                psPemCertBufToList
 *fill*         0x00000000000400a6        0xa 
 .text.pkcs_1_mgf1.constprop.0
                0x00000000000400b0      0x3e4 ../../crypto/libcrypt_s.a(pkcs.o)
 *fill*         0x0000000000040494        0xc 
 .text.pkcs1Pad
                0x00000000000404a0       0xb4 ../../crypto/libcrypt_s.a(pkcs.o)
                0x00000000000404a0                pkcs1Pad
 *fill*         0x0000000000040554        0xc 
 .text.pkcs1UnpadExt
                0x0000000000040560      0x20e ../../crypto/libcrypt_s.a(pkcs.o)
                0x0000000000040560                pkcs1UnpadExt
 *fill*         0x000000000004076e        0x2 
 .text.pkcs1Unpad
                0x0000000000040770      0x1dc ../../crypto/libcrypt_s.a(pkcs.o)
                0x0000000000040770                pkcs1Unpad
 *fill*         0x000000000004094c        0x4 
 .text.psPkcs5Pbkdf1
                0x0000000000040950      0x182 ../../crypto/libcrypt_s.a(pkcs.o)
                0x0000000000040950                psPkcs5Pbkdf1
 *fill*         0x0000000000040ad2        0xe 
 .text.psPkcs5Pbkdf2
                0x0000000000040ae0      0x2aa ../../crypto/libcrypt_s.a(pkcs.o)
                0x0000000000040ae0                psPkcs5Pbkdf2
 *fill*         0x0000000000040d8a        0x6 
 .text.psPkcs1PssEncode
                0x0000000000040d90      0x5eb ../../crypto/libcrypt_s.a(pkcs.o)
                0x0000000000040d90                psPkcs1PssEncode
 *fill*         0x000000000004137b        0x5 
 .text.psPkcs1PssDecode
                0x0000000000041380      0x6b6 ../../crypto/libcrypt_s.a(pkcs.o)
                0x0000000000041380                psPkcs1PssDecode
 *fill*         0x0000000000041a36        0xa 
 .text.getRsaPssParams
                0x0000000000041a40      0x359 ../../crypto/libcrypt_s.a(x509.o)
 *fill*         0x0000000000041d99        0x7 
 .text.getImplicitBitString.constprop.0
                0x0000000000041da0      0x16b ../../crypto/libcrypt_s.a(x509.o)
 *fill*         0x0000000000041f0b        0x5 
 .text.parseGeneralNames.constprop.0
                0x0000000000041f10      0x600 ../../crypto/libcrypt_s.a(x509.o)
 .text.parsePolicyQualifierInfo.constprop.0
                0x0000000000042510      0x471 ../../crypto/libcrypt_s.a(x509.o)
 *fill*         0x0000000000042981        0xf 
 .text.parsePolicyInformation.isra.0
                0x0000000000042990      0x2bd ../../crypto/libcrypt_s.a(x509.o)
 *fill*         0x0000000000042c4d        0x3 
 .text.psX509GetSignature
                0x0000000000042c50      0x186 ../../crypto/libcrypt_s.a(x509.o)
                0x0000000000042c50                psX509GetSignature
 *fill*         0x0000000000042dd6        0xa 
 .text.psX509ValidateGeneralName
                0x0000000000042de0      0x147 ../../crypto/libcrypt_s.a(x509.o)
                0x0000000000042de0                psX509ValidateGeneralName
 *fill*         0x0000000000042f27        0x9 
 .text.getSerialNum
                0x0000000000042f30      0x126 ../../crypto/libcrypt_s.a(x509.o)
                0x0000000000042f30                getSerialNum
 *fill*         0x0000000000043056        0xa 
 .text.validateDateRange
                0x0000000000043060      0x22d ../../crypto/libcrypt_s.a(x509.o)
                0x0000000000043060                validateDateRange
 *fill*         0x000000000004328d        0x3 
 .text.psX509GetDNAttributes
                0x0000000000043290      0x82a ../../crypto/libcrypt_s.a(x509.o)
                0x0000000000043290                psX509GetDNAttributes
 *fill*         0x0000000000043aba        0x6 
 .text.getExplicitExtensions
                0x0000000000043ac0     0x1d69 ../../crypto/libcrypt_s.a(x509.o)
                0x0000000000043ac0                getExplicitExtensions
 *fill*         0x0000000000045829        0x7 
 .text.parse_single_cert
                0x0000000000045830     0x100f ../../crypto/libcrypt_s.a(x509.o)
 *fill*         0x000000000004683f        0x1 
 .text.psX509ParseCert
                0x0000000000046840      0x2da ../../crypto/libcrypt_s.a(x509.o)
                0x0000000000046840                psX509ParseCert
 *fill*         0x0000000000046b1a        0x6 
 .text.psX509FreeDNStruct
                0x0000000000046b20       0xb1 ../../crypto/libcrypt_s.a(x509.o)
                0x0000000000046b20                psX509FreeDNStruct
 *fill*         0x0000000000046bd1        0xf 
 .text.x509FreeExtensions.part.0
                0x0000000000046be0      0x2ac ../../crypto/libcrypt_s.a(x509.o)
 *fill*         0x0000000000046e8c        0x4 
 .text.x509FreeExtensions
                0x0000000000046e90       0x2a ../../crypto/libcrypt_s.a(x509.o)
                0x0000000000046e90                x509FreeExtensions
 *fill*         0x0000000000046eba        0x6 
 .text.psX509FreeCert
                0x0000000000046ec0      0x1a1 ../../crypto/libcrypt_s.a(x509.o)
                0x0000000000046ec0                psX509FreeCert
 *fill*         0x0000000000047061        0xf 
 .text.psX509ParseCertData
                0x0000000000047070      0x1b8 ../../crypto/libcrypt_s.a(x509.o)
                0x0000000000047070                psX509ParseCertData
 *fill*         0x0000000000047228        0x8 
 .text.ocspParseBasicResponse.constprop.0
                0x0000000000047230      0xe77 ../../crypto/libcrypt_s.a(x509.o)
 *fill*         0x00000000000480a7        0x9 
 .text.psX509AuthenticateCert
                0x00000000000480b0      0x49e ../../crypto/libcrypt_s.a(x509.o)
                0x00000000000480b0                psX509AuthenticateCert
 *fill*         0x000000000004854e        0x2 
 .text.psOcspParseResponse
                0x0000000000048550      0x268 ../../crypto/libcrypt_s.a(x509.o)
                0x0000000000048550                psOcspParseResponse
 *fill*         0x00000000000487b8        0x8 
 .text.psOcspResponseCheckDates
                0x00000000000487c0      0x2b0 ../../crypto/libcrypt_s.a(x509.o)
                0x00000000000487c0                psOcspResponseCheckDates
 .text.psOcspResponseValidate
                0x0000000000048a70      0x91c ../../crypto/libcrypt_s.a(x509.o)
                0x0000000000048a70                psOcspResponseValidate
 *fill*         0x000000000004938c        0x4 
 .text.psOcspResponseValidateOld
                0x0000000000049390        0xc ../../crypto/libcrypt_s.a(x509.o)
                0x0000000000049390                psOcspResponseValidateOld
 *fill*         0x000000000004939c        0x4 
 .text.psCryptoOpen
                0x00000000000493a0      0x13d ../../crypto/libcrypt_s.a(matrix.o)
                0x00000000000493a0                psCryptoOpen
 *fill*         0x00000000000494dd        0x3 
 .text.psCryptoClose
                0x00000000000494e0       0x2e ../../crypto/libcrypt_s.a(matrix.o)
                0x00000000000494e0                psCryptoClose
 *fill*         0x000000000004950e        0x2 
 .text.s_pstm_add
                0x0000000000049510      0x294 ../../crypto/libcrypt_s.a(pstm.o)
 *fill*         0x00000000000497a4        0xc 
 .text.pstm_init_size
                0x00000000000497b0       0x83 ../../crypto/libcrypt_s.a(pstm.o)
                0x00000000000497b0                pstm_init_size
 *fill*         0x0000000000049833        0xd 
 .text.pstm_init
                0x0000000000049840       0x46 ../../crypto/libcrypt_s.a(pstm.o)
                0x0000000000049840                pstm_init
 *fill*         0x0000000000049886        0xa 
 .text.pstm_grow
                0x0000000000049890       0x70 ../../crypto/libcrypt_s.a(pstm.o)
                0x0000000000049890                pstm_grow
 .text.pstm_copy
                0x0000000000049900      0x168 ../../crypto/libcrypt_s.a(pstm.o)
                0x0000000000049900                pstm_copy
 *fill*         0x0000000000049a68        0x8 
 .text.pstm_clamp
                0x0000000000049a70       0x45 ../../crypto/libcrypt_s.a(pstm.o)
                0x0000000000049a70                pstm_clamp
 *fill*         0x0000000000049ab5        0xb 
 .text.pstm_clear
                0x0000000000049ac0       0x31 ../../crypto/libcrypt_s.a(pstm.o)
                0x0000000000049ac0                pstm_clear
 *fill*         0x0000000000049af1        0xf 
 .text.pstm_clear_multi
                0x0000000000049b00      0x199 ../../crypto/libcrypt_s.a(pstm.o)
                0x0000000000049b00                pstm_clear_multi
 *fill*         0x0000000000049c99        0x7 
 .text.pstm_cmp_mag
                0x0000000000049ca0       0x73 ../../crypto/libcrypt_s.a(pstm.o)
                0x0000000000049ca0                pstm_cmp_mag
 *fill*         0x0000000000049d13        0xd 
 .text.pstm_cmp
                0x0000000000049d20      0x103 ../../crypto/libcrypt_s.a(pstm.o)
                0x0000000000049d20                pstm_cmp
 *fill*         0x0000000000049e23        0xd 
 .text.pstm_cmp_d
                0x0000000000049e30       0x3d ../../crypto/libcrypt_s.a(pstm.o)
                0x0000000000049e30                pstm_cmp_d
 *fill*         0x0000000000049e6d        0x3 
 .text.pstm_init_for_read_unsigned_bin
                0x0000000000049e70       0x7f ../../crypto/libcrypt_s.a(pstm.o)
                0x0000000000049e70                pstm_init_for_read_unsigned_bin
 *fill*         0x0000000000049eef        0x1 
 .text.pstm_count_bits
                0x0000000000049ef0       0x45 ../../crypto/libcrypt_s.a(pstm.o)
                0x0000000000049ef0                pstm_count_bits
 *fill*         0x0000000000049f35        0xb 
 .text.pstm_unsigned_bin_size
                0x0000000000049f40       0x41 ../../crypto/libcrypt_s.a(pstm.o)
                0x0000000000049f40                pstm_unsigned_bin_size
 *fill*         0x0000000000049f81        0xf 
 .text.pstm_set
                0x0000000000049f90       0x47 ../../crypto/libcrypt_s.a(pstm.o)
                0x0000000000049f90                pstm_set
 *fill*         0x0000000000049fd7        0x9 
 .text.pstm_rshd
                0x0000000000049fe0      0x101 ../../crypto/libcrypt_s.a(pstm.o)
                0x0000000000049fe0                pstm_rshd
 *fill*         0x000000000004a0e1        0xf 
 .text.pstm_div_2d.part.0
                0x000000000004a0f0      0x25c ../../crypto/libcrypt_s.a(pstm.o)
 *fill*         0x000000000004a34c        0x4 
 .text.pstm_lshd
                0x000000000004a350      0x1a8 ../../crypto/libcrypt_s.a(pstm.o)
                0x000000000004a350                pstm_lshd
 *fill*         0x000000000004a4f8        0x8 
 .text.pstm_mul_2d
                0x000000000004a500      0x1a3 ../../crypto/libcrypt_s.a(pstm.o)
 *fill*         0x000000000004a6a3        0xd 
 .text.pstm_read_unsigned_bin
                0x000000000004a6b0      0x299 ../../crypto/libcrypt_s.a(pstm.o)
                0x000000000004a6b0                pstm_read_unsigned_bin
 *fill*         0x000000000004a949        0x7 
 .text.pstm_read_asn
                0x000000000004a950      0x14f ../../crypto/libcrypt_s.a(pstm.o)
                0x000000000004a950                pstm_read_asn
 *fill*         0x000000000004aa9f        0x1 
 .text.pstm_mul_2
                0x000000000004aaa0      0x15e ../../crypto/libcrypt_s.a(pstm.o)
                0x000000000004aaa0                pstm_mul_2
 *fill*         0x000000000004abfe        0x2 
 .text.pstm_sub_s
                0x000000000004ac00      0x260 ../../crypto/libcrypt_s.a(pstm.o)
                0x000000000004ac00                pstm_sub_s
 .text.pstm_sub
                0x000000000004ae60       0xac ../../crypto/libcrypt_s.a(pstm.o)
                0x000000000004ae60                pstm_sub
 *fill*         0x000000000004af0c        0x4 
 .text.pstm_montgomery_setup
                0x000000000004af10       0x76 ../../crypto/libcrypt_s.a(pstm.o)
                0x000000000004af10                pstm_montgomery_setup
 *fill*         0x000000000004af86        0xa 
 .text.pstm_montgomery_calc_normalization
                0x000000000004af90      0x246 ../../crypto/libcrypt_s.a(pstm.o)
                0x000000000004af90                pstm_montgomery_calc_normalization
 *fill*         0x000000000004b1d6        0xa 
 .text.pstm_mul_d
                0x000000000004b1e0      0x1c2 ../../crypto/libcrypt_s.a(pstm.o)
                0x000000000004b1e0                pstm_mul_d
 *fill*         0x000000000004b3a2        0xe 
 .text.pstm_read_radix
                0x000000000004b3b0      0x241 ../../crypto/libcrypt_s.a(pstm.o)
                0x000000000004b3b0                pstm_read_radix
 *fill*         0x000000000004b5f1        0xf 
 .text.pstm_div_2
                0x000000000004b600      0x167 ../../crypto/libcrypt_s.a(pstm.o)
                0x000000000004b600                pstm_div_2
 *fill*         0x000000000004b767        0x9 
 .text.pstm_init_copy
                0x000000000004b770       0xd1 ../../crypto/libcrypt_s.a(pstm.o)
                0x000000000004b770                pstm_init_copy
 *fill*         0x000000000004b841        0xf 
 .text.pstm_add
                0x000000000004b850       0xbc ../../crypto/libcrypt_s.a(pstm.o)
                0x000000000004b850                pstm_add
 *fill*         0x000000000004b90c        0x4 
 .text.pstm_add_d
                0x000000000004b910       0xb0 ../../crypto/libcrypt_s.a(pstm.o)
                0x000000000004b910                pstm_add_d
 .text.pstm_div
                0x000000000004b9c0      0x674 ../../crypto/libcrypt_s.a(pstm.o)
                0x000000000004b9c0                pstm_div
 *fill*         0x000000000004c034        0xc 
 .text.pstm_mod
                0x000000000004c040      0x140 ../../crypto/libcrypt_s.a(pstm.o)
                0x000000000004c040                pstm_mod
 .text.pstm_mulmod
                0x000000000004c180      0x136 ../../crypto/libcrypt_s.a(pstm.o)
                0x000000000004c180                pstm_mulmod
 *fill*         0x000000000004c2b6        0xa 
 .text.pstm_exptmod
                0x000000000004c2c0      0x42f ../../crypto/libcrypt_s.a(pstm.o)
                0x000000000004c2c0                pstm_exptmod
 *fill*         0x000000000004c6ef        0x1 
 .text.pstm_to_unsigned_bin
                0x000000000004c6f0      0x169 ../../crypto/libcrypt_s.a(pstm.o)
                0x000000000004c6f0                pstm_to_unsigned_bin
 *fill*         0x000000000004c859        0x7 
 .text.pstm_invmod
                0x000000000004c860     0x108f ../../crypto/libcrypt_s.a(pstm.o)
                0x000000000004c860                pstm_invmod
 *fill*         0x000000000004d8ef        0x1 
 .text.pstmnt_neg_small_inv
                0x000000000004d8f0       0x8f ../../crypto/libcrypt_s.a(pstmnt.o)
                0x000000000004d8f0                pstmnt_neg_small_inv
 *fill*         0x000000000004d97f        0x1 
 .text.pstmnt_add
                0x000000000004d980       0xdd ../../crypto/libcrypt_s.a(pstmnt.o)
                0x000000000004d980                pstmnt_add
 *fill*         0x000000000004da5d        0x3 
 .text.pstmnt_montgomery_reduce_d
                0x000000000004da60      0x221 ../../crypto/libcrypt_s.a(pstmnt.o)
                0x000000000004da60                pstmnt_montgomery_reduce_d
 *fill*         0x000000000004dc81        0xf 
 .text.pstmnt_cmp_sub_mod_carry
                0x000000000004dc90      0x11a ../../crypto/libcrypt_s.a(pstmnt.o)
                0x000000000004dc90                pstmnt_cmp_sub_mod_carry
 *fill*         0x000000000004ddaa        0x6 
 .text.pstmnt_sub
                0x000000000004ddb0       0xd7 ../../crypto/libcrypt_s.a(pstmnt.o)
                0x000000000004ddb0                pstmnt_sub
 *fill*         0x000000000004de87        0x9 
 .text.pstmnt_square_d
                0x000000000004de90      0x37e ../../crypto/libcrypt_s.a(pstmnt.o)
                0x000000000004de90                pstmnt_square_d
 *fill*         0x000000000004e20e        0x2 
 .text.pstmnt_square.part.0
                0x000000000004e210       0x7f ../../crypto/libcrypt_s.a(pstmnt.o)
 *fill*         0x000000000004e28f        0x1 
 .text.pstmnt_mult_d
                0x000000000004e290      0x19e ../../crypto/libcrypt_s.a(pstmnt.o)
                0x000000000004e290                pstmnt_mult_d
 *fill*         0x000000000004e42e        0x2 
 .text.pstmnt_mult
                0x000000000004e430      0x3f5 ../../crypto/libcrypt_s.a(pstmnt.o)
                0x000000000004e430                pstmnt_mult
 *fill*         0x000000000004e825        0xb 
 .text.pstmnt_square
                0x000000000004e830      0x147 ../../crypto/libcrypt_s.a(pstmnt.o)
                0x000000000004e830                pstmnt_square
 *fill*         0x000000000004e977        0x9 
 .text.pstmnt_montgomery_reduce
                0x000000000004e980      0x2b7 ../../crypto/libcrypt_s.a(pstmnt.o)
                0x000000000004e980                pstmnt_montgomery_reduce
 *fill*         0x000000000004ec37        0x9 
 .text.pstmnt_montgomery_input
                0x000000000004ec40      0x372 ../../crypto/libcrypt_s.a(pstmnt.o)
                0x000000000004ec40                pstmnt_montgomery_input
 *fill*         0x000000000004efb2        0xe 
 .text.pstmnt_montgomery_output
                0x000000000004efc0       0x5c ../../crypto/libcrypt_s.a(pstmnt.o)
                0x000000000004efc0                pstmnt_montgomery_output
 *fill*         0x000000000004f01c        0x4 
 .text.pstmnt_mod_exp_montgomery_skip
                0x000000000004f020      0x30f ../../crypto/libcrypt_s.a(pstmnt.o)
                0x000000000004f020                pstmnt_mod_exp_montgomery_skip
 *fill*         0x000000000004f32f        0x1 
 .text.pstm_mul_comba32
                0x000000000004f330     0x633a ../../crypto/libcrypt_s.a(pstm_mul_comba.o)
 *fill*         0x000000000005566a        0x6 
 .text.pstm_mul_comba
                0x0000000000055670     0x1bad ../../crypto/libcrypt_s.a(pstm_mul_comba.o)
                0x0000000000055670                pstm_mul_comba
 *fill*         0x000000000005721d        0x3 
 .text.pstm_sqr_comba32
                0x0000000000057220     0x32b9 ../../crypto/libcrypt_s.a(pstm_sqr_comba.o)
 *fill*         0x000000000005a4d9        0x7 
 .text.pstm_sqr_comba
                0x000000000005a4e0     0x1356 ../../crypto/libcrypt_s.a(pstm_sqr_comba.o)
                0x000000000005a4e0                pstm_sqr_comba
 *fill*         0x000000000005b836        0xa 
 .text.psOpenPrng
                0x000000000005b840       0x31 ../../crypto/libcrypt_s.a(prng.o)
                0x000000000005b840                psOpenPrng
 *fill*         0x000000000005b871        0xf 
 .text.psClosePrng
                0x000000000005b880       0x10 ../../crypto/libcrypt_s.a(prng.o)
                0x000000000005b880                psClosePrng
 .text.psGetPrngLocked
                0x000000000005b890       0x68 ../../crypto/libcrypt_s.a(prng.o)
                0x000000000005b890                psGetPrngLocked
 *fill*         0x000000000005b8f8        0x8 
 .text.psGetPrng
                0x000000000005b900       0x1c ../../crypto/libcrypt_s.a(prng.o)
                0x000000000005b900                psGetPrng
 *fill*         0x000000000005b91c        0x4 
 .text.psDhClearKey
                0x000000000005b920       0x5a ../../crypto/libcrypt_s.a(dh.o)
                0x000000000005b920                psDhClearKey
 *fill*         0x000000000005b97a        0x6 
 .text.psPkcs3ParseDhParamBin
                0x000000000005b980      0x1b0 ../../crypto/libcrypt_s.a(dh_params.o)
                0x000000000005b980                psPkcs3ParseDhParamBin
 .text.psPkcs3ClearDhParams
                0x000000000005bb30       0x31 ../../crypto/libcrypt_s.a(dh_params.o)
                0x000000000005bb30                psPkcs3ClearDhParams
 *fill*         0x000000000005bb61        0xf 
 .text.psDhExportParameters
                0x000000000005bb70      0x160 ../../crypto/libcrypt_s.a(dh_params.o)
                0x000000000005bb70                psDhExportParameters
 .text.psDhExportPubKey
                0x000000000005bcd0       0x9e ../../crypto/libcrypt_s.a(dh_export.o)
                0x000000000005bcd0                psDhExportPubKey
 *fill*         0x000000000005bd6e        0x2 
 .text.psDhImportPubKey
                0x000000000005bd70       0x82 ../../crypto/libcrypt_s.a(dh_import.o)
                0x000000000005bd70                psDhImportPubKey
 *fill*         0x000000000005bdf2        0xe 
 .text.psDhGenKeyIntsSize
                0x000000000005be00      0x1ec ../../crypto/libcrypt_s.a(dh_gen_key.o)
                0x000000000005be00                psDhGenKeyIntsSize
 *fill*         0x000000000005bfec        0x4 
 .text.psDhGenKey
                0x000000000005bff0      0x1c8 ../../crypto/libcrypt_s.a(dh_gen_key.o)
                0x000000000005bff0                psDhGenKey
 *fill*         0x000000000005c1b8        0x8 
 .text.psDhGenKeyParams
                0x000000000005c1c0       0xc3 ../../crypto/libcrypt_s.a(dh_gen_key.o)
                0x000000000005c1c0                psDhGenKeyParams
 *fill*         0x000000000005c283        0xd 
 .text.psDhGenSharedSecret
                0x000000000005c290      0x17f ../../crypto/libcrypt_s.a(dh_gen_secret.o)
                0x000000000005c290                psDhGenSharedSecret
 *fill*         0x000000000005c40f        0x1 
 .text.psEccInitKey
                0x000000000005c410       0x51 ../../crypto/libcrypt_s.a(ecc.o)
                0x000000000005c410                psEccInitKey
 *fill*         0x000000000005c461        0xf 
 .text.psEccClearKey
                0x000000000005c470       0x82 ../../crypto/libcrypt_s.a(ecc.o)
                0x000000000005c470                psEccClearKey
 *fill*         0x000000000005c4f2        0xe 
 .text.psEccNewKey
                0x000000000005c500       0x57 ../../crypto/libcrypt_s.a(ecc.o)
                0x000000000005c500                psEccNewKey
 *fill*         0x000000000005c557        0x9 
 .text.psEccCopyKey
                0x000000000005c560      0x128 ../../crypto/libcrypt_s.a(ecc.o)
                0x000000000005c560                psEccCopyKey
 *fill*         0x000000000005c688        0x8 
 .text.psEccDeleteKey
                0x000000000005c690       0x82 ../../crypto/libcrypt_s.a(ecc.o)
                0x000000000005c690                psEccDeleteKey
 *fill*         0x000000000005c712        0xe 
 .text.psEccSize
                0x000000000005c720       0x1a ../../crypto/libcrypt_s.a(ecc_curve.o)
                0x000000000005c720                psEccSize
 *fill*         0x000000000005c73a        0x6 
 .text.getEccParamByOid
                0x000000000005c740       0x56 ../../crypto/libcrypt_s.a(ecc_curve.o)
                0x000000000005c740                getEccParamByOid
 *fill*         0x000000000005c796        0xa 
 .text.psGetEccCurveIdList
                0x000000000005c7a0       0xac ../../crypto/libcrypt_s.a(ecc_curve.o)
                0x000000000005c7a0                psGetEccCurveIdList
 *fill*         0x000000000005c84c        0x4 
 .text.getEccParamById
                0x000000000005c850       0x76 ../../crypto/libcrypt_s.a(ecc_curve_config.o)
                0x000000000005c850                getEccParamById
 *fill*         0x000000000005c8c6        0xa 
 .text.userSuppliedEccList
                0x000000000005c8d0      0x23e ../../crypto/libcrypt_s.a(ecc_curve_config.o)
                0x000000000005c8d0                userSuppliedEccList
 *fill*         0x000000000005cb0e        0x2 
 .text.compiledInEcFlags
                0x000000000005cb10        0xa ../../crypto/libcrypt_s.a(ecc_curve_config.o)
                0x000000000005cb10                compiledInEcFlags
 *fill*         0x000000000005cb1a        0x6 
 .text.psEccDsaSignCommon
                0x000000000005cb20      0x69e ../../crypto/libcrypt_s.a(ecc_priv.o)
                0x000000000005cb20                psEccDsaSignCommon
 *fill*         0x000000000005d1be        0x2 
 .text.psEccDsaSign
                0x000000000005d1c0       0x21 ../../crypto/libcrypt_s.a(ecc_priv.o)
                0x000000000005d1c0                psEccDsaSign
 *fill*         0x000000000005d1e1        0xf 
 .text.psEccDsaVerify
                0x000000000005d1f0      0x6c7 ../../crypto/libcrypt_s.a(ecc_pub.o)
                0x000000000005d1f0                psEccDsaVerify
 *fill*         0x000000000005d8b7        0x9 
 .text.psEccGenerateScalar
                0x000000000005d8c0      0x2ce ../../crypto/libcrypt_s.a(ecc_keygen.o)
                0x000000000005d8c0                psEccGenerateScalar
 *fill*         0x000000000005db8e        0x2 
 .text.psEccGenKey
                0x000000000005db90      0x44f ../../crypto/libcrypt_s.a(ecc_keygen.o)
                0x000000000005db90                psEccGenKey
 *fill*         0x000000000005dfdf        0x1 
 .text.psEccGenSharedSecret
                0x000000000005dfe0      0x30b ../../crypto/libcrypt_s.a(ecc_gen_shared.o)
                0x000000000005dfe0                psEccGenSharedSecret
 *fill*         0x000000000005e2eb        0x5 
 .text.getEcPubKey
                0x000000000005e2f0      0x1cb ../../crypto/libcrypt_s.a(ecc_parse_mem.o)
                0x000000000005e2f0                getEcPubKey
 *fill*         0x000000000005e4bb        0x5 
 .text.psEd25519ParsePubKey
                0x000000000005e4c0      0x15c ../../crypto/libcrypt_s.a(ecc_parse_mem.o)
                0x000000000005e4c0                psEd25519ParsePubKey
 *fill*         0x000000000005e61c        0x4 
 .text.psEccParsePrivKey
                0x000000000005e620      0x3cc ../../crypto/libcrypt_s.a(ecc_parse_mem.o)
                0x000000000005e620                psEccParsePrivKey
 *fill*         0x000000000005e9ec        0x4 
 .text.psEccX963ExportKey
                0x000000000005e9f0      0x249 ../../crypto/libcrypt_s.a(ecc_export.o)
                0x000000000005e9f0                psEccX963ExportKey
 *fill*         0x000000000005ec39        0x7 
 .text.psEccX963ImportKey
                0x000000000005ec40      0x2e9 ../../crypto/libcrypt_s.a(ecc_import.o)
                0x000000000005ec40                psEccX963ImportKey
 *fill*         0x000000000005ef29        0x7 
 .text.psInitPubKey
                0x000000000005ef30       0x5d ../../crypto/libcrypt_s.a(pubkey.o)
                0x000000000005ef30                psInitPubKey
 *fill*         0x000000000005ef8d        0x3 
 .text.psClearPubKey
                0x000000000005ef90       0x71 ../../crypto/libcrypt_s.a(pubkey.o)
                0x000000000005ef90                psClearPubKey
 *fill*         0x000000000005f001        0xf 
 .text.psNewPubKey
                0x000000000005f010       0x84 ../../crypto/libcrypt_s.a(pubkey.o)
                0x000000000005f010                psNewPubKey
 *fill*         0x000000000005f094        0xc 
 .text.psDeletePubKey
                0x000000000005f0a0       0x94 ../../crypto/libcrypt_s.a(pubkey.o)
                0x000000000005f0a0                psDeletePubKey
 *fill*         0x000000000005f134        0xc 
 .text.psSignHashRsa
                0x000000000005f140      0x194 ../../crypto/libcrypt_s.a(pubkey_sign.o)
                0x000000000005f140                psSignHashRsa
 *fill*         0x000000000005f2d4        0xc 
 .text.psSignHash
                0x000000000005f2e0      0x247 ../../crypto/libcrypt_s.a(pubkey_sign.o)
                0x000000000005f2e0                psSignHash
 *fill*         0x000000000005f527        0x9 
 .text.psSign   0x000000000005f530      0x30e ../../crypto/libcrypt_s.a(pubkey_sign.o)
                0x000000000005f530                psSign
 *fill*         0x000000000005f83e        0x2 
 .text.psComputeHashForSig
                0x000000000005f840      0x1ec ../../crypto/libcrypt_s.a(pubkey_sign.o)
                0x000000000005f840                psComputeHashForSig
 *fill*         0x000000000005fa2c        0x4 
 .text.psVerifySig
                0x000000000005fa30      0x1df ../../crypto/libcrypt_s.a(pubkey_verify.o)
                0x000000000005fa30                psVerifySig
 *fill*         0x000000000005fc0f        0x1 
 .text.psVerify
                0x000000000005fc10      0x328 ../../crypto/libcrypt_s.a(pubkey_verify.o)
                0x000000000005fc10                psVerify
 *fill*         0x000000000005ff38        0x8 
 .text.psPkcs8ParsePrivBin
                0x000000000005ff40      0x739 ../../crypto/libcrypt_s.a(pubkey_parse_file.o)
                0x000000000005ff40                psPkcs8ParsePrivBin
 *fill*         0x0000000000060679        0x7 
 .text.psRsaInitKey
                0x0000000000060680       0x48 ../../crypto/libcrypt_s.a(rsa.o)
                0x0000000000060680                psRsaInitKey
 *fill*         0x00000000000606c8        0x8 
 .text.psRsaClearKey
                0x00000000000606d0       0x72 ../../crypto/libcrypt_s.a(rsa.o)
                0x00000000000606d0                psRsaClearKey
 *fill*         0x0000000000060742        0xe 
 .text.psRsaSize
                0x0000000000060750        0xc ../../crypto/libcrypt_s.a(rsa.o)
                0x0000000000060750                psRsaSize
 *fill*         0x000000000006075c        0x4 
 .text.psRsaCmpPubKey
                0x0000000000060760       0x47 ../../crypto/libcrypt_s.a(rsa.o)
                0x0000000000060760                psRsaCmpPubKey
 *fill*         0x00000000000607a7        0x9 
 .text.psRsaCrypt
                0x00000000000607b0      0x39b ../../crypto/libcrypt_s.a(rsa.o)
                0x00000000000607b0                psRsaCrypt
 *fill*         0x0000000000060b4b        0x5 
 .text.privRsaEncryptSignedElement
                0x0000000000060b50      0x37e ../../crypto/libcrypt_s.a(rsa_priv.o)
                0x0000000000060b50                privRsaEncryptSignedElement
 *fill*         0x0000000000060ece        0x2 
 .text.psRsaEncryptPriv
                0x0000000000060ed0      0x228 ../../crypto/libcrypt_s.a(rsa_priv.o)
                0x0000000000060ed0                psRsaEncryptPriv
 *fill*         0x00000000000610f8        0x8 
 .text.psRsaDecryptPriv
                0x0000000000061100       0xdd ../../crypto/libcrypt_s.a(rsa_priv.o)
                0x0000000000061100                psRsaDecryptPriv
 *fill*         0x00000000000611dd        0x3 
 .text.psRsaPssSignHash
                0x00000000000611e0      0x1ec ../../crypto/libcrypt_s.a(rsa_priv.o)
                0x00000000000611e0                psRsaPssSignHash
 *fill*         0x00000000000613cc        0x4 
 .text.pubRsaDecryptSignedElement
                0x00000000000613d0      0x19d ../../crypto/libcrypt_s.a(rsa_pub.o)
                0x00000000000613d0                pubRsaDecryptSignedElement
 *fill*         0x000000000006156d        0x3 
 .text.pubRsaDecryptSignedElementExt
                0x0000000000061570      0x17d ../../crypto/libcrypt_s.a(rsa_pub.o)
                0x0000000000061570                pubRsaDecryptSignedElementExt
 *fill*         0x00000000000616ed        0x3 
 .text.psRsaEncryptPub
                0x00000000000616f0       0x9f ../../crypto/libcrypt_s.a(rsa_pub.o)
                0x00000000000616f0                psRsaEncryptPub
 *fill*         0x000000000006178f        0x1 
 .text.psRsaDecryptPub
                0x0000000000061790       0xdc ../../crypto/libcrypt_s.a(rsa_pub.o)
                0x0000000000061790                psRsaDecryptPub
 *fill*         0x000000000006186c        0x4 
 .text.psRsaPssVerify
                0x0000000000061870      0x165 ../../crypto/libcrypt_s.a(rsa_pub.o)
                0x0000000000061870                psRsaPssVerify
 *fill*         0x00000000000619d5        0xb 
 .text.psRsaParseAsnPubKey
                0x00000000000619e0      0x17c ../../crypto/libcrypt_s.a(rsa_parse_mem.o)
                0x00000000000619e0                psRsaParseAsnPubKey
 *fill*         0x0000000000061b5c        0x4 
 .text.psRsaParsePkcs1PrivKey
                0x0000000000061b60      0x20d ../../crypto/libcrypt_s.a(rsa_parse_mem.o)
                0x0000000000061b60                psRsaParsePkcs1PrivKey
 *fill*         0x0000000000061d6d        0x3 
 .text.psChacha20Poly1305IetfInit
                0x0000000000061d70       0x69 ../../crypto/libcrypt_s.a(ps_chacha20poly1305ietf.o)
                0x0000000000061d70                psChacha20Poly1305IetfInit
 *fill*         0x0000000000061dd9        0x7 
 .text.psChacha20Poly1305IetfEncrypt
                0x0000000000061de0       0x5f ../../crypto/libcrypt_s.a(ps_chacha20poly1305ietf.o)
                0x0000000000061de0                psChacha20Poly1305IetfEncrypt
 *fill*         0x0000000000061e3f        0x1 
 .text.psChacha20Poly1305IetfDecrypt
                0x0000000000061e40       0x67 ../../crypto/libcrypt_s.a(ps_chacha20poly1305ietf.o)
                0x0000000000061e40                psChacha20Poly1305IetfDecrypt
 *fill*         0x0000000000061ea7        0x9 
 .text.psCrypto_aead_chacha20poly1305_ietf_encrypt_detached
                0x0000000000061eb0      0x19d ../../crypto/libcrypt_s.a(aead_chacha20poly1305.o)
                0x0000000000061eb0                psCrypto_aead_chacha20poly1305_ietf_encrypt_detached
 *fill*         0x000000000006204d        0x3 
 .text.psCrypto_aead_chacha20poly1305_ietf_decrypt_detached
                0x0000000000062050      0x1c9 ../../crypto/libcrypt_s.a(aead_chacha20poly1305.o)
                0x0000000000062050                psCrypto_aead_chacha20poly1305_ietf_decrypt_detached
 *fill*         0x0000000000062219        0x7 
 .text.psSodium_memzero_as_a_weak_symbol_to_prevent_lto
                0x0000000000062220       0x19 ../../crypto/libcrypt_s.a(utils.o)
                0x0000000000062220                psSodium_memzero_as_a_weak_symbol_to_prevent_lto
 *fill*         0x0000000000062239        0x7 
 .text.psSodium_memzero
                0x0000000000062240        0x9 ../../crypto/libcrypt_s.a(utils.o)
                0x0000000000062240                psSodium_memzero
 *fill*         0x0000000000062249        0x7 
 .text.psSodium_dummy_symbol_to_prevent_memcmp_lto
                0x0000000000062250        0x5 ../../crypto/libcrypt_s.a(utils.o)
                0x0000000000062250                psSodium_dummy_symbol_to_prevent_memcmp_lto
 *fill*         0x0000000000062255        0xb 
 .text.psSodium_memcmp
                0x0000000000062260       0x57 ../../crypto/libcrypt_s.a(utils.o)
                0x0000000000062260                psSodium_memcmp
 *fill*         0x00000000000622b7        0x9 
 .text.psSodium_is_zero
                0x00000000000622c0       0x2e ../../crypto/libcrypt_s.a(utils.o)
                0x00000000000622c0                psSodium_is_zero
 *fill*         0x00000000000622ee        0x2 
 .text.psCrypto_verify_16
                0x00000000000622f0       0x36 ../../crypto/libcrypt_s.a(verify.o)
                0x00000000000622f0                psCrypto_verify_16
 *fill*         0x0000000000062326        0xa 
 .text.psCrypto_verify_32
                0x0000000000062330       0x36 ../../crypto/libcrypt_s.a(verify.o)
                0x0000000000062330                psCrypto_verify_32
 *fill*         0x0000000000062366        0xa 
 .text.psSodium_runtime_get_cpu_features
                0x0000000000062370       0xd7 ../../crypto/libcrypt_s.a(runtime.o)
                0x0000000000062370                psSodium_runtime_get_cpu_features
 *fill*         0x0000000000062447        0x9 
 .text.psSodium_runtime_has_sse2
                0x0000000000062450        0xb ../../crypto/libcrypt_s.a(runtime.o)
                0x0000000000062450                psSodium_runtime_has_sse2
 *fill*         0x000000000006245b        0x5 
 .text.psSodium_runtime_has_ssse3
                0x0000000000062460        0xb ../../crypto/libcrypt_s.a(runtime.o)
                0x0000000000062460                psSodium_runtime_has_ssse3
 *fill*         0x000000000006246b        0x5 
 .text.psDhX25519GenSharedSecret
                0x0000000000062470       0x1f ../../crypto/libcrypt_s.a(ps_x25519.o)
                0x0000000000062470                psDhX25519GenSharedSecret
 *fill*         0x000000000006248f        0x1 
 .text.psDhX25519GenKey
                0x0000000000062490       0x92 ../../crypto/libcrypt_s.a(ps_x25519.o)
                0x0000000000062490                psDhX25519GenKey
 *fill*         0x0000000000062522        0xe 
 .text.psEd25519Sign
                0x0000000000062530       0xec ../../crypto/libcrypt_s.a(ps_ed25519.o)
                0x0000000000062530                psEd25519Sign
 *fill*         0x000000000006261c        0x4 
 .text.psEd25519Verify
                0x0000000000062620       0x16 ../../crypto/libcrypt_s.a(ps_ed25519.o)
                0x0000000000062620                psEd25519Verify
 *fill*         0x0000000000062636        0xa 
 .text.psGetDigestInfoPrefix
                0x0000000000062640       0xf7 ../../crypto/libcrypt_s.a(digest_info.o)
                0x0000000000062640                psGetDigestInfoPrefix
 *fill*         0x0000000000062737        0x9 
 .text.desfunc  0x0000000000062740      0x257 ../../crypto/libcrypt_s.a(des3.o)
 *fill*         0x0000000000062997        0x9 
 .text.cookey   0x00000000000629a0      0x328 ../../crypto/libcrypt_s.a(des3.o)
 *fill*         0x0000000000062cc8        0x8 
 .text.deskey.constprop.0
                0x0000000000062cd0      0x218 ../../crypto/libcrypt_s.a(des3.o)
 *fill*         0x0000000000062ee8        0x8 
 .text.deskey.constprop.1
                0x0000000000062ef0      0x1e8 ../../crypto/libcrypt_s.a(des3.o)
 *fill*         0x00000000000630d8        0x8 
 .text.psDes3Init
                0x00000000000630e0      0x140 ../../crypto/libcrypt_s.a(des3.o)
                0x00000000000630e0                psDes3Init
 .text.psDes3Decrypt
                0x0000000000063220      0x272 ../../crypto/libcrypt_s.a(des3.o)
                0x0000000000063220                psDes3Decrypt
 *fill*         0x0000000000063492        0xe 
 .text.getAsnTagLenUnsafe
                0x00000000000634a0       0xbd ../../crypto/libcrypt_s.a(asn1.o)
                0x00000000000634a0                getAsnTagLenUnsafe
 *fill*         0x000000000006355d        0x3 
 .text.getAsnLength
                0x0000000000063560       0xfb ../../crypto/libcrypt_s.a(asn1.o)
                0x0000000000063560                getAsnLength
 *fill*         0x000000000006365b        0x5 
 .text.getAsnLength32
                0x0000000000063660      0x116 ../../crypto/libcrypt_s.a(asn1.o)
                0x0000000000063660                getAsnLength32
 *fill*         0x0000000000063776        0xa 
 .text.getAsnSequence32
                0x0000000000063780      0x16b ../../crypto/libcrypt_s.a(asn1.o)
                0x0000000000063780                getAsnSequence32
 *fill*         0x00000000000638eb        0x5 
 .text.getAsnSequence
                0x00000000000638f0      0x12f ../../crypto/libcrypt_s.a(asn1.o)
                0x00000000000638f0                getAsnSequence
 *fill*         0x0000000000063a1f        0x1 
 .text.getAsnSet
                0x0000000000063a20      0x11e ../../crypto/libcrypt_s.a(asn1.o)
                0x0000000000063a20                getAsnSet
 *fill*         0x0000000000063b3e        0x2 
 .text.getAsnEnumerated
                0x0000000000063b40      0x15a ../../crypto/libcrypt_s.a(asn1.o)
                0x0000000000063b40                getAsnEnumerated
 *fill*         0x0000000000063c9a        0x6 
 .text.getAsnInteger
                0x0000000000063ca0      0x15a ../../crypto/libcrypt_s.a(asn1.o)
                0x0000000000063ca0                getAsnInteger
 *fill*         0x0000000000063dfa        0x6 
 .text.asnParseOid
                0x0000000000063e00      0x158 ../../crypto/libcrypt_s.a(asn1.o)
                0x0000000000063e00                asnParseOid
 *fill*         0x0000000000063f58        0x8 
 .text.getAsnOID
                0x0000000000063f60      0x85a ../../crypto/libcrypt_s.a(asn1.o)
                0x0000000000063f60                getAsnOID
 *fill*         0x00000000000647ba        0x6 
 .text.getAsnAlgorithmIdentifier
                0x00000000000647c0       0xe2 ../../crypto/libcrypt_s.a(asn1.o)
                0x00000000000647c0                getAsnAlgorithmIdentifier
 *fill*         0x00000000000648a2        0xe 
 .text.psBase64decode
                0x00000000000648b0      0x157 ../../crypto/libcrypt_s.a(base64.o)
                0x00000000000648b0                psBase64decode
 *fill*         0x0000000000064a07        0x9 
 .text.internalGetCrlForCert
                0x0000000000064a10      0x162 ../../crypto/libcrypt_s.a(crl.o)
 *fill*         0x0000000000064b72        0xe 
 .text.internalShrinkCRLtable
                0x0000000000064b80      0x179 ../../crypto/libcrypt_s.a(crl.o)
 *fill*         0x0000000000064cf9        0x7 
 .text.psCrlOpen
                0x0000000000064d00       0x1d ../../crypto/libcrypt_s.a(crl.o)
                0x0000000000064d00                psCrlOpen
 *fill*         0x0000000000064d1d        0x3 
 .text.psCrlClose
                0x0000000000064d20       0x91 ../../crypto/libcrypt_s.a(crl.o)
                0x0000000000064d20                psCrlClose
 *fill*         0x0000000000064db1        0xf 
 .text.psX509AuthenticateCRL
                0x0000000000064dc0      0x11c ../../crypto/libcrypt_s.a(crl.o)
                0x0000000000064dc0                psX509AuthenticateCRL
 *fill*         0x0000000000064edc        0x4 
 .text.psCRL_determineRevokedStatus
                0x0000000000064ee0      0x18f ../../crypto/libcrypt_s.a(crl.o)
                0x0000000000064ee0                psCRL_determineRevokedStatus
 *fill*         0x000000000006506f        0x1 
 .text.eccProjectiveDblPoint
                0x0000000000065070      0x9ba ../../crypto/libcrypt_s.a(ecc_math.o)
 *fill*         0x0000000000065a2a        0x6 
 .text.eccTestPoint
                0x0000000000065a30      0x23c ../../crypto/libcrypt_s.a(ecc_math.o)
                0x0000000000065a30                eccTestPoint
 *fill*         0x0000000000065c6c        0x4 
 .text.eccProjectiveAddPoint
                0x0000000000065c70      0xcd6 ../../crypto/libcrypt_s.a(ecc_math.o)
                0x0000000000065c70                eccProjectiveAddPoint
 *fill*         0x0000000000066946        0xa 
 .text.eccNewPoint
                0x0000000000066950       0xeb ../../crypto/libcrypt_s.a(ecc_math.o)
                0x0000000000066950                eccNewPoint
 *fill*         0x0000000000066a3b        0x5 
 .text.eccFreePoint
                0x0000000000066a40       0x31 ../../crypto/libcrypt_s.a(ecc_math.o)
                0x0000000000066a40                eccFreePoint
 *fill*         0x0000000000066a71        0xf 
 .text.eccMap   0x0000000000066a80      0x289 ../../crypto/libcrypt_s.a(ecc_math.o)
                0x0000000000066a80                eccMap
 *fill*         0x0000000000066d09        0x7 
 .text.eccMulmod
                0x0000000000066d10      0x7a4 ../../crypto/libcrypt_s.a(ecc_math.o)
                0x0000000000066d10                eccMulmod
 *fill*         0x00000000000674b4        0xc 
 .text.psCrypto_stream_chacha20_ietf
                0x00000000000674c0        0xe ../../crypto/libcrypt_s.a(stream_chacha20.o)
                0x00000000000674c0                psCrypto_stream_chacha20_ietf
 *fill*         0x00000000000674ce        0x2 
 .text.psCrypto_stream_chacha20_ietf_xor_ic
                0x00000000000674d0        0xe ../../crypto/libcrypt_s.a(stream_chacha20.o)
                0x00000000000674d0                psCrypto_stream_chacha20_ietf_xor_ic
 *fill*         0x00000000000674de        0x2 
 .text.psCrypto_stream_chacha20_pick_best_implementation
                0x00000000000674e0       0x34 ../../crypto/libcrypt_s.a(stream_chacha20.o)
                0x00000000000674e0                psCrypto_stream_chacha20_pick_best_implementation
 *fill*         0x0000000000067514        0xc 
 .text.psCrypto_onetimeauth_poly1305_init
                0x0000000000067520        0xe ../../crypto/libcrypt_s.a(onetimeauth_poly1305.o)
                0x0000000000067520                psCrypto_onetimeauth_poly1305_init
 *fill*         0x000000000006752e        0x2 
 .text.psCrypto_onetimeauth_poly1305_update
                0x0000000000067530        0xe ../../crypto/libcrypt_s.a(onetimeauth_poly1305.o)
                0x0000000000067530                psCrypto_onetimeauth_poly1305_update
 *fill*         0x000000000006753e        0x2 
 .text.psCrypto_onetimeauth_poly1305_final
                0x0000000000067540        0xe ../../crypto/libcrypt_s.a(onetimeauth_poly1305.o)
                0x0000000000067540                psCrypto_onetimeauth_poly1305_final
 *fill*         0x000000000006754e        0x2 
 .text.psCrypto_onetimeauth_poly1305_pick_best_implementation
                0x0000000000067550       0x34 ../../crypto/libcrypt_s.a(onetimeauth_poly1305.o)
                0x0000000000067550                psCrypto_onetimeauth_poly1305_pick_best_implementation
 *fill*         0x0000000000067584        0xc 
 .text.psSodium_crypto_scalarmult
                0x0000000000067590        0x9 ../../crypto/libcrypt_s.a(crypto_scalarmult.o)
                0x0000000000067590                psSodium_crypto_scalarmult
 *fill*         0x0000000000067599        0x7 
 .text._psSodium_crypto_sign_ed25519_detached
                0x00000000000675a0      0x2a6 ../../crypto/libcrypt_s.a(sign.o)
                0x00000000000675a0                _psSodium_crypto_sign_ed25519_detached
 *fill*         0x0000000000067846        0xa 
 .text.psSodium_crypto_sign_ed25519_detached
                0x0000000000067850        0xc ../../crypto/libcrypt_s.a(sign.o)
                0x0000000000067850                psSodium_crypto_sign_ed25519_detached
 *fill*         0x000000000006785c        0x4 
 .text._psSodium_crypto_sign_ed25519_verify_detached
                0x0000000000067860      0x16c ../../crypto/libcrypt_s.a(open.o)
                0x0000000000067860                _psSodium_crypto_sign_ed25519_verify_detached
 *fill*         0x00000000000679cc        0x4 
 .text.psSodium_crypto_sign_ed25519_verify_detached
                0x00000000000679d0        0xc ../../crypto/libcrypt_s.a(open.o)
                0x00000000000679d0                psSodium_crypto_sign_ed25519_verify_detached
 *fill*         0x00000000000679dc        0x4 
 .text.pstm_montgomery_reduce
                0x00000000000679e0      0x4c5 ../../crypto/libcrypt_s.a(pstm_montgomery_reduce.o)
                0x00000000000679e0                pstm_montgomery_reduce
 *fill*         0x0000000000067ea5        0xb 
 .text.poly1305_blocks
                0x0000000000067eb0      0xe77 ../../crypto/libcrypt_s.a(poly1305_sse2.o)
 *fill*         0x0000000000068d27        0x9 
 .text.psCrypto_onetimeauth_poly1305_sse2_update
                0x0000000000068d30      0x116 ../../crypto/libcrypt_s.a(poly1305_sse2.o)
 *fill*         0x0000000000068e46        0xa 
 .text.poly1305_init_ext
                0x0000000000068e50      0x271 ../../crypto/libcrypt_s.a(poly1305_sse2.o)
 *fill*         0x00000000000690c1        0xf 
 .text.psCrypto_onetimeauth_poly1305_sse2_init
                0x00000000000690d0       0x16 ../../crypto/libcrypt_s.a(poly1305_sse2.o)
 *fill*         0x00000000000690e6        0xa 
 .text.poly1305_finish_ext
                0x00000000000690f0      0x1ef ../../crypto/libcrypt_s.a(poly1305_sse2.o)
 *fill*         0x00000000000692df        0x1 
 .text.psCrypto_onetimeauth_poly1305_sse2_final
                0x00000000000692e0       0x25 ../../crypto/libcrypt_s.a(poly1305_sse2.o)
 *fill*         0x0000000000069305        0xb 
 .text.psCrypto_onetimeauth_poly1305_sse2
                0x0000000000069310       0xa3 ../../crypto/libcrypt_s.a(poly1305_sse2.o)
 *fill*         0x00000000000693b3        0xd 
 .text.psCrypto_onetimeauth_poly1305_sse2_verify
                0x00000000000693c0       0xb3 ../../crypto/libcrypt_s.a(poly1305_sse2.o)
 *fill*         0x0000000000069473        0xd 
 .text.poly1305_blocks
                0x0000000000069480      0x1cd ../../crypto/libcrypt_s.a(poly1305_donna.o)
 *fill*         0x000000000006964d        0x3 
 .text.poly1305_update
                0x0000000000069650       0xfe ../../crypto/libcrypt_s.a(poly1305_donna.o)
 *fill*         0x000000000006974e        0x2 
 .text.psCrypto_onetimeauth_poly1305_donna_update
                0x0000000000069750       0x14 ../../crypto/libcrypt_s.a(poly1305_donna.o)
 *fill*         0x0000000000069764        0xc 
 .text.poly1305_finish
                0x0000000000069770      0x195 ../../crypto/libcrypt_s.a(poly1305_donna.o)
 *fill*         0x0000000000069905        0xb 
 .text.psCrypto_onetimeauth_poly1305_donna_final
                0x0000000000069910       0x14 ../../crypto/libcrypt_s.a(poly1305_donna.o)
 *fill*         0x0000000000069924        0xc 
 .text.psCrypto_onetimeauth_poly1305_donna
                0x0000000000069930       0xee ../../crypto/libcrypt_s.a(poly1305_donna.o)
 *fill*         0x0000000000069a1e        0x2 
 .text.psCrypto_onetimeauth_poly1305_donna_verify
                0x0000000000069a20       0x51 ../../crypto/libcrypt_s.a(poly1305_donna.o)
 *fill*         0x0000000000069a71        0xf 
 .text.psCrypto_onetimeauth_poly1305_donna_init
                0x0000000000069a80       0x89 ../../crypto/libcrypt_s.a(poly1305_donna.o)
 *fill*         0x0000000000069b09        0x7 
 .text.chacha20_encrypt_bytes.part.0
                0x0000000000069b10      0xd36 ../../crypto/libcrypt_s.a(chacha20_dolbeau-ssse3.o)
 *fill*         0x000000000006a846        0xa 
 .text.stream_ietf_ref
                0x000000000006a850       0xc8 ../../crypto/libcrypt_s.a(chacha20_dolbeau-ssse3.o)
 *fill*         0x000000000006a918        0x8 
 .text.stream_ref_xor_ic
                0x000000000006a920       0xa6 ../../crypto/libcrypt_s.a(chacha20_dolbeau-ssse3.o)
 *fill*         0x000000000006a9c6        0xa 
 .text.stream_ietf_ref_xor_ic
                0x000000000006a9d0       0xad ../../crypto/libcrypt_s.a(chacha20_dolbeau-ssse3.o)
 *fill*         0x000000000006aa7d        0x3 
 .text.stream_ref
                0x000000000006aa80       0xbe ../../crypto/libcrypt_s.a(chacha20_dolbeau-ssse3.o)
 *fill*         0x000000000006ab3e        0x2 
 .text.chacha20_encrypt_bytes.part.0
                0x000000000006ab40      0x736 ../../crypto/libcrypt_s.a(chacha20_ref.o)
 *fill*         0x000000000006b276        0xa 
 .text.stream_ietf_ref
                0x000000000006b280       0xc8 ../../crypto/libcrypt_s.a(chacha20_ref.o)
 *fill*         0x000000000006b348        0x8 
 .text.stream_ref_xor_ic
                0x000000000006b350       0xa6 ../../crypto/libcrypt_s.a(chacha20_ref.o)
 *fill*         0x000000000006b3f6        0xa 
 .text.stream_ietf_ref_xor_ic
                0x000000000006b400       0xad ../../crypto/libcrypt_s.a(chacha20_ref.o)
 *fill*         0x000000000006b4ad        0x3 
 .text.stream_ref
                0x000000000006b4b0       0xbe ../../crypto/libcrypt_s.a(chacha20_ref.o)
 *fill*         0x000000000006b56e        0x2 
 .text.psSodium_crypto_scalarmult_curve25519
                0x000000000006b570       0x55 ../../crypto/libcrypt_s.a(scalarmult_curve25519.o)
                0x000000000006b570                psSodium_crypto_scalarmult_curve25519
 *fill*         0x000000000006b5c5        0xb 
 .text.psSodium_fe25519_cswap
                0x000000000006b5d0       0x8a ../../crypto/libcrypt_s.a(x25519_ref10.o)
 *fill*         0x000000000006b65a        0x6 
 .text.psSodium_fe25519_mul
                0x000000000006b660      0x823 ../../crypto/libcrypt_s.a(x25519_ref10.o)
 *fill*         0x000000000006be83        0xd 
 .text.psSodium_fe25519_sq
                0x000000000006be90      0x4dd ../../crypto/libcrypt_s.a(x25519_ref10.o)
 *fill*         0x000000000006c36d        0x3 
 .text.psSodium_crypto_scalarmult_curve25519_ref10_base
                0x000000000006c370      0x184 ../../crypto/libcrypt_s.a(x25519_ref10.o)
 *fill*         0x000000000006c4f4        0xc 
 .text.psSodium_crypto_scalarmult_curve25519_ref10.part.0
                0x000000000006c500      0x8db ../../crypto/libcrypt_s.a(x25519_ref10.o)
 *fill*         0x000000000006cddb        0x5 
 .text.psSodium_crypto_scalarmult_curve25519_ref10
                0x000000000006cde0      0x49e ../../crypto/libcrypt_s.a(x25519_ref10.o)
 *fill*         0x000000000006d27e        0x2 
 .text.psSodium_fe25519_cmov
                0x000000000006d280       0x61 ../../crypto/libcrypt_s.a(ed25519_ref10.o)
 *fill*         0x000000000006d2e1        0xf 
 .text.psSodium_fe25519_mul
                0x000000000006d2f0      0x823 ../../crypto/libcrypt_s.a(ed25519_ref10.o)
 *fill*         0x000000000006db13        0xd 
 .text.psSodium_fe25519_sq
                0x000000000006db20      0x4dd ../../crypto/libcrypt_s.a(ed25519_ref10.o)
 *fill*         0x000000000006dffd        0x3 
 .text.psSodium_fe25519_sq2
                0x000000000006e000      0x4e9 ../../crypto/libcrypt_s.a(ed25519_ref10.o)
 *fill*         0x000000000006e4e9        0x7 
 .text.psSodium_fe25519_pow22523
                0x000000000006e4f0      0x22c ../../crypto/libcrypt_s.a(ed25519_ref10.o)
 *fill*         0x000000000006e71c        0x4 
 .text.slide_vartime
                0x000000000006e720      0x156 ../../crypto/libcrypt_s.a(ed25519_ref10.o)
 *fill*         0x000000000006e876        0xa 
 .text.psSodium_ge25519_select
                0x000000000006e880      0x38d ../../crypto/libcrypt_s.a(ed25519_ref10.o)
 *fill*         0x000000000006ec0d        0x3 
 .text.psSodium_ge25519_p2_dbl
                0x000000000006ec10      0x1a4 ../../crypto/libcrypt_s.a(ed25519_ref10.o)
 *fill*         0x000000000006edb4        0xc 
 .text.psSodium_ge25519_madd
                0x000000000006edc0      0x1ca ../../crypto/libcrypt_s.a(ed25519_ref10.o)
 *fill*         0x000000000006ef8a        0x6 
 .text.psSodium_fe25519_frombytes
                0x000000000006ef90      0x2a9 ../../crypto/libcrypt_s.a(ed25519_ref10.o)
                0x000000000006ef90                psSodium_fe25519_frombytes
 *fill*         0x000000000006f239        0x7 
 .text.psSodium_fe25519_tobytes
                0x000000000006f240      0x3e9 ../../crypto/libcrypt_s.a(ed25519_ref10.o)
                0x000000000006f240                psSodium_fe25519_tobytes
 *fill*         0x000000000006f629        0x7 
 .text.psSodium_fe25519_invert
                0x000000000006f630      0x246 ../../crypto/libcrypt_s.a(ed25519_ref10.o)
                0x000000000006f630                psSodium_fe25519_invert
 *fill*         0x000000000006f876        0xa 
 .text.psSodium_ge25519_add
                0x000000000006f880      0x1e3 ../../crypto/libcrypt_s.a(ed25519_ref10.o)
                0x000000000006f880                psSodium_ge25519_add
 *fill*         0x000000000006fa63        0xd 
 .text.psSodium_ge25519_frombytes_negate_vartime
                0x000000000006fa70      0x4dc ../../crypto/libcrypt_s.a(ed25519_ref10.o)
                0x000000000006fa70                psSodium_ge25519_frombytes_negate_vartime
 *fill*         0x000000000006ff4c        0x4 
 .text.psSodium_ge25519_p3_to_cached
                0x000000000006ff50       0x9e ../../crypto/libcrypt_s.a(ed25519_ref10.o)
                0x000000000006ff50                psSodium_ge25519_p3_to_cached
 *fill*         0x000000000006ffee        0x2 
 .text.psSodium_ge25519_p3_tobytes
                0x000000000006fff0       0xb3 ../../crypto/libcrypt_s.a(ed25519_ref10.o)
                0x000000000006fff0                psSodium_ge25519_p3_tobytes
 *fill*         0x00000000000700a3        0xd 
 .text.psSodium_ge25519_sub
                0x00000000000700b0      0x20a ../../crypto/libcrypt_s.a(ed25519_ref10.o)
                0x00000000000700b0                psSodium_ge25519_sub
 *fill*         0x00000000000702ba        0x6 
 .text.psSodium_ge25519_tobytes
                0x00000000000702c0       0xb3 ../../crypto/libcrypt_s.a(ed25519_ref10.o)
                0x00000000000702c0                psSodium_ge25519_tobytes
 *fill*         0x0000000000070373        0xd 
 .text.psSodium_ge25519_double_scalarmult_vartime
                0x0000000000070380      0xa4a ../../crypto/libcrypt_s.a(ed25519_ref10.o)
                0x0000000000070380                psSodium_ge25519_double_scalarmult_vartime
 *fill*         0x0000000000070dca        0x6 
 .text.psSodium_ge25519_scalarmult_base
                0x0000000000070dd0      0x452 ../../crypto/libcrypt_s.a(ed25519_ref10.o)
                0x0000000000070dd0                psSodium_ge25519_scalarmult_base
 *fill*         0x0000000000071222        0xe 
 .text.psSodium_ge25519_has_small_order
                0x0000000000071230      0x48e ../../crypto/libcrypt_s.a(ed25519_ref10.o)
                0x0000000000071230                psSodium_ge25519_has_small_order
 *fill*         0x00000000000716be        0x2 
 .text.psSodium_sc25519_muladd
                0x00000000000716c0     0x1754 ../../crypto/libcrypt_s.a(ed25519_ref10.o)
                0x00000000000716c0                psSodium_sc25519_muladd
 *fill*         0x0000000000072e14        0xc 
 .text.psSodium_sc25519_reduce
                0x0000000000072e20      0xc84 ../../crypto/libcrypt_s.a(ed25519_ref10.o)
                0x0000000000072e20                psSodium_sc25519_reduce
 *fill*         0x0000000000073aa4        0xc 
 .text.memset_s
                0x0000000000073ab0       0x23 ../../core/libcore_s.a(memset_s.o)
                0x0000000000073ab0                memset_s
 *fill*         0x0000000000073ad3        0xd 
 .text.psCoreOpen
                0x0000000000073ae0      0x15a ../../core/libcore_s.a(corelib_main.o)
                0x0000000000073ae0                psCoreOpen
 *fill*         0x0000000000073c3a        0x6 
 .text.psCoreClose
                0x0000000000073c40       0x3a ../../core/libcore_s.a(corelib_main.o)
                0x0000000000073c40                psCoreClose
 *fill*         0x0000000000073c7a        0x6 
 .text.psBurnStack
                0x0000000000073c80       0x9b ../../core/libcore_s.a(corelib_main.o)
                0x0000000000073c80                psBurnStack
 *fill*         0x0000000000073d1b        0x5 
 .text._psError
                0x0000000000073d20       0x1d ../../core/libcore_s.a(corelib_trace.o)
                0x0000000000073d20                _psError
 *fill*         0x0000000000073d3d        0x3 
 .text._psErrorInt
                0x0000000000073d40       0x1d ../../core/libcore_s.a(corelib_trace.o)
                0x0000000000073d40                _psErrorInt
 *fill*         0x0000000000073d5d        0x3 
 .text._psErrorStr
                0x0000000000073d60       0x1d ../../core/libcore_s.a(corelib_trace.o)
                0x0000000000073d60                _psErrorStr
 *fill*         0x0000000000073d7d        0x3 
 .text.psTraceBytes
                0x0000000000073d80      0x1db ../../core/libcore_s.a(corelib_trace.o)
                0x0000000000073d80                psTraceBytes
 *fill*         0x0000000000073f5b        0x5 
 .text.psGetEpochTime
                0x0000000000073f60        0xb ../../core/libcore_s.a(corelib_date.o)
                0x0000000000073f60                psGetEpochTime
 *fill*         0x0000000000073f6b        0x5 
 .text.psBrokenDownTimeImportSeconds
                0x0000000000073f70       0x4a ../../core/libcore_s.a(corelib_date.o)
                0x0000000000073f70                psBrokenDownTimeImportSeconds
 *fill*         0x0000000000073fba        0x6 
 .text.psBrokenDownTimeAdd
                0x0000000000073fc0      0x1f8 ../../core/libcore_s.a(corelib_date.o)
                0x0000000000073fc0                psBrokenDownTimeAdd
 *fill*         0x00000000000741b8        0x8 
 .text.psGetBrokenDownGMTime
                0x00000000000741c0       0x77 ../../core/libcore_s.a(corelib_date.o)
                0x00000000000741c0                psGetBrokenDownGMTime
 *fill*         0x0000000000074237        0x9 
 .text.psBrokenDownTimeStr
                0x0000000000074240       0x30 ../../core/libcore_s.a(corelib_date.o)
                0x0000000000074240                psBrokenDownTimeStr
 .text.psBrokenDownTimeImport
                0x0000000000074270      0x3f2 ../../core/libcore_s.a(corelib_date.o)
                0x0000000000074270                psBrokenDownTimeImport
 *fill*         0x0000000000074662        0xe 
 .text.psBrokenDownTimeCmp
                0x0000000000074670       0x84 ../../core/libcore_s.a(corelib_date.o)
                0x0000000000074670                psBrokenDownTimeCmp
 *fill*         0x00000000000746f4        0xc 
 .text.psToUtfXString
                0x0000000000074700      0x56d ../../core/libcore_s.a(corelib_strings.o)
 *fill*         0x0000000000074c6d        0x3 
 .text.psMem2Str
                0x0000000000074c70       0x33 ../../core/libcore_s.a(corelib_strings.o)
                0x0000000000074c70                psMem2Str
 *fill*         0x0000000000074ca3        0xd 
 .text.memcmpct
                0x0000000000074cb0       0x2a ../../core/libcore_s.a(corelib_strings.o)
                0x0000000000074cb0                memcmpct
 *fill*         0x0000000000074cda        0x6 
 .text.psToUtf8String
                0x0000000000074ce0       0x19 ../../core/libcore_s.a(corelib_strings.o)
                0x0000000000074ce0                psToUtf8String
 *fill*         0x0000000000074cf9        0x7 
 .text.psHexToBinary
                0x0000000000074d00       0x8a ../../core/libcore_s.a(corelib_strings.o)
                0x0000000000074d00                psHexToBinary
 *fill*         0x0000000000074d8a        0x6 
 .text.psFreeList
                0x0000000000074d90       0x49 ../../core/libcore_s.a(corelib_list.o)
                0x0000000000074d90                psFreeList
 *fill*         0x0000000000074dd9        0x7 
 .text.assert_subbuf
                0x0000000000074de0       0xbf ../../core/libcore_s.a(psbuf.o)
 *fill*         0x0000000000074e9f        0x1 
 .text.psBufInit
                0x0000000000074ea0       0x36 ../../core/libcore_s.a(psbuf.o)
                0x0000000000074ea0                psBufInit
 *fill*         0x0000000000074ed6        0xa 
 .text.psBufUninit
                0x0000000000074ee0       0x39 ../../core/libcore_s.a(psbuf.o)
                0x0000000000074ee0                psBufUninit
 *fill*         0x0000000000074f19        0x7 
 .text.psBufDetach
                0x0000000000074f20       0x6a ../../core/libcore_s.a(psbuf.o)
                0x0000000000074f20                psBufDetach
 *fill*         0x0000000000074f8a        0x6 
 .text.psBufFromStaticData
                0x0000000000074f90       0x38 ../../core/libcore_s.a(psbuf.o)
                0x0000000000074f90                psBufFromStaticData
 *fill*         0x0000000000074fc8        0x8 
 .text.psBufAppendSize
                0x0000000000074fd0       0x27 ../../core/libcore_s.a(psbuf.o)
                0x0000000000074fd0                psBufAppendSize
 *fill*         0x0000000000074ff7        0x9 
 .text.psBufReservePrepend
                0x0000000000075000       0x49 ../../core/libcore_s.a(psbuf.o)
                0x0000000000075000                psBufReservePrepend
 *fill*         0x0000000000075049        0x7 
 .text.psDynBufGrow
                0x0000000000075050      0x2ad ../../core/libcore_s.a(psbuf.o)
 *fill*         0x00000000000752fd        0x3 
 .text.psDynBufInit
                0x0000000000075300       0x33 ../../core/libcore_s.a(psbuf.o)
                0x0000000000075300                psDynBufInit
 *fill*         0x0000000000075333        0xd 
 .text.psDynBufUninit
                0x0000000000075340       0x2d ../../core/libcore_s.a(psbuf.o)
                0x0000000000075340                psDynBufUninit
 *fill*         0x000000000007536d        0x3 
 .text.psDynBufDetach
                0x0000000000075370       0x39 ../../core/libcore_s.a(psbuf.o)
                0x0000000000075370                psDynBufDetach
 *fill*         0x00000000000753a9        0x7 
 .text.psDynBufDetachPsSize
                0x00000000000753b0       0x79 ../../core/libcore_s.a(psbuf.o)
                0x00000000000753b0                psDynBufDetachPsSize
 *fill*         0x0000000000075429        0x7 
 .text.psDynBufAppendSize
                0x0000000000075430       0x69 ../../core/libcore_s.a(psbuf.o)
                0x0000000000075430                psDynBufAppendSize
 *fill*         0x0000000000075499        0x7 
 .text.psDynBufAppendAsBigEndianUint16
                0x00000000000754a0       0x1f ../../core/libcore_s.a(psbuf.o)
                0x00000000000754a0                psDynBufAppendAsBigEndianUint16
 *fill*         0x00000000000754bf        0x1 
 .text.psDynBufAppendAsBigEndianUint32
                0x00000000000754c0       0x1c ../../core/libcore_s.a(psbuf.o)
                0x00000000000754c0                psDynBufAppendAsBigEndianUint32
 *fill*         0x00000000000754dc        0x4 
 .text.psDynBufAppendUtf8
                0x00000000000754e0       0xef ../../core/libcore_s.a(psbuf.o)
                0x00000000000754e0                psDynBufAppendUtf8
 *fill*         0x00000000000755cf        0x1 
 .text.psDynBufAppendUtf16
                0x00000000000755d0       0xbd ../../core/libcore_s.a(psbuf.o)
                0x00000000000755d0                psDynBufAppendUtf16
 *fill*         0x000000000007568d        0x3 
 .text.psDynBufAppendUtf32
                0x0000000000075690       0x27 ../../core/libcore_s.a(psbuf.o)
                0x0000000000075690                psDynBufAppendUtf32
 *fill*         0x00000000000756b7        0x9 
 .text.psDynBufAppendTlsVector
                0x00000000000756c0       0xf0 ../../core/libcore_s.a(psbuf.o)
                0x00000000000756c0                psDynBufAppendTlsVector
 .text.psParseBufFromStaticData
                0x00000000000757b0       0x2c ../../core/libcore_s.a(psbuf.o)
                0x00000000000757b0                psParseBufFromStaticData
 *fill*         0x00000000000757dc        0x4 
 .text.psParseBufGetTagLen
                0x00000000000757e0       0xfb ../../core/libcore_s.a(psbuf.o)
                0x00000000000757e0                psParseBufGetTagLen
 *fill*         0x00000000000758db        0x5 
 .text.psParseBufTrySkipBytes
                0x00000000000758e0       0x5a ../../core/libcore_s.a(psbuf.o)
                0x00000000000758e0                psParseBufTrySkipBytes
 *fill*         0x000000000007593a        0x6 
 .text.psParseBufSkipBytes
                0x0000000000075940       0x18 ../../core/libcore_s.a(psbuf.o)
                0x0000000000075940                psParseBufSkipBytes
 *fill*         0x0000000000075958        0x8 
 .text.psParseBufTryReadTagSub
                0x0000000000075960       0xc8 ../../core/libcore_s.a(psbuf.o)
                0x0000000000075960                psParseBufTryReadTagSub
 *fill*         0x0000000000075a28        0x8 
 .text.psParseBufReadTagSub
                0x0000000000075a30       0x44 ../../core/libcore_s.a(psbuf.o)
                0x0000000000075a30                psParseBufReadTagSub
 *fill*         0x0000000000075a74        0xc 
 .text.psParseBufReadTagRef
                0x0000000000075a80       0x6e ../../core/libcore_s.a(psbuf.o)
                0x0000000000075a80                psParseBufReadTagRef
 *fill*         0x0000000000075aee        0x2 
 .text.psParseBufCopyN
                0x0000000000075af0       0x68 ../../core/libcore_s.a(psbuf.o)
                0x0000000000075af0                psParseBufCopyN
 *fill*         0x0000000000075b58        0x8 
 .text.psParseBufCheckState
                0x0000000000075b60        0xc ../../core/libcore_s.a(psbuf.o)
                0x0000000000075b60                psParseBufCheckState
 *fill*         0x0000000000075b6c        0x4 
 .text.psParseBufFinish
                0x0000000000075b70       0x76 ../../core/libcore_s.a(psbuf.o)
                0x0000000000075b70                psParseBufFinish
 *fill*         0x0000000000075be6        0xa 
 .text.psParseBufTrySkipTag
                0x0000000000075bf0       0x5f ../../core/libcore_s.a(psbuf.o)
                0x0000000000075bf0                psParseBufTrySkipTag
 *fill*         0x0000000000075c4f        0x1 
 .text.psParseBufCanReadUtf8
                0x0000000000075c50       0x77 ../../core/libcore_s.a(psbuf.o)
                0x0000000000075c50                psParseBufCanReadUtf8
 *fill*         0x0000000000075cc7        0x9 
 .text.psParseBufReadUtf8
                0x0000000000075cd0      0x1be ../../core/libcore_s.a(psbuf.o)
                0x0000000000075cd0                psParseBufReadUtf8
 *fill*         0x0000000000075e8e        0x2 
 .text.psParseTlsVariableLengthVec
                0x0000000000075e90       0xb6 ../../core/libcore_s.a(psbuf.o)
                0x0000000000075e90                psParseTlsVariableLengthVec
 *fill*         0x0000000000075f46        0xa 
 .text.psStatCompByteSeq
                0x0000000000075f50      0x39b ../../core/libcore_s.a(psStat.o)
                0x0000000000075f50                psStatCompByteSeq
 *fill*         0x00000000000762eb        0x5 
 .text.psStatPrintHexSimple
                0x00000000000762f0       0x78 ../../core/libcore_s.a(psStat.o)
                0x00000000000762f0                psStatPrintHexSimple
 *fill*         0x0000000000076368        0x8 
 .text.psStatPrintCompByteSeqResult
                0x0000000000076370      0x2ac ../../core/libcore_s.a(psStat.o)
                0x0000000000076370                psStatPrintCompByteSeqResult
 *fill*         0x000000000007661c        0x4 
 .text.osdepTimeOpen
                0x0000000000076620        0x7 ../../core/libcore_s.a(osdep.o)
                0x0000000000076620                osdepTimeOpen
 *fill*         0x0000000000076627        0x9 
 .text.osdepTimeClose
                0x0000000000076630        0x5 ../../core/libcore_s.a(osdep.o)
                0x0000000000076630                osdepTimeClose
 *fill*         0x0000000000076635        0xb 
 .text.psGetTime
                0x0000000000076640       0x4e ../../core/libcore_s.a(osdep.o)
                0x0000000000076640                psGetTime
 *fill*         0x000000000007668e        0x2 
 .text.psDiffMsecs
                0x0000000000076690       0x3f ../../core/libcore_s.a(osdep.o)
                0x0000000000076690                psDiffMsecs
 *fill*         0x00000000000766cf        0x1 
 .text.osdepMutexOpen
                0x00000000000766d0        0x7 ../../core/libcore_s.a(osdep.o)
                0x00000000000766d0                osdepMutexOpen
 *fill*         0x00000000000766d7        0x9 
 .text.osdepMutexClose
                0x00000000000766e0        0x5 ../../core/libcore_s.a(osdep.o)
                0x00000000000766e0                osdepMutexClose
 *fill*         0x00000000000766e5        0xb 
 .text.psLockMutex
                0x00000000000766f0       0x1a ../../core/libcore_s.a(osdep.o)
                0x00000000000766f0                psLockMutex
 *fill*         0x000000000007670a        0x6 
 .text.psUnlockMutex
                0x0000000000076710       0x1a ../../core/libcore_s.a(osdep.o)
                0x0000000000076710                psUnlockMutex
 *fill*         0x000000000007672a        0x6 
 .text.psDestroyMutex
                0x0000000000076730        0x9 ../../core/libcore_s.a(osdep.o)
                0x0000000000076730                psDestroyMutex
 *fill*         0x0000000000076739        0x7 
 .text.osdepEntropyClose
                0x0000000000076740       0x3b ../../core/libcore_s.a(osdep.o)
                0x0000000000076740                osdepEntropyClose
 *fill*         0x000000000007677b        0x5 
 .text.psGetEntropy
                0x0000000000076780      0x1d5 ../../core/libcore_s.a(osdep.o)
                0x0000000000076780                psGetEntropy
 *fill*         0x0000000000076955        0xb 
 .text._psGetTraceFile
                0x0000000000076960      0x169 ../../core/libcore_s.a(osdep.o)
                0x0000000000076960                _psGetTraceFile
 *fill*         0x0000000000076ac9        0x7 
 .text._psTrace
                0x0000000000076ad0       0x22 ../../core/libcore_s.a(osdep.o)
                0x0000000000076ad0                _psTrace
 *fill*         0x0000000000076af2        0xe 
 .text._psTraceStr
                0x0000000000076b00       0x63 ../../core/libcore_s.a(osdep.o)
                0x0000000000076b00                _psTraceStr
 *fill*         0x0000000000076b63        0xd 
 .text._psTraceInt
                0x0000000000076b70       0x49 ../../core/libcore_s.a(osdep.o)
                0x0000000000076b70                _psTraceInt
 *fill*         0x0000000000076bb9        0x7 
 .text.psCreateMutex
                0x0000000000076bc0      0x1ab ../../core/libcore_s.a(osdep.o)
                0x0000000000076bc0                psCreateMutex
 *fill*         0x0000000000076d6b        0x5 
 .text.osdepEntropyOpen
                0x0000000000076d70       0x94 ../../core/libcore_s.a(osdep.o)
                0x0000000000076d70                osdepEntropyOpen
 *fill*         0x0000000000076e04        0xc 
 .text.SLSodium_memset_as_a_weak_symbol_to_prevent_lto
                0x0000000000076e10       0x19 ../../core/libcore_s.a(cl_memset.o)
                0x0000000000076e10                SLSodium_memset_as_a_weak_symbol_to_prevent_lto
 *fill*         0x0000000000076e29        0x7 
 .text.SLSodium_memset_s_int
                0x0000000000076e30        0xd ../../core/libcore_s.a(cl_memset.o)
                0x0000000000076e30                SLSodium_memset_s_int
 *fill*         0x0000000000076e3d        0x3 
 .text          0x0000000000076e40       0x75 /usr/lib/x86_64-linux-gnu/libc_nonshared.a(elf-init.oS)
                0x0000000000076e40                __libc_csu_init
                0x0000000000076eb0                __libc_csu_fini
 *(.gnu.warning)

.fini           0x0000000000076eb8        0xd
 *(SORT_NONE(.fini))
 .fini          0x0000000000076eb8        0x8 /usr/lib/gcc/x86_64-linux-gnu/11/../../../x86_64-linux-gnu/crti.o
                0x0000000000076eb8                _fini
 .fini          0x0000000000076ec0        0x5 /usr/lib/gcc/x86_64-linux-gnu/11/../../../x86_64-linux-gnu/crtn.o
                [!provide]                        PROVIDE (__etext = .)
                [!provide]                        PROVIDE (_etext = .)
                [!provide]                        PROVIDE (etext = .)
                0x0000000000077000                . = ALIGN (CONSTANT (MAXPAGESIZE))
                0x0000000000077000                . = SEGMENT_START ("rodata-segment", (ALIGN (CONSTANT (MAXPAGESIZE)) + (. & (CONSTANT (MAXPAGESIZE) - 0x1))))

.rodata         0x0000000000077000    0x1d600
 *(.rodata .rodata.* .gnu.linkonce.r.*)
 .rodata.performHandshake.str1.8
                0x0000000000077000       0x2a sslTest.o
 *fill*         0x000000000007702a        0x6 
 .rodata.tls13PerformHandshake.str1.8
                0x0000000000077030       0xbb sslTest.o
 .rodata.tls13PerformHandshake.str1.1
                0x00000000000770eb        0xd sslTest.o
 .rodata.initializeClient.str1.1
                0x00000000000770f8        0xa sslTest.o
 .rodata.initializeClientAuthHandshake.str1.1
                0x0000000000077102       0x1f sslTest.o
 *fill*         0x0000000000077121        0x7 
 .rodata.tls13InitializeServer.str1.8
                0x0000000000077128       0x5c sslTest.o
 .rodata.identityCb.str1.1
                0x0000000000077184        0xa sslTest.o
 *fill*         0x000000000007718e        0x2 
 .rodata.identityCb.str1.8
                0x0000000000077190       0x23 sslTest.o
 *fill*         0x00000000000771b3        0x5 
 .rodata.exchangeAppData.part.0.constprop.0.str1.8
                0x00000000000771b8       0x61 sslTest.o
 .rodata.exchangeAppData.part.0.constprop.0.str1.1
                0x0000000000077219       0x13 sslTest.o
 .rodata.parse_args.str1.1
                0x000000000007722c       0x23 sslTest.o
 *fill*         0x000000000007724f        0x1 
 .rodata.parse_args.str1.8
                0x0000000000077250       0x2e sslTest.o
 .rodata.testCiphersuite.str1.1
                0x000000000007727e       0x10 sslTest.o
 .rodata.testProtocolVersion.str1.1
                0x000000000007728e       0x3b sslTest.o
                                         0x4b (size before relaxing)
 *fill*         0x00000000000772c9        0x7 
 .rodata.sslTest.str1.8
                0x00000000000772d0      0x36f sslTest.o
                                        0x39f (size before relaxing)
 .rodata.sslTest.str1.1
                0x000000000007763f      0x118 sslTest.o
 *fill*         0x0000000000077757        0x1 
 .rodata.tls13sslTest.str1.8
                0x0000000000077758      0x25d sslTest.o
                                        0x27d (size before relaxing)
 .rodata.tls13sslTest.str1.1
                0x00000000000779b5       0x18 sslTest.o
 .rodata.invokeSslTest.str1.1
                0x00000000000779cd       0x10 sslTest.o
 .rodata.main.str1.1
                0x00000000000779dd       0x57 sslTest.o
 *fill*         0x0000000000077a34        0x4 
 .rodata.main.str1.8
                0x0000000000077a38       0xe1 sslTest.o
 *fill*         0x0000000000077b19        0x7 
 .rodata.__PRETTY_FUNCTION__.0
                0x0000000000077b20        0xb sslTest.o
 .rodata.g_tls13_test_psk_id
                0x0000000000077b2b        0x5 sslTest.o
 *fill*         0x0000000000077b30       0x10 
 .rodata.g_tls13_test_psk_384
                0x0000000000077b40       0x30 sslTest.o
 *fill*         0x0000000000077b70       0x10 
 .rodata.g_tls13_test_psk_256
                0x0000000000077b80       0x20 sslTest.o
 .rodata.DHPARAM4096
                0x0000000000077ba0      0x20c sslTest.o
 *fill*         0x0000000000077dac       0x14 
 .rodata.DHPARAM3072
                0x0000000000077dc0      0x18c sslTest.o
 *fill*         0x0000000000077f4c       0x14 
 .rodata.DHPARAM2048
                0x0000000000077f60      0x10c sslTest.o
 *fill*         0x000000000007806c       0x14 
 .rodata.DHPARAM1024
                0x0000000000078080       0x8a sslTest.o
 *fill*         0x000000000007810a       0x16 
 .rodata.ECDHRSACAS
                0x0000000000078120      0x7e9 sslTest.o
 *fill*         0x0000000000078909       0x17 
 .rodata.ECDHRSA256
                0x0000000000078920      0x349 sslTest.o
 *fill*         0x0000000000078c69       0x17 
 .rodata.ECDHRSA256KEY
                0x0000000000078c80       0x79 sslTest.o
 *fill*         0x0000000000078cf9        0x7 
 .rodata.EC521CA
                0x0000000000078d00      0x365 sslTest.o
 *fill*         0x0000000000079065       0x1b 
 .rodata.EC521  0x0000000000079080      0x384 sslTest.o
 *fill*         0x0000000000079404       0x1c 
 .rodata.EC521KEY
                0x0000000000079420       0xdf sslTest.o
 *fill*         0x00000000000794ff        0x1 
 .rodata.EC384CA
                0x0000000000079500      0x31a sslTest.o
 *fill*         0x000000000007981a        0x6 
 .rodata.EC384  0x0000000000079820      0x33a sslTest.o
 *fill*         0x0000000000079b5a        0x6 
 .rodata.EC384KEY
                0x0000000000079b60       0xa7 sslTest.o
 *fill*         0x0000000000079c07       0x19 
 .rodata.EC256CA
                0x0000000000079c20      0x2de sslTest.o
 *fill*         0x0000000000079efe        0x2 
 .rodata.EC256  0x0000000000079f00      0x2fd sslTest.o
 *fill*         0x000000000007a1fd        0x3 
 .rodata.EC256KEY
                0x000000000007a200       0x79 sslTest.o
 *fill*         0x000000000007a279        0x7 
 .rodata.EC224CA
                0x000000000007a280      0x2cb sslTest.o
 *fill*         0x000000000007a54b       0x15 
 .rodata.EC224  0x000000000007a560      0x2e9 sslTest.o
 *fill*         0x000000000007a849       0x17 
 .rodata.EC224KEY
                0x000000000007a860       0x6a sslTest.o
 *fill*         0x000000000007a8ca       0x16 
 .rodata.EC192CA
                0x000000000007a8e0      0x2bd sslTest.o
 *fill*         0x000000000007ab9d        0x3 
 .rodata.EC192  0x000000000007aba0      0x2dd sslTest.o
 *fill*         0x000000000007ae7d        0x3 
 .rodata.EC192KEY
                0x000000000007ae80       0x61 sslTest.o
 *fill*         0x000000000007aee1       0x1f 
 .rodata.RSA4096CA
                0x000000000007af00      0x66d sslTest.o
 *fill*         0x000000000007b56d       0x13 
 .rodata.RSA4096
                0x000000000007b580      0x68c sslTest.o
 *fill*         0x000000000007bc0c       0x14 
 .rodata.RSA4096KEY
                0x000000000007bc20      0x92d sslTest.o
 *fill*         0x000000000007c54d       0x13 
 .rodata.RSA3072CA
                0x000000000007c560      0x56d sslTest.o
 *fill*         0x000000000007cacd       0x13 
 .rodata.RSA3072
                0x000000000007cae0      0x58c sslTest.o
 *fill*         0x000000000007d06c       0x14 
 .rodata.RSA3072KEY
                0x000000000007d080      0x6e9 sslTest.o
 *fill*         0x000000000007d769       0x17 
 .rodata.RSA2048CA
                0x000000000007d780      0x46d sslTest.o
 *fill*         0x000000000007dbed       0x13 
 .rodata.RSA2048
                0x000000000007dc00      0x48c sslTest.o
 *fill*         0x000000000007e08c       0x14 
 .rodata.RSA2048KEY
                0x000000000007e0a0      0x4a7 sslTest.o
 *fill*         0x000000000007e547       0x19 
 .rodata.RSA1024CA
                0x000000000007e560      0x368 sslTest.o
 *fill*         0x000000000007e8c8       0x18 
 .rodata.RSA1024
                0x000000000007e8e0      0x387 sslTest.o
 *fill*         0x000000000007ec67       0x19 
 .rodata.RSA1024KEY
                0x000000000007ec80      0x261 sslTest.o
 *fill*         0x000000000007eee1       0x1f 
 .rodata.PSK_HEADER_TABLE
                0x000000000007ef00       0x80 sslTest.o
 .rodata.csChacha20Poly1305IetfInit.str1.1
                0x000000000007ef80       0x1f ../libssl_s.a(cipherSuite.o)
 *fill*         0x000000000007ef9f        0x1 
 .rodata.csChacha20Poly1305IetfInit.str1.8
                0x000000000007efa0       0x2d ../libssl_s.a(cipherSuite.o)
 *fill*         0x000000000007efcd        0x3 
 .rodata.CSWTCH.59
                0x000000000007efd0       0x12 ../libssl_s.a(cipherSuite.o)
 *fill*         0x000000000007efe2        0xe 
 .rodata.CSWTCH.58
                0x000000000007eff0       0x12 ../libssl_s.a(cipherSuite.o)
 .rodata.tlsGenerateFinishedHash.str1.1
                0x000000000007f002       0x20 ../libssl_s.a(hsHash.o)
 *fill*         0x000000000007f022        0x2 
 .rodata.psEncodeVersionMin
                0x000000000007f024       0x84 ../libssl_s.a(hsNegotiateVersion.o)
 .rodata.psEncodeVersionMaj
                0x000000000007f0a8       0x84 ../libssl_s.a(hsNegotiateVersion.o)
 .rodata.psVerFromEncoding
                0x000000000007f12c       0x2c ../libssl_s.a(hsNegotiateVersion.o)
 .rodata.psVerFromEncodingMajMin
                0x000000000007f158       0x2c ../libssl_s.a(hsNegotiateVersion.o)
 *fill*         0x000000000007f184        0xc 
 .rodata.cst16  0x000000000007f190       0x10 ../libssl_s.a(hsNegotiateVersion.o)
 .rodata.cst8   0x000000000007f1a0        0x8 ../libssl_s.a(hsNegotiateVersion.o)
 .rodata.matrixSslOpenWithConfig.str1.1
                0x000000000007f1a8       0x2e ../libssl_s.a(matrixssl.o)
                                         0x33 (size before relaxing)
 *fill*         0x000000000007f1d6        0x2 
 .rodata.matrixSslOpenWithConfig.str1.8
                0x000000000007f1d8       0x3f ../libssl_s.a(matrixssl.o)
 *fill*         0x000000000007f217        0x1 
 .rodata.matrixValidateCertsExt.str1.8
                0x000000000007f218       0x2b ../libssl_s.a(matrixssl.o)
 .rodata.matrixValidateCertsExt.str1.1
                0x000000000007f243        0xc ../libssl_s.a(matrixssl.o)
 *fill*         0x000000000007f24f        0x1 
 .rodata.cst16  0x000000000007f250       0x10 ../libssl_s.a(matrixssl.o)
 .rodata.cst8   0x000000000007f260       0x10 ../libssl_s.a(matrixssl.o)
 .rodata.matrixSslLoadKeyMaterialMem.str1.1
                0x000000000007f270       0x19 ../libssl_s.a(matrixsslKeys.o)
                                         0x2a (size before relaxing)
 *fill*         0x000000000007f289       0x17 
 .rodata.matrixCurveIdFlag
                0x000000000007f2a0       0x50 ../libssl_s.a(matrixsslKeys.o)
 .rodata.matrixSslNewClientSession.str1.1
                0x000000000007f2f0       0x24 ../libssl_s.a(matrixsslApi.o)
                                         0x35 (size before relaxing)
 *fill*         0x000000000007f314        0x4 
 .rodata.matrixSslGetReadbuf.str1.8
                0x000000000007f318       0x2d ../libssl_s.a(matrixsslApi.o)
 *fill*         0x000000000007f345        0x3 
 .rodata.matrixSslGetOutdata.str1.8
                0x000000000007f348       0x28 ../libssl_s.a(matrixsslApi.o)
 .rodata.matrixSslGetWritebuf.str1.1
                0x000000000007f370       0x1c ../libssl_s.a(matrixsslApi.o)
 .rodata.matrixSslEncodeWritebuf.str1.1
                0x000000000007f38c        0xf ../libssl_s.a(matrixsslApi.o)
 *fill*         0x000000000007f39b        0x5 
 .rodata.matrixSslReceivedData.str1.8
                0x000000000007f3a0       0x4d ../libssl_s.a(matrixsslApi.o)
 .rodata.matrixSslReceivedData.str1.1
                0x000000000007f3ed       0x8d ../libssl_s.a(matrixsslApi.o)
                                         0x8f (size before relaxing)
 *fill*         0x000000000007f47a        0x2 
 .rodata.matrixSslReceivedData
                0x000000000007f47c       0xf8 ../libssl_s.a(matrixsslApi.o)
 .rodata.addVersion.str1.1
                0x000000000007f574       0x13 ../libssl_s.a(matrixsslInitVer.o)
                                         0x24 (size before relaxing)
 *fill*         0x000000000007f587        0x1 
 .rodata.addVersion.str1.8
                0x000000000007f588       0x3f ../libssl_s.a(matrixsslInitVer.o)
 .rodata.prf.str1.1
                0x000000000007f5c7       0x12 ../libssl_s.a(prf.o)
                                         0x23 (size before relaxing)
 *fill*         0x000000000007f5d9        0x7 
 .rodata.prf.str1.8
                0x000000000007f5e0       0x21 ../libssl_s.a(prf.o)
 *fill*         0x000000000007f601        0xf 
 .rodata.cst16  0x000000000007f610       0x30 ../libssl_s.a(prf.o)
 .rodata.matrixSslDecode.str1.1
                0x000000000007f640       0x3f ../libssl_s.a(sslDecode.o)
                                         0x61 (size before relaxing)
 *fill*         0x000000000007f67f        0x1 
 .rodata.matrixSslDecode.str1.8
                0x000000000007f680       0x70 ../libssl_s.a(sslDecode.o)
 .rodata.matrixSslDecode
                0x000000000007f6f0       0x5c ../libssl_s.a(sslDecode.o)
 *fill*         0x000000000007f74c        0x4 
 .rodata.cst16  0x000000000007f750       0x10 ../libssl_s.a(sslDecode.o)
 .rodata.nowDoCkePka.str1.1
                0x000000000007f760        0xc ../libssl_s.a(sslEncode.o)
                                         0x1f (size before relaxing)
 *fill*         0x000000000007f76c        0x4 
 .rodata.nowDoCkePka.str1.8
                0x000000000007f770       0xa3 ../libssl_s.a(sslEncode.o)
 .rodata.accountForEcdsaSizeChange.str1.1
                0x000000000007f813       0x12 ../libssl_s.a(sslEncode.o)
 *fill*         0x000000000007f825        0x3 
 .rodata.writeServerKeyExchange.str1.8
                0x000000000007f828       0x22 ../libssl_s.a(sslEncode.o)
 .rodata.writeCertificate.part.0.str1.1
                0x000000000007f84a       0x1a ../libssl_s.a(sslEncode.o)
 .rodata.writeClientKeyExchange.str1.1
                0x000000000007f864       0x2d ../libssl_s.a(sslEncode.o)
 *fill*         0x000000000007f891        0x7 
 .rodata.matrixSslEncode.str1.8
                0x000000000007f898       0x29 ../libssl_s.a(sslEncode.o)
 *fill*         0x000000000007f8c1        0x3 
 .rodata.sslEncodeResponse
                0x000000000007f8c4       0x54 ../libssl_s.a(sslEncode.o)
 .rodata.cst8   0x000000000007f918        0x8 ../libssl_s.a(sslEncode.o)
 .rodata.allSigAlgs
                0x000000000007f920       0x20 ../libssl_s.a(tlsDefaults.o)
 .rodata.tls13SigAlgs
                0x000000000007f940       0x16 ../libssl_s.a(tlsDefaults.o)
 *fill*         0x000000000007f956        0xa 
 .rodata.tls12SigAlgs
                0x000000000007f960       0x12 ../libssl_s.a(tlsDefaults.o)
 *fill*         0x000000000007f972        0x6 
 .rodata.cst8   0x000000000007f978        0x8 ../libssl_s.a(tlsDefaults.o)
 .rodata.tlsVerify.str1.1
                0x000000000007f980       0x20 ../libssl_s.a(tlsSigVer.o)
                                         0x31 (size before relaxing)
 .rodata.chooseSigAlgInt
                0x000000000007f9a0       0x30 ../libssl_s.a(tlsSigVer.o)
 .rodata.chooseSigAlg
                0x000000000007f9d0       0x30 ../libssl_s.a(tlsSigVer.o)
 .rodata.CSWTCH.36
                0x000000000007fa00       0x18 ../libssl_s.a(tlsSigVer.o)
 .rodata.tls13GetPadLen.str1.1
                0x000000000007fa18       0x1f ../libssl_s.a(tls13Encode.o)
                                         0x30 (size before relaxing)
 *fill*         0x000000000007fa37        0x1 
 .rodata.tls13GetPadLen.str1.8
                0x000000000007fa38       0x95 ../libssl_s.a(tls13Encode.o)
 .rodata.tls13WriteCertificate.str1.1
                0x000000000007facd       0x17 ../libssl_s.a(tls13Encode.o)
 *fill*         0x000000000007fae4        0x4 
 .rodata.tls13WriteCertificateVerify.str1.8
                0x000000000007fae8       0x4a ../libssl_s.a(tls13Encode.o)
 .rodata.tls13WriteCertificateVerify.str1.1
                0x000000000007fb32       0x1a ../libssl_s.a(tls13Encode.o)
 *fill*         0x000000000007fb4c        0x4 
 .rodata.cst16  0x000000000007fb50       0x20 ../libssl_s.a(tls13Encode.o)
 .rodata.tls13WriteCookie.str1.1
                0x000000000007fb70       0x3d ../libssl_s.a(tls13EncodeExt.o)
                                         0x4e (size before relaxing)
 .rodata.tls13WritePreSharedKey.constprop.0.str1.1
                0x000000000007fbad       0x18 ../libssl_s.a(tls13EncodeExt.o)
 .rodata.tls13FillInPskBinders.str1.1
                0x000000000007fbc5       0x15 ../libssl_s.a(tls13EncodeExt.o)
 *fill*         0x000000000007fbda        0x6 
 .rodata.tls13FillInPskBinders.str1.8
                0x000000000007fbe0       0x2d ../libssl_s.a(tls13EncodeExt.o)
 *fill*         0x000000000007fc0d        0x3 
 .rodata.tls13WriteOCSPStatusRequest.str1.8
                0x000000000007fc10       0x40 ../libssl_s.a(tls13EncodeExt.o)
 .rodata.tls13WriteClientHelloExtensions.str1.8
                0x000000000007fc50       0x26 ../libssl_s.a(tls13EncodeExt.o)
 *fill*         0x000000000007fc76        0x2 
 .rodata.matrixSslDecodeTls13.str1.8
                0x000000000007fc78      0x122 ../libssl_s.a(tls13Decode.o)
                                        0x172 (size before relaxing)
 .rodata.matrixSslDecodeTls13.str1.1
                0x000000000007fd9a       0x80 ../libssl_s.a(tls13Decode.o)
                                         0x91 (size before relaxing)
 *fill*         0x000000000007fe1a        0x6 
 .rodata.sha256OfHelloRetryRequest
                0x000000000007fe20       0x20 ../libssl_s.a(tls13Decode.o)
 .rodata.tls13ExtensionAllowedInMessage
                0x000000000007fe40       0x60 ../libssl_s.a(tls13DecodeExt.o)
 .rodata.tls13ParsePskKeyExchangeModes.str1.1
                0x000000000007fea0       0x17 ../libssl_s.a(tls13DecodeExt.o)
                                         0x37 (size before relaxing)
 *fill*         0x000000000007feb7        0x1 
 .rodata.tls13ParseCookie.str1.8
                0x000000000007feb8       0x20 ../libssl_s.a(tls13DecodeExt.o)
 .rodata.tls13ParseCookie.str1.1
                0x000000000007fed8       0x17 ../libssl_s.a(tls13DecodeExt.o)
 .rodata.tls13ParseEarlyData.str1.1
                0x000000000007feef       0x10 ../libssl_s.a(tls13DecodeExt.o)
 .rodata.tls13ParseServerHelloExtensions.str1.1
                0x000000000007feff       0x1d ../libssl_s.a(tls13DecodeExt.o)
 .rodata.tls13ParseServerHelloExtensions
                0x000000000007ff1c       0x60 ../libssl_s.a(tls13DecodeExt.o)
 .rodata.tls13GenerateKeyForGroup.str1.1
                0x000000000007ff7c       0x10 ../libssl_s.a(tls13KeyAgree.o)
                                         0x21 (size before relaxing)
 *fill*         0x000000000007ff8c        0x4 
 .rodata.tls13GenerateKeyForGroup.str1.8
                0x000000000007ff90       0x1f ../libssl_s.a(tls13KeyAgree.o)
 *fill*         0x000000000007ffaf        0x1 
 .rodata.tls13NegotiateGroup.str1.8
                0x000000000007ffb0       0x22 ../libssl_s.a(tls13KeyAgree.o)
 .rodata.tls13GenSharedSecret.str1.1
                0x000000000007ffd2       0x72 ../libssl_s.a(tls13KeyAgree.o)
 *fill*         0x0000000000080044        0x4 
 .rodata.tls13GenSharedSecret.str1.8
                0x0000000000080048       0x22 ../libssl_s.a(tls13KeyAgree.o)
 *fill*         0x000000000008006a       0x16 
 .rodata.ffdhe4096_params
                0x0000000000080080      0x20c ../libssl_s.a(tls13KeyAgree.o)
 *fill*         0x000000000008028c       0x14 
 .rodata.ffdhe3072_params
                0x00000000000802a0      0x18c ../libssl_s.a(tls13KeyAgree.o)
 *fill*         0x000000000008042c       0x14 
 .rodata.ffdhe2048_params
                0x0000000000080440      0x10c ../libssl_s.a(tls13KeyAgree.o)
 .rodata.tls13GenerateEarlySecret.str1.1
                0x000000000008054c       0x2d ../libssl_s.a(tls13KeySchedule.o)
                                         0x3e (size before relaxing)
 .rodata.tls13DeriveEarlySecrets.str1.1
                0x0000000000080579       0x16 ../libssl_s.a(tls13KeySchedule.o)
 .rodata.tls13DeriveHandshakeTrafficSecrets.str1.1
                0x000000000008058f       0x3b ../libssl_s.a(tls13KeySchedule.o)
 .rodata.tls13DeriveAppTrafficSecrets.str1.1
                0x00000000000805ca       0x1a ../libssl_s.a(tls13KeySchedule.o)
 .rodata.tls13DeriveResumptionMasterSecret.str1.1
                0x00000000000805e4        0xb ../libssl_s.a(tls13KeySchedule.o)
 .rodata.tls13DeriveHandshakeKeys.str1.1
                0x00000000000805ef        0x3 ../libssl_s.a(tls13KeySchedule.o)
                                          0x7 (size before relaxing)
 .rodata.tls13DeriveEarlyDataSecret.str1.1
                0x00000000000805f2        0xc ../libssl_s.a(tls13KeySchedule.o)
 .rodata.tls13DeriveBinderKey.str1.1
                0x00000000000805fe        0xc ../libssl_s.a(tls13KeySchedule.o)
                                          0x9 (size before relaxing)
 .rodata.tls13DeriveResumptionPsk.str1.1
                0x00000000000805fe        0xb ../libssl_s.a(tls13Resume.o)
 .rodata.tls13DecryptTicket.str1.1
                0x0000000000080609       0x36 ../libssl_s.a(tls13Resume.o)
 .rodata.tls13ChooseSigAlg.str1.1
                0x000000000008063f        0xe ../libssl_s.a(tls13SigVer.o)
                                         0x1f (size before relaxing)
 *fill*         0x000000000008064d        0x3 
 .rodata.tls13ChooseSigAlg.str1.8
                0x0000000000080650       0x23 ../libssl_s.a(tls13SigVer.o)
 *fill*         0x0000000000080673        0x1 
 .rodata.tls13Sign
                0x0000000000080674       0x20 ../libssl_s.a(tls13SigVer.o)
 *fill*         0x0000000000080694        0x4 
 .rodata.tls13Verify.str1.8
                0x0000000000080698       0xa1 ../libssl_s.a(tls13SigVer.o)
 .rodata.tls13Verify.str1.1
                0x0000000000080739       0x1b ../libssl_s.a(tls13SigVer.o)
 .rodata.tls13Verify
                0x0000000000080754       0x20 ../libssl_s.a(tls13SigVer.o)
 *fill*         0x0000000000080774        0xc 
 .rodata.cst16  0x0000000000080780       0x10 ../libssl_s.a(tls13SigVer.o)
 .rodata.psCopyHelloExtension.str1.1
                0x0000000000080790       0x1c ../libssl_s.a(tls.o)
                                         0x2d (size before relaxing)
 *fill*         0x00000000000807ac        0x4 
 .rodata.psCopyHelloExtension.str1.8
                0x00000000000807b0       0x26 ../libssl_s.a(tls.o)
 *fill*         0x00000000000807d6        0xa 
 .rodata.cst16  0x00000000000807e0       0x10 ../libssl_s.a(tls.o)
 .rodata.parseServerHello.str1.1
                0x00000000000807f0       0x1f ../libssl_s.a(hsDecode.o)
                                         0x30 (size before relaxing)
 .rodata.parseFinished.str1.1
                0x000000000008080f       0x1a ../libssl_s.a(hsDecode.o)
 *fill*         0x0000000000080829        0x3 
 .rodata.parseCertificate
                0x000000000008082c       0x40 ../libssl_s.a(hsDecode.o)
 .rodata.tls13ValidateCertChain
                0x000000000008086c       0x20 ../libssl_s.a(tls13Authenticate.o)
 .rodata.parseClientHelloExtensions
                0x000000000008088c       0xd0 ../libssl_s.a(extDecode.o)
 .rodata.parseServerHelloExtensions
                0x000000000008095c       0x90 ../libssl_s.a(extDecode.o)
 .rodata.psSigAlgToHashLen
                0x00000000000809ec       0x30 ../../crypto/libcrypt_s.a(alg_info.o)
 .rodata.psHashLenToSigAlg.str1.1
                0x0000000000080a1c       0x12 ../../crypto/libcrypt_s.a(alg_info.o)
                                         0x23 (size before relaxing)
 *fill*         0x0000000000080a2e        0x2 
 .rodata.psHashLenToSigAlg.str1.8
                0x0000000000080a30       0x43 ../../crypto/libcrypt_s.a(alg_info.o)
 *fill*         0x0000000000080a73        0xd 
 .rodata.CSWTCH.4
                0x0000000000080a80       0x14 ../../crypto/libcrypt_s.a(alg_info.o)
 *fill*         0x0000000000080a94        0xc 
 .rodata.CSWTCH.1
                0x0000000000080aa0       0x54 ../../crypto/libcrypt_s.a(alg_info.o)
 *fill*         0x0000000000080af4        0xc 
 .rodata.cst16  0x0000000000080b00       0x20 ../../crypto/libcrypt_s.a(aes_aesni.o)
 .rodata.cst16  0x0000000000080b20       0x20 ../../crypto/libcrypt_s.a(sha1.o)
 .rodata.cst8   0x0000000000080b40        0x8 ../../crypto/libcrypt_s.a(sha1.o)
 *fill*         0x0000000000080b48       0x18 
 .rodata.K      0x0000000000080b60      0x100 ../../crypto/libcrypt_s.a(sha256.o)
 .rodata.cst16  0x0000000000080c60       0x20 ../../crypto/libcrypt_s.a(sha256.o)
                                         0x30 (size before relaxing)
 .rodata.psSha512Update.str1.1
                0x0000000000080c80       0x37 ../../crypto/libcrypt_s.a(sha512.o)
                                         0x48 (size before relaxing)
 *fill*         0x0000000000080cb7        0x9 
 .rodata.K      0x0000000000080cc0      0x280 ../../crypto/libcrypt_s.a(sha512.o)
 .rodata.cst16  0x0000000000080f40       0xa0 ../../crypto/libcrypt_s.a(sha512.o)
                                         0xb0 (size before relaxing)
 .rodata.cst16  0x0000000000080fe0       0x10 ../../crypto/libcrypt_s.a(md5.o)
 .rodata.psHmacSingle.str1.1
                0x0000000000080fe0       0x16 ../../crypto/libcrypt_s.a(hmac.o)
                                         0x27 (size before relaxing)
 *fill*         0x0000000000080ff6        0xa 
 .rodata.cst16  0x0000000000081000       0x20 ../../crypto/libcrypt_s.a(hmac.o)
 .rodata.psPemCheckOk.str1.1
                0x0000000000081020       0x46 ../../crypto/libcrypt_s.a(pem_decode_mem.o)
 .rodata.psPemDecode.str1.1
                0x0000000000081066       0x32 ../../crypto/libcrypt_s.a(pem_decode_mem.o)
                                         0x42 (size before relaxing)
 .rodata.psPemDecode.str1.8
                0x0000000000081098       0x32 ../../crypto/libcrypt_s.a(pem_decode_mem.o)
 *fill*         0x00000000000810ca        0x6 
 .rodata.psPemCertBufToList.str1.8
                0x00000000000810d0       0x5b ../../crypto/libcrypt_s.a(pem_decode_mem.o)
 *fill*         0x000000000008112b        0x5 
 .rodata.aes128encryptHeader.0
                0x0000000000081130       0x17 ../../crypto/libcrypt_s.a(pem_decode_mem.o)
 *fill*         0x0000000000081147        0x9 
 .rodata.des3encryptHeader.1
                0x0000000000081150       0x18 ../../crypto/libcrypt_s.a(pem_decode_mem.o)
 .rodata.pkcs12pbe.str1.1
                0x0000000000081168       0x2d ../../crypto/libcrypt_s.a(pkcs.o)
                                         0x3e (size before relaxing)
 .rodata.psPkcs5Pbkdf1.str1.1
                0x0000000000081195        0xa ../../crypto/libcrypt_s.a(pkcs.o)
 *fill*         0x000000000008119f        0x1 
 .rodata.psPkcs5Pbkdf2.str1.8
                0x00000000000811a0       0x20 ../../crypto/libcrypt_s.a(pkcs.o)
 .rodata.CSWTCH.266
                0x00000000000811c0       0x14 ../../crypto/libcrypt_s.a(pkcs.o)
 *fill*         0x00000000000811d4        0xc 
 .rodata.CSWTCH.254
                0x00000000000811e0       0x28 ../../crypto/libcrypt_s.a(pkcs.o)
 .rodata.getImplicitBitString.constprop.0.str1.1
                0x0000000000081208       0x22 ../../crypto/libcrypt_s.a(x509.o)
                                         0x3e (size before relaxing)
 *fill*         0x000000000008122a        0x6 
 .rodata.getImplicitBitString.constprop.0.str1.8
                0x0000000000081230       0x31 ../../crypto/libcrypt_s.a(x509.o)
 *fill*         0x0000000000081261        0x7 
 .rodata.parseGeneralNames.constprop.0.str1.8
                0x0000000000081268       0x2b ../../crypto/libcrypt_s.a(x509.o)
 *fill*         0x0000000000081293        0x1 
 .rodata.parseGeneralNames.constprop.0
                0x0000000000081294       0x24 ../../crypto/libcrypt_s.a(x509.o)
 .rodata.parsePolicyQualifierInfo.constprop.0.str1.1
                0x00000000000812b8       0x16 ../../crypto/libcrypt_s.a(x509.o)
 .rodata.psX509GetSignature.str1.1
                0x00000000000812ce        0x8 ../../crypto/libcrypt_s.a(x509.o)
 *fill*         0x00000000000812d6        0x2 
 .rodata.psX509GetSignature.str1.8
                0x00000000000812d8       0x29 ../../crypto/libcrypt_s.a(x509.o)
 *fill*         0x0000000000081301        0x7 
 .rodata.getSerialNum.str1.8
                0x0000000000081308       0x2b ../../crypto/libcrypt_s.a(x509.o)
 *fill*         0x0000000000081333        0x5 
 .rodata.psX509GetDNAttributes.str1.8
                0x0000000000081338       0x2c ../../crypto/libcrypt_s.a(x509.o)
 .rodata.psX509GetDNAttributes
                0x0000000000081364      0x120 ../../crypto/libcrypt_s.a(x509.o)
 *fill*         0x0000000000081484        0x4 
 .rodata.getExplicitExtensions.str1.8
                0x0000000000081488      0x15d ../../crypto/libcrypt_s.a(x509.o)
 *fill*         0x00000000000815e5        0x3 
 .rodata.getExplicitExtensions
                0x00000000000815e8       0xb4 ../../crypto/libcrypt_s.a(x509.o)
 .rodata.parse_single_cert.str1.1
                0x000000000008169c       0x31 ../../crypto/libcrypt_s.a(x509.o)
 *fill*         0x00000000000816cd        0x3 
 .rodata.parse_single_cert.str1.8
                0x00000000000816d0       0xa9 ../../crypto/libcrypt_s.a(x509.o)
 .rodata        0x0000000000081779        0xd ../../crypto/libcrypt_s.a(x509.o)
 *fill*         0x0000000000081786        0x2 
 .rodata.parse_single_cert
                0x0000000000081788       0x24 ../../crypto/libcrypt_s.a(x509.o)
 *fill*         0x00000000000817ac        0x4 
 .rodata.psX509ParseCert.str1.8
                0x00000000000817b0       0x5b ../../crypto/libcrypt_s.a(x509.o)
 .rodata.psX509FreeCert.str1.1
                0x000000000008180b        0x2 ../../crypto/libcrypt_s.a(x509.o)
 .rodata.ocspParseBasicResponse.constprop.0.str1.1
                0x000000000008180b       0x1e ../../crypto/libcrypt_s.a(x509.o)
 .rodata.psOcspParseResponse.str1.1
                0x0000000000081829        0x9 ../../crypto/libcrypt_s.a(x509.o)
 *fill*         0x0000000000081832        0xe 
 .rodata.oid_list
                0x0000000000081840      0x45c ../../crypto/libcrypt_s.a(x509.o)
 *fill*         0x0000000000081c9c        0x4 
 .rodata.cst8   0x0000000000081ca0        0x8 ../../crypto/libcrypt_s.a(x509.o)
 .rodata.psCryptoOpen.str1.1
                0x0000000000081ca8       0x24 ../../crypto/libcrypt_s.a(matrix.o)
                                         0x40 (size before relaxing)
 *fill*         0x0000000000081ccc        0x4 
 .rodata.psCryptoOpen.str1.8
                0x0000000000081cd0       0x3a ../../crypto/libcrypt_s.a(matrix.o)
 *fill*         0x0000000000081d0a        0x6 
 .rodata.cst16  0x0000000000081d10       0x10 ../../crypto/libcrypt_s.a(matrix.o)
 .rodata.pstm_s_rmap
                0x0000000000081d20       0x40 ../../crypto/libcrypt_s.a(pstm.o)
 .rodata.pstmnt_neg_small_inv.str1.1
                0x0000000000081d60       0x26 ../../crypto/libcrypt_s.a(pstmnt.o)
 .rodata.pstmnt_add.str1.1
                0x0000000000081d86       0x2f ../../crypto/libcrypt_s.a(pstmnt.o)
 .rodata.pstmnt_sub.str1.1
                0x0000000000081db5        0x7 ../../crypto/libcrypt_s.a(pstmnt.o)
 .rodata.pstmnt_square_d.str1.1
                0x0000000000081dbc        0x8 ../../crypto/libcrypt_s.a(pstmnt.o)
 *fill*         0x0000000000081dc4        0x4 
 .rodata.pstmnt_square_d.str1.8
                0x0000000000081dc8       0x26 ../../crypto/libcrypt_s.a(pstmnt.o)
 .rodata.pstmnt_mult.str1.1
                0x0000000000081dee       0x21 ../../crypto/libcrypt_s.a(pstmnt.o)
 *fill*         0x0000000000081e0f        0x1 
 .rodata.__PRETTY_FUNCTION__.0
                0x0000000000081e10        0xf ../../crypto/libcrypt_s.a(pstmnt.o)
 *fill*         0x0000000000081e1f        0x1 
 .rodata.__PRETTY_FUNCTION__.1
                0x0000000000081e20        0xc ../../crypto/libcrypt_s.a(pstmnt.o)
 *fill*         0x0000000000081e2c        0x4 
 .rodata.__PRETTY_FUNCTION__.2
                0x0000000000081e30        0xe ../../crypto/libcrypt_s.a(pstmnt.o)
 *fill*         0x0000000000081e3e        0x2 
 .rodata.__PRETTY_FUNCTION__.3
                0x0000000000081e40       0x10 ../../crypto/libcrypt_s.a(pstmnt.o)
 .rodata.__PRETTY_FUNCTION__.4
                0x0000000000081e50        0xb ../../crypto/libcrypt_s.a(pstmnt.o)
 *fill*         0x0000000000081e5b        0x5 
 .rodata.__PRETTY_FUNCTION__.5
                0x0000000000081e60        0xb ../../crypto/libcrypt_s.a(pstmnt.o)
 *fill*         0x0000000000081e6b        0x5 
 .rodata.__PRETTY_FUNCTION__.6
                0x0000000000081e70       0x15 ../../crypto/libcrypt_s.a(pstmnt.o)
 .rodata.psDhClearKey.str1.1
                0x0000000000081e85        0xc ../../crypto/libcrypt_s.a(dh.o)
                                         0x21 (size before relaxing)
 .rodata.psDhExportParameters.str1.1
                0x0000000000081e91       0x13 ../../crypto/libcrypt_s.a(dh_params.o)
                                         0x23 (size before relaxing)
 *fill*         0x0000000000081ea4        0x4 
 .rodata.psDhExportParameters.str1.8
                0x0000000000081ea8       0x31 ../../crypto/libcrypt_s.a(dh_params.o)
 .rodata.psDhGenKeyIntsSize.str1.1
                0x0000000000081ed9       0x31 ../../crypto/libcrypt_s.a(dh_gen_key.o)
                                         0x41 (size before relaxing)
 .rodata.psEccClearKey.str1.1
                0x0000000000081f0a        0xd ../../crypto/libcrypt_s.a(ecc.o)
                                         0x22 (size before relaxing)
 .rodata.str1.1
                0x0000000000081f17       0x32 ../../crypto/libcrypt_s.a(ecc_curve_data.o)
 *fill*         0x0000000000081f49        0x7 
 .rodata.str1.8
                0x0000000000081f50      0xa19 ../../crypto/libcrypt_s.a(ecc_curve_data.o)
 .rodata.psEccGenerateScalar.str1.1
                0x0000000000082969       0x14 ../../crypto/libcrypt_s.a(ecc_keygen.o)
                                         0x24 (size before relaxing)
 *fill*         0x000000000008297d        0x3 
 .rodata.psEccGenerateScalar.str1.8
                0x0000000000082980       0x28 ../../crypto/libcrypt_s.a(ecc_keygen.o)
 .rodata.psEd25519ParsePrivKey.str1.1
                0x00000000000829a8       0x24 ../../crypto/libcrypt_s.a(ecc_parse_mem.o)
                                         0x3c (size before relaxing)
 .rodata        0x00000000000829cc        0x2 ../../crypto/libcrypt_s.a(ecc_parse_mem.o)
 .rodata.psEd25519ParsePubKey.str1.1
                0x00000000000829ce       0x1c ../../crypto/libcrypt_s.a(ecc_parse_mem.o)
 .rodata.psSign.str1.1
                0x00000000000829ea       0x22 ../../crypto/libcrypt_s.a(pubkey_sign.o)
                                         0x33 (size before relaxing)
 *fill*         0x0000000000082a0c        0x4 
 .rodata.CSWTCH.3
                0x0000000000082a10       0x14 ../../crypto/libcrypt_s.a(pubkey_verify.o)
 .rodata.psRsaPssSignHash.str1.1
                0x0000000000082a24       0x1f ../../crypto/libcrypt_s.a(rsa_priv.o)
                                         0x30 (size before relaxing)
 *fill*         0x0000000000082a43        0xd 
 .rodata.cst16  0x0000000000082a50       0x20 ../../crypto/libcrypt_s.a(rsa_priv.o)
 .rodata.psChacha20Poly1305IetfInit.str1.1
                0x0000000000082a70       0x1c ../../crypto/libcrypt_s.a(ps_chacha20poly1305ietf.o)
 *fill*         0x0000000000082a8c        0x4 
 .rodata._pad0  0x0000000000082a90       0x10 ../../crypto/libcrypt_s.a(aead_chacha20poly1305.o)
 .rodata.PKCS1Dig_SHA512_ALT
                0x0000000000082aa0       0x11 ../../crypto/libcrypt_s.a(digest_info.o)
 *fill*         0x0000000000082ab1        0xf 
 .rodata.PKCS1Dig_SHA512
                0x0000000000082ac0       0x13 ../../crypto/libcrypt_s.a(digest_info.o)
 *fill*         0x0000000000082ad3        0xd 
 .rodata.PKCS1Dig_SHA384_ALT
                0x0000000000082ae0       0x11 ../../crypto/libcrypt_s.a(digest_info.o)
 *fill*         0x0000000000082af1        0xf 
 .rodata.PKCS1Dig_SHA384
                0x0000000000082b00       0x13 ../../crypto/libcrypt_s.a(digest_info.o)
 *fill*         0x0000000000082b13        0xd 
 .rodata.PKCS1Dig_SHA256_ALT
                0x0000000000082b20       0x11 ../../crypto/libcrypt_s.a(digest_info.o)
 *fill*         0x0000000000082b31        0xf 
 .rodata.PKCS1Dig_SHA256
                0x0000000000082b40       0x13 ../../crypto/libcrypt_s.a(digest_info.o)
 *fill*         0x0000000000082b53        0x5 
 .rodata.PKCS1Dig_SHA1_ALT
                0x0000000000082b58        0xd ../../crypto/libcrypt_s.a(digest_info.o)
 *fill*         0x0000000000082b65        0x3 
 .rodata.PKCS1Dig_SHA1
                0x0000000000082b68        0xf ../../crypto/libcrypt_s.a(digest_info.o)
 *fill*         0x0000000000082b77        0x9 
 .rodata.PKCS1Dig_MD5_ALT
                0x0000000000082b80       0x10 ../../crypto/libcrypt_s.a(digest_info.o)
 .rodata.PKCS1Dig_MD5
                0x0000000000082b90       0x12 ../../crypto/libcrypt_s.a(digest_info.o)
 *fill*         0x0000000000082ba2       0x1e 
 .rodata.des_fp
                0x0000000000082bc0     0x4000 ../../crypto/libcrypt_s.a(des3.o)
 .rodata.des_ip
                0x0000000000086bc0     0x4000 ../../crypto/libcrypt_s.a(des3.o)
 .rodata.SP8    0x000000000008abc0      0x110 ../../crypto/libcrypt_s.a(des3.o)
 *fill*         0x000000000008acd0       0x10 
 .rodata.SP7    0x000000000008ace0      0x100 ../../crypto/libcrypt_s.a(des3.o)
 .rodata.SP6    0x000000000008ade0      0x100 ../../crypto/libcrypt_s.a(des3.o)
 .rodata.SP5    0x000000000008aee0      0x100 ../../crypto/libcrypt_s.a(des3.o)
 .rodata.SP4    0x000000000008afe0      0x100 ../../crypto/libcrypt_s.a(des3.o)
 .rodata.SP3    0x000000000008b0e0      0x100 ../../crypto/libcrypt_s.a(des3.o)
 .rodata.SP2    0x000000000008b1e0      0x100 ../../crypto/libcrypt_s.a(des3.o)
 .rodata.SP1    0x000000000008b2e0      0x100 ../../crypto/libcrypt_s.a(des3.o)
 .rodata.totrot
                0x000000000008b3e0       0x10 ../../crypto/libcrypt_s.a(des3.o)
 *fill*         0x000000000008b3f0       0x10 
 .rodata.pc2    0x000000000008b400       0x30 ../../crypto/libcrypt_s.a(des3.o)
 *fill*         0x000000000008b430       0x10 
 .rodata.pc1    0x000000000008b440       0x38 ../../crypto/libcrypt_s.a(des3.o)
 *fill*         0x000000000008b478        0x8 
 .rodata.bigbyte
                0x000000000008b480       0x60 ../../crypto/libcrypt_s.a(des3.o)
 .rodata.bytebit
                0x000000000008b4e0       0x20 ../../crypto/libcrypt_s.a(des3.o)
 .rodata.cst16  0x000000000008b500       0x40 ../../crypto/libcrypt_s.a(des3.o)
 .rodata.getAsnLength32
                0x000000000008b540       0x14 ../../crypto/libcrypt_s.a(asn1.o)
 .rodata.getAsnSequence32
                0x000000000008b554       0x14 ../../crypto/libcrypt_s.a(asn1.o)
 .rodata.getAsnOID.str1.1
                0x000000000008b568      0x318 ../../crypto/libcrypt_s.a(asn1.o)
                                        0x31e (size before relaxing)
 .rodata        0x000000000008b880       0x72 ../../crypto/libcrypt_s.a(asn1.o)
 *fill*         0x000000000008b8f2        0x2 
 .rodata.getAsnOID
                0x000000000008b8f4      0x628 ../../crypto/libcrypt_s.a(asn1.o)
 *fill*         0x000000000008bf1c        0x4 
 .rodata.map    0x000000000008bf20       0x7b ../../crypto/libcrypt_s.a(base64.o)
 .rodata.psCrlClose.str1.1
                0x000000000008bf9b       0x1e ../../crypto/libcrypt_s.a(crl.o)
                                         0x2f (size before relaxing)
 *fill*         0x000000000008bfb9        0x7 
 .rodata.DOM2PREFIX.0
                0x000000000008bfc0       0x22 ../../crypto/libcrypt_s.a(sign.o)
 *fill*         0x000000000008bfe2       0x1e 
 .rodata.DOM2PREFIX.0
                0x000000000008c000       0x22 ../../crypto/libcrypt_s.a(open.o)
 *fill*         0x000000000008c022        0xe 
 .rodata.cst16  0x000000000008c030       0x30 ../../crypto/libcrypt_s.a(poly1305_sse2.o)
                                         0x40 (size before relaxing)
 .rodata.cst16  0x000000000008c060       0x40 ../../crypto/libcrypt_s.a(chacha20_dolbeau-ssse3.o)
 .rodata.cst16  0x000000000008c0a0       0xf0 ../../crypto/libcrypt_s.a(x25519_ref10.o)
                                        0x100 (size before relaxing)
 *fill*         0x000000000008c190       0x10 
 .rodata.base.3
                0x000000000008c1a0     0x7800 ../../crypto/libcrypt_s.a(ed25519_ref10.o)
 .rodata.Bi.4   0x00000000000939a0      0x3c0 ../../crypto/libcrypt_s.a(ed25519_ref10.o)
 .rodata.sqrtm1
                0x0000000000093d60       0x28 ../../crypto/libcrypt_s.a(ed25519_ref10.o)
 *fill*         0x0000000000093d88       0x18 
 .rodata.d2     0x0000000000093da0       0x28 ../../crypto/libcrypt_s.a(ed25519_ref10.o)
 *fill*         0x0000000000093dc8       0x18 
 .rodata.d      0x0000000000093de0       0x28 ../../crypto/libcrypt_s.a(ed25519_ref10.o)
 *fill*         0x0000000000093e08        0x8 
 .rodata.cst16  0x0000000000093e10       0x30 ../../crypto/libcrypt_s.a(ed25519_ref10.o)
                                         0x70 (size before relaxing)
 .rodata.cst8   0x0000000000093e40       0x10 ../../crypto/libcrypt_s.a(ed25519_ref10.o)
 .rodata.psCoreOpen.str1.1
                0x0000000000093e50       0x13 ../../core/libcore_s.a(corelib_main.o)
                                         0x23 (size before relaxing)
 *fill*         0x0000000000093e63        0x5 
 .rodata.psCoreOpen.str1.8
                0x0000000000093e68       0x31 ../../core/libcore_s.a(corelib_main.o)
 .rodata._psError.str1.1
                0x0000000000093e99       0x13 ../../core/libcore_s.a(corelib_trace.o)
                                          0x2 (size before relaxing)
 .rodata.psTraceBytes.str1.1
                0x0000000000093e99       0x3d ../../core/libcore_s.a(corelib_trace.o)
                                         0x3f (size before relaxing)
 .rodata.psBrokenDownTimeStr.str1.1
                0x0000000000093ed6        0xe ../../core/libcore_s.a(corelib_date.o)
 *fill*         0x0000000000093ee4        0x4 
 .rodata.days_tab.0
                0x0000000000093ee8        0xc ../../core/libcore_s.a(corelib_date.o)
 *fill*         0x0000000000093ef4        0xc 
 .rodata        0x0000000000093f00      0x200 ../../core/libcore_s.a(corelib_strings.o)
 .rodata.assert_subbuf.str1.1
                0x0000000000094100       0x32 ../../core/libcore_s.a(psbuf.o)
 *fill*         0x0000000000094132        0x6 
 .rodata.assert_subbuf.str1.8
                0x0000000000094138       0x9d ../../core/libcore_s.a(psbuf.o)
 .rodata.psBufReservePrepend.str1.1
                0x00000000000941d5       0x17 ../../core/libcore_s.a(psbuf.o)
 .rodata.psDynBufGrow.str1.1
                0x00000000000941ec        0xc ../../core/libcore_s.a(psbuf.o)
 .rodata.__PRETTY_FUNCTION__.1
                0x00000000000941f8        0xe ../../core/libcore_s.a(psbuf.o)
 *fill*         0x0000000000094206        0x2 
 .rodata.__PRETTY_FUNCTION__.2
                0x0000000000094208        0xd ../../core/libcore_s.a(psbuf.o)
 *fill*         0x0000000000094215        0xb 
 .rodata.__PRETTY_FUNCTION__.3
                0x0000000000094220       0x13 ../../core/libcore_s.a(psbuf.o)
 *fill*         0x0000000000094233        0xd 
 .rodata.__PRETTY_FUNCTION__.4
                0x0000000000094240       0x14 ../../core/libcore_s.a(psbuf.o)
 .rodata.psStatCompByteSeq.str1.1
                0x0000000000094254       0x2b ../../core/libcore_s.a(psStat.o)
                                         0x3c (size before relaxing)
 .rodata.psStatPrintHexSimple.str1.1
                0x000000000009427f        0x8 ../../core/libcore_s.a(psStat.o)
 *fill*         0x0000000000094287        0x1 
 .rodata.psStatPrintCompByteSeqResult.str1.8
                0x0000000000094288      0x203 ../../core/libcore_s.a(psStat.o)
 .rodata.psStatPrintCompByteSeqResult.str1.1
                0x000000000009448b        0x4 ../../core/libcore_s.a(psStat.o)
 .rodata.psGetEntropy.str1.1
                0x000000000009448f       0x19 ../../core/libcore_s.a(osdep.o)
 .rodata._psGetTraceFile.str1.1
                0x00000000000944a8       0x2f ../../core/libcore_s.a(osdep.o)
 *fill*         0x00000000000944d7        0x1 
 .rodata._psGetTraceFile.str1.8
                0x00000000000944d8       0x49 ../../core/libcore_s.a(osdep.o)
 .rodata.psCreateMutex.str1.1
                0x0000000000094521       0x32 ../../core/libcore_s.a(osdep.o)
                                         0x42 (size before relaxing)
 *fill*         0x0000000000094553        0x5 
 .rodata.psCreateMutex.str1.8
                0x0000000000094558       0x74 ../../core/libcore_s.a(osdep.o)
 .rodata.osdepEntropyOpen.str1.1
                0x00000000000945cc       0x1b ../../core/libcore_s.a(osdep.o)
 *fill*         0x00000000000945e7        0x9 
 .rodata.__func__.0
                0x00000000000945f0       0x10 ../../core/libcore_s.a(osdep.o)

.rodata1
 *(.rodata1)

.eh_frame_hdr   0x0000000000094600     0x17ac
 *(.eh_frame_hdr)
 .eh_frame_hdr  0x0000000000094600     0x17ac /usr/lib/gcc/x86_64-linux-gnu/11/../../../x86_64-linux-gnu/Scrt1.o
                0x0000000000094600                __GNU_EH_FRAME_HDR
 *(.eh_frame_entry .eh_frame_entry.*)

.eh_frame       0x0000000000095db0     0xaf88
 *(.eh_frame)
 .eh_frame      0x0000000000095db0       0x30 /usr/lib/gcc/x86_64-linux-gnu/11/../../../x86_64-linux-gnu/Scrt1.o
                                         0x2c (size before relaxing)
 *fill*         0x0000000000095de0        0x0 
 .eh_frame      0x0000000000095de0       0x28 /usr/lib/gcc/x86_64-linux-gnu/11/../../../x86_64-linux-gnu/Scrt1.o
                                         0x40 (size before relaxing)
 .eh_frame      0x0000000000095e08       0x18 /usr/lib/gcc/x86_64-linux-gnu/11/../../../x86_64-linux-gnu/Scrt1.o
                                         0x30 (size before relaxing)
 .eh_frame      0x0000000000095e20       0x18 /usr/lib/gcc/x86_64-linux-gnu/11/../../../x86_64-linux-gnu/Scrt1.o
                                         0x30 (size before relaxing)
 .eh_frame      0x0000000000095e38      0x728 sslTest.o
                                        0x758 (size before relaxing)
 .eh_frame      0x0000000000096560      0x3e8 ../libssl_s.a(cipherSuite.o)
                                        0x4e8 (size before relaxing)
 .eh_frame      0x0000000000096948      0x320 ../libssl_s.a(dtls.o)
                                        0x350 (size before relaxing)
 .eh_frame      0x0000000000096c68      0x1b8 ../libssl_s.a(hsHash.o)
                                        0x1d0 (size before relaxing)
 .eh_frame      0x0000000000096e20      0x110 ../libssl_s.a(hsNegotiateVersion.o)
                                        0x1a0 (size before relaxing)
 .eh_frame      0x0000000000096f30      0x440 ../libssl_s.a(matrixssl.o)
                                        0x6a8 (size before relaxing)
 .eh_frame      0x0000000000097370      0x338 ../libssl_s.a(matrixsslKeys.o)
                                        0xbb8 (size before relaxing)
 .eh_frame      0x00000000000976a8      0x320 ../libssl_s.a(matrixsslApi.o)
                                        0x500 (size before relaxing)
 .eh_frame      0x00000000000979c8       0x80 ../libssl_s.a(matrixsslInitVer.o)
                                        0x188 (size before relaxing)
 .eh_frame      0x0000000000097a48      0x128 ../libssl_s.a(prf.o)
                                        0x140 (size before relaxing)
 .eh_frame      0x0000000000097b70      0x118 ../libssl_s.a(psk.o)
                                        0x130 (size before relaxing)
 .eh_frame      0x0000000000097c88       0x78 ../libssl_s.a(sslDecode.o)
                                         0x90 (size before relaxing)
 .eh_frame      0x0000000000097d00      0xa48 ../libssl_s.a(sslEncode.o)
                                        0xb38 (size before relaxing)
 .eh_frame      0x0000000000098748      0x118 ../libssl_s.a(tlsDefaults.o)
                                        0x130 (size before relaxing)
 .eh_frame      0x0000000000098860       0x60 ../libssl_s.a(tlsSelectKeys.o)
                                         0x90 (size before relaxing)
 .eh_frame      0x00000000000988c0      0x290 ../libssl_s.a(tlsSigVer.o)
                                        0x330 (size before relaxing)
 .eh_frame      0x0000000000098b50      0x168 ../libssl_s.a(tls13CipherSuite.o)
                                        0x180 (size before relaxing)
 .eh_frame      0x0000000000098cb8      0x468 ../libssl_s.a(tls13Encode.o)
                                        0x498 (size before relaxing)
 .eh_frame      0x0000000000099120      0x298 ../libssl_s.a(tls13EncodeExt.o)
                                        0x2f0 (size before relaxing)
 .eh_frame      0x00000000000993b8       0xb0 ../libssl_s.a(tls13Decode.o)
                                         0xc8 (size before relaxing)
 .eh_frame      0x0000000000099468      0x358 ../libssl_s.a(tls13DecodeExt.o)
                                        0x3c8 (size before relaxing)
 .eh_frame      0x00000000000997c0      0x318 ../libssl_s.a(tls13KeyAgree.o)
                                        0x3d0 (size before relaxing)
 .eh_frame      0x0000000000099ad8      0x5a8 ../libssl_s.a(tls13KeySchedule.o)
                                        0x620 (size before relaxing)
 .eh_frame      0x000000000009a080       0x68 ../libssl_s.a(tls13Negotiate.o)
                                         0x80 (size before relaxing)
 .eh_frame      0x000000000009a0e8      0x1b0 ../libssl_s.a(tls13Psk.o)
                                        0x1e0 (size before relaxing)
 .eh_frame      0x000000000009a298      0x248 ../libssl_s.a(tls13Resume.o)
                                        0x288 (size before relaxing)
 .eh_frame      0x000000000009a4e0      0x150 ../libssl_s.a(tls13SigVer.o)
                                        0x190 (size before relaxing)
 .eh_frame      0x000000000009a630       0xd8 ../libssl_s.a(tls13TrHash.o)
                                        0x110 (size before relaxing)
 .eh_frame      0x000000000009a708      0x290 ../libssl_s.a(tls.o)
                                        0x390 (size before relaxing)
 .eh_frame      0x000000000009a998      0x398 ../libssl_s.a(hsDecode.o)
                                        0x3b0 (size before relaxing)
 .eh_frame      0x000000000009ad30       0x50 ../libssl_s.a(tls13Authenticate.o)
                                         0x78 (size before relaxing)
 .eh_frame      0x000000000009ad80      0x138 ../libssl_s.a(extDecode.o)
                                        0x150 (size before relaxing)
 .eh_frame      0x000000000009aeb8      0x108 ../../crypto/libcrypt_s.a(alg_info.o)
                                        0x168 (size before relaxing)
 .eh_frame      0x000000000009afc0      0x428 ../../crypto/libcrypt_s.a(aes_aesni.o)
                                        0x548 (size before relaxing)
 .eh_frame      0x000000000009b3e8       0xe8 ../../crypto/libcrypt_s.a(sha1.o)
                                        0x100 (size before relaxing)
 .eh_frame      0x000000000009b4d0       0xe8 ../../crypto/libcrypt_s.a(sha256.o)
                                        0x100 (size before relaxing)
 .eh_frame      0x000000000009b5b8      0x158 ../../crypto/libcrypt_s.a(sha512.o)
                                        0x170 (size before relaxing)
 .eh_frame      0x000000000009b710       0x78 ../../crypto/libcrypt_s.a(md5sha1.o)
                                         0x90 (size before relaxing)
 .eh_frame      0x000000000009b788       0xe8 ../../crypto/libcrypt_s.a(md5.o)
                                        0x100 (size before relaxing)
 .eh_frame      0x000000000009b870      0x510 ../../crypto/libcrypt_s.a(hmac.o)
                                        0x528 (size before relaxing)
 .eh_frame      0x000000000009bd80       0xd0 ../../crypto/libcrypt_s.a(hkdf.o)
                                         0xe8 (size before relaxing)
 .eh_frame      0x000000000009be50      0x168 ../../crypto/libcrypt_s.a(pem_decode_mem.o)
                                        0x180 (size before relaxing)
 .eh_frame      0x000000000009bfb8      0x218 ../../crypto/libcrypt_s.a(pkcs.o)
                                        0x548 (size before relaxing)
 .eh_frame      0x000000000009c1d0      0x6e8 ../../crypto/libcrypt_s.a(x509.o)
                                        0x928 (size before relaxing)
 .eh_frame      0x000000000009c8b8       0x48 ../../crypto/libcrypt_s.a(matrix.o)
                                         0x60 (size before relaxing)
 .eh_frame      0x000000000009c900      0x908 ../../crypto/libcrypt_s.a(pstm.o)
                                        0xac0 (size before relaxing)
 .eh_frame      0x000000000009d208      0x390 ../../crypto/libcrypt_s.a(pstmnt.o)
                                        0x470 (size before relaxing)
 .eh_frame      0x000000000009d598       0xb8 ../../crypto/libcrypt_s.a(pstm_mul_comba.o)
                                         0xd0 (size before relaxing)
 .eh_frame      0x000000000009d650       0xb8 ../../crypto/libcrypt_s.a(pstm_sqr_comba.o)
                                         0xd0 (size before relaxing)
 .eh_frame      0x000000000009d708       0x80 ../../crypto/libcrypt_s.a(prng.o)
                                         0xa8 (size before relaxing)
 .eh_frame      0x000000000009d788       0x20 ../../crypto/libcrypt_s.a(dh.o)
                                         0x48 (size before relaxing)
 .eh_frame      0x000000000009d7a8       0xb8 ../../crypto/libcrypt_s.a(dh_params.o)
                                         0xd0 (size before relaxing)
 .eh_frame      0x000000000009d860       0x50 ../../crypto/libcrypt_s.a(dh_export.o)
                                         0x68 (size before relaxing)
 .eh_frame      0x000000000009d8b0       0x48 ../../crypto/libcrypt_s.a(dh_import.o)
                                         0x60 (size before relaxing)
 .eh_frame      0x000000000009d8f8       0xe8 ../../crypto/libcrypt_s.a(dh_gen_key.o)
                                        0x120 (size before relaxing)
 .eh_frame      0x000000000009d9e0       0x50 ../../crypto/libcrypt_s.a(dh_gen_secret.o)
                                         0xb0 (size before relaxing)
 .eh_frame      0x000000000009da30       0xf0 ../../crypto/libcrypt_s.a(ecc.o)
                                        0x108 (size before relaxing)
 .eh_frame      0x000000000009db20       0x48 ../../crypto/libcrypt_s.a(ecc_curve.o)
                                         0xb0 (size before relaxing)
 .eh_frame      0x000000000009db68       0x40 ../../crypto/libcrypt_s.a(ecc_curve_config.o)
                                         0x58 (size before relaxing)
 .eh_frame      0x000000000009dba8       0x70 ../../crypto/libcrypt_s.a(ecc_priv.o)
                                         0x88 (size before relaxing)
 .eh_frame      0x000000000009dc18       0xa0 ../../crypto/libcrypt_s.a(ecc_pub.o)
                                         0xb8 (size before relaxing)
 .eh_frame      0x000000000009dcb8       0xb0 ../../crypto/libcrypt_s.a(ecc_keygen.o)
                                         0xc8 (size before relaxing)
 .eh_frame      0x000000000009dd68       0x70 ../../crypto/libcrypt_s.a(ecc_gen_shared.o)
                                         0x88 (size before relaxing)
 .eh_frame      0x000000000009ddd8       0xd8 ../../crypto/libcrypt_s.a(ecc_parse_mem.o)
                                        0x160 (size before relaxing)
 .eh_frame      0x000000000009deb0       0x50 ../../crypto/libcrypt_s.a(ecc_export.o)
                                         0x68 (size before relaxing)
 .eh_frame      0x000000000009df00       0x50 ../../crypto/libcrypt_s.a(ecc_import.o)
                                         0x68 (size before relaxing)
 .eh_frame      0x000000000009df50       0xc0 ../../crypto/libcrypt_s.a(pubkey.o)
                                         0xd8 (size before relaxing)
 .eh_frame      0x000000000009e010      0x1c8 ../../crypto/libcrypt_s.a(pubkey_sign.o)
                                        0x1e0 (size before relaxing)
 .eh_frame      0x000000000009e1d8      0x138 ../../crypto/libcrypt_s.a(pubkey_verify.o)
                                        0x1e0 (size before relaxing)
 .eh_frame      0x000000000009e310       0x60 ../../crypto/libcrypt_s.a(pubkey_parse_file.o)
                                        0x108 (size before relaxing)
 .eh_frame      0x000000000009e370       0xd0 ../../crypto/libcrypt_s.a(rsa.o)
                                        0x128 (size before relaxing)
 .eh_frame      0x000000000009e440      0x1a0 ../../crypto/libcrypt_s.a(rsa_priv.o)
                                        0x1b8 (size before relaxing)
 .eh_frame      0x000000000009e5e0      0x200 ../../crypto/libcrypt_s.a(rsa_pub.o)
                                        0x218 (size before relaxing)
 .eh_frame      0x000000000009e7e0       0xa0 ../../crypto/libcrypt_s.a(rsa_parse_mem.o)
                                        0x110 (size before relaxing)
 .eh_frame      0x000000000009e880        0x0 ../../crypto/libcrypt_s.a(rsa_parse_file.o)
                                         0xb0 (size before relaxing)
 .eh_frame      0x000000000009e880       0x90 ../../crypto/libcrypt_s.a(ps_chacha20poly1305ietf.o)
                                        0x118 (size before relaxing)
 .eh_frame      0x000000000009e910       0xa0 ../../crypto/libcrypt_s.a(aead_chacha20poly1305.o)
                                        0x2d8 (size before relaxing)
 .eh_frame      0x000000000009e9b0       0x88 ../../crypto/libcrypt_s.a(utils.o)
                                        0x220 (size before relaxing)
 .eh_frame      0x000000000009ea38       0x28 ../../crypto/libcrypt_s.a(verify.o)
                                         0x90 (size before relaxing)
 .eh_frame      0x000000000009ea60       0x40 ../../crypto/libcrypt_s.a(runtime.o)
                                         0xe0 (size before relaxing)
 .eh_frame      0x000000000009eaa0       0x48 ../../crypto/libcrypt_s.a(ps_x25519.o)
                                         0x60 (size before relaxing)
 .eh_frame      0x000000000009eae8       0x48 ../../crypto/libcrypt_s.a(ps_ed25519.o)
                                         0x60 (size before relaxing)
 .eh_frame      0x000000000009eb30       0x18 ../../crypto/libcrypt_s.a(digest_info.o)
                                         0x30 (size before relaxing)
 .eh_frame      0x000000000009eb48      0x198 ../../crypto/libcrypt_s.a(des3.o)
                                        0x210 (size before relaxing)
 .eh_frame      0x000000000009ece0      0x1e8 ../../crypto/libcrypt_s.a(asn1.o)
                                        0x238 (size before relaxing)
 .eh_frame      0x000000000009eec8       0x38 ../../crypto/libcrypt_s.a(base64.o)
                                         0x50 (size before relaxing)
 .eh_frame      0x000000000009ef00      0x168 ../../crypto/libcrypt_s.a(crl.o)
                                        0x4a0 (size before relaxing)
 .eh_frame      0x000000000009f068        0x0 ../../crypto/libcrypt_s.a(pem_decode_file.o)
                                         0x68 (size before relaxing)
 .eh_frame      0x000000000009f068      0x290 ../../crypto/libcrypt_s.a(ecc_math.o)
                                        0x2a8 (size before relaxing)
 .eh_frame      0x000000000009f2f8        0x0 ../../crypto/libcrypt_s.a(ecc_parse_file.o)
                                         0x80 (size before relaxing)
 .eh_frame      0x000000000009f2f8        0x0 ../../crypto/libcrypt_s.a(pubkey_parse_mem.o)
                                        0x160 (size before relaxing)
 .eh_frame      0x000000000009f2f8       0x40 ../../crypto/libcrypt_s.a(stream_chacha20.o)
                                         0xf8 (size before relaxing)
 .eh_frame      0x000000000009f338       0x58 ../../crypto/libcrypt_s.a(onetimeauth_poly1305.o)
                                         0xd0 (size before relaxing)
 .eh_frame      0x000000000009f390       0x18 ../../crypto/libcrypt_s.a(crypto_scalarmult.o)
                                         0x80 (size before relaxing)
 .eh_frame      0x000000000009f3a8       0x68 ../../crypto/libcrypt_s.a(sign.o)
                                         0xb8 (size before relaxing)
 .eh_frame      0x000000000009f410       0x68 ../../crypto/libcrypt_s.a(open.o)
                                         0xd0 (size before relaxing)
 .eh_frame      0x000000000009f478       0x50 ../../crypto/libcrypt_s.a(pstm_montgomery_reduce.o)
                                         0x68 (size before relaxing)
 .eh_frame      0x000000000009f4c8      0x190 ../../crypto/libcrypt_s.a(poly1305_sse2.o)
                                        0x1a8 (size before relaxing)
 .eh_frame      0x000000000009f658      0x168 ../../crypto/libcrypt_s.a(poly1305_donna.o)
                                        0x180 (size before relaxing)
 .eh_frame      0x000000000009f7c0       0xf0 ../../crypto/libcrypt_s.a(chacha20_dolbeau-ssse3.o)
                                        0x108 (size before relaxing)
 .eh_frame      0x000000000009f8b0      0x108 ../../crypto/libcrypt_s.a(chacha20_ref.o)
                                        0x148 (size before relaxing)
 .eh_frame      0x000000000009f9b8       0x28 ../../crypto/libcrypt_s.a(scalarmult_curve25519.o)
                                         0x90 (size before relaxing)
 .eh_frame      0x000000000009f9e0      0x140 ../../crypto/libcrypt_s.a(x25519_ref10.o)
                                        0x158 (size before relaxing)
 .eh_frame      0x000000000009fb20      0x5d0 ../../crypto/libcrypt_s.a(ed25519_ref10.o)
                                        0x8f0 (size before relaxing)
 .eh_frame      0x00000000000a00f0       0x20 ../../core/libcore_s.a(memset_s.o)
                                         0x38 (size before relaxing)
 .eh_frame      0x00000000000a0110       0x90 ../../core/libcore_s.a(corelib_main.o)
                                         0xd0 (size before relaxing)
 .eh_frame      0x00000000000a01a0       0x98 ../../core/libcore_s.a(corelib_trace.o)
                                         0xb0 (size before relaxing)
 .eh_frame      0x00000000000a0238      0x108 ../../core/libcore_s.a(corelib_date.o)
                                        0x138 (size before relaxing)
 .eh_frame      0x00000000000a0340       0xb0 ../../core/libcore_s.a(corelib_strings.o)
                                        0x158 (size before relaxing)
 .eh_frame      0x00000000000a03f0       0x30 ../../core/libcore_s.a(corelib_list.o)
                                         0x90 (size before relaxing)
 .eh_frame      0x00000000000a0420      0x4c8 ../../core/libcore_s.a(psbuf.o)
                                        0x8e8 (size before relaxing)
 .eh_frame      0x00000000000a08e8      0x148 ../../core/libcore_s.a(psStat.o)
                                        0x160 (size before relaxing)
 .eh_frame      0x00000000000a0a30      0x280 ../../core/libcore_s.a(osdep.o)
                                        0x3a8 (size before relaxing)
 .eh_frame      0x00000000000a0cb0       0x28 ../../core/libcore_s.a(cl_memset.o)
                                         0x58 (size before relaxing)
 .eh_frame      0x00000000000a0cd8       0x5c /usr/lib/x86_64-linux-gnu/libc_nonshared.a(elf-init.oS)
                                         0x78 (size before relaxing)
 .eh_frame      0x00000000000a0d34        0x4 /usr/lib/gcc/x86_64-linux-gnu/11/crtendS.o
 *(.eh_frame.*)

.gcc_except_table
 *(.gcc_except_table .gcc_except_table.*)

.gnu_extab
 *(.gnu_extab*)

.exception_ranges
 *(.exception_ranges*)
                0x00000000000a27f0                . = DATA_SEGMENT_ALIGN (CONSTANT (MAXPAGESIZE), CONSTANT (COMMONPAGESIZE))

.eh_frame
 *(.eh_frame)
 *(.eh_frame.*)

.gnu_extab
 *(.gnu_extab)

.gcc_except_table
 *(.gcc_except_table .gcc_except_table.*)

.exception_ranges
 *(.exception_ranges*)

.tdata          0x00000000000a27f0      0x9e0
                [!provide]                        PROVIDE (__tdata_start = .)
 *(.tdata .tdata.* .gnu.linkonce.td.*)
 .tdata.ciphers
                0x00000000000a27f0      0x9cc sslTest.o
 .tdata.g_versions
                0x00000000000a31bc       0x14 sslTest.o

.tbss           0x00000000000a31d0      0x470
 *(.tbss .tbss.* .gnu.linkonce.tb.*)
 .tbss.g_versionFlag
                0x00000000000a31d0        0x4 sslTest.o
 .tbss.DH_SIZE  0x00000000000a31d4        0x4 sslTest.o
 .tbss.DHPARAM  0x00000000000a31d8        0x8 sslTest.o
 .tbss.ECCCA_SIZE
                0x00000000000a31e0        0x4 sslTest.o
 .tbss.ECC_SIZE
                0x00000000000a31e4        0x4 sslTest.o
 .tbss.ECCKEY_SIZE
                0x00000000000a31e8        0x4 sslTest.o
 *fill*         0x00000000000a31ec        0x4 
 .tbss.ECCCA    0x00000000000a31f0        0x8 sslTest.o
 .tbss.ECC      0x00000000000a31f8        0x8 sslTest.o
 .tbss.ECCKEY   0x00000000000a3200        0x8 sslTest.o
 .tbss.RSACA_SIZE
                0x00000000000a3208        0x4 sslTest.o
 .tbss.RSA_SIZE
                0x00000000000a320c        0x4 sslTest.o
 .tbss.RSAKEY_SIZE
                0x00000000000a3210        0x4 sslTest.o
 *fill*         0x00000000000a3214        0x4 
 .tbss.RSACA    0x00000000000a3218        0x8 sslTest.o
 .tbss.RSACERT  0x00000000000a3220        0x8 sslTest.o
 .tbss.RSAKEY   0x00000000000a3228        0x8 sslTest.o
 .tbss.g_expectedEarlyDataReceives
                0x00000000000a3230        0x4 sslTest.o
 .tbss.g_receiverEarlyDataIndex
                0x00000000000a3234        0x4 sslTest.o
 .tbss.g_senderEarlyDataIndex
                0x00000000000a3238        0x4 sslTest.o
 *fill*         0x00000000000a323c        0x4 
 .tbss.g_earlyDataInfo
                0x00000000000a3240      0x400 sslTest.o
 *(.tcommon)

.preinit_array  0x00000000000a31d0        0x0
                [!provide]                        PROVIDE (__preinit_array_start = .)
 *(.preinit_array)
                [!provide]                        PROVIDE (__preinit_array_end = .)

.init_array     0x00000000000a31d0        0x8
                0x00000000000a31d0                PROVIDE (__init_array_start = .)
 *(SORT_BY_INIT_PRIORITY(.init_array.*) SORT_BY_INIT_PRIORITY(.ctors.*))
 *(.init_array EXCLUDE_FILE(*crtend?.o *crtend.o *crtbegin?.o *crtbegin.o) .ctors)
 .init_array    0x00000000000a31d0        0x8 /usr/lib/gcc/x86_64-linux-gnu/11/crtbeginS.o
                0x00000000000a31d8                PROVIDE (__init_array_end = .)

.fini_array     0x00000000000a31d8        0x8
                [!provide]                        PROVIDE (__fini_array_start = .)
 *(SORT_BY_INIT_PRIORITY(.fini_array.*) SORT_BY_INIT_PRIORITY(.dtors.*))
 *(.fini_array EXCLUDE_FILE(*crtend?.o *crtend.o *crtbegin?.o *crtbegin.o) .dtors)
 .fini_array    0x00000000000a31d8        0x8 /usr/lib/gcc/x86_64-linux-gnu/11/crtbeginS.o
                [!provide]                        PROVIDE (__fini_array_end = .)

.ctors
 *crtbegin.o(.ctors)
 *crtbegin?.o(.ctors)
 *(EXCLUDE_FILE(*crtend?.o *crtend.o) .ctors)
 *(SORT_BY_NAME(.ctors.*))
 *(.ctors)

.dtors
 *crtbegin.o(.dtors)
 *crtbegin?.o(.dtors)
 *(EXCLUDE_FILE(*crtend?.o *crtend.o) .dtors)
 *(SORT_BY_NAME(.dtors.*))
 *(.dtors)

.jcr
 *(.jcr)

.data.rel.ro    0x00000000000a31e0      0xa18
 *(.data.rel.ro.local* .gnu.linkonce.d.rel.ro.local.*)
 .data.rel.ro.local.eccCurves
                0x00000000000a31e0      0x1b0 ../../crypto/libcrypt_s.a(ecc_curve_data.o)
                0x00000000000a31e0                eccCurves
 *(.data.rel.ro .data.rel.ro.* .gnu.linkonce.d.rel.ro.*)
 .data.rel.ro   0x00000000000a3390        0x0 /usr/lib/gcc/x86_64-linux-gnu/11/../../../x86_64-linux-gnu/Scrt1.o
 *fill*         0x00000000000a3390       0x10 
 .data.rel.ro.supportedCiphers
                0x00000000000a33a0      0x850 ../libssl_s.a(cipherSuite.o)
 .data.rel.ro.psStaticAllocationsPool
                0x00000000000a3bf0        0x8 ../../core/libcore_s.a(psbuf.o)
                0x00000000000a3bf0                psStaticAllocationsPool

.dynamic        0x00000000000a3bf8      0x200
 *(.dynamic)
 .dynamic       0x00000000000a3bf8      0x200 /usr/lib/gcc/x86_64-linux-gnu/11/../../../x86_64-linux-gnu/Scrt1.o
                0x00000000000a3bf8                _DYNAMIC

.got            0x00000000000a3df8      0x1f0
 *(.got.plt)
 .got.plt       0x00000000000a3df8      0x1b0 /usr/lib/gcc/x86_64-linux-gnu/11/../../../x86_64-linux-gnu/Scrt1.o
                0x00000000000a3df8                _GLOBAL_OFFSET_TABLE_
 *(.igot.plt)
 *(.got)
 .got           0x00000000000a3fa8       0x40 /usr/lib/gcc/x86_64-linux-gnu/11/../../../x86_64-linux-gnu/Scrt1.o
 *(.igot)
                0x00000000000a4000                . = DATA_SEGMENT_RELRO_END (., 0x0)

.data           0x00000000000a4000      0x1e8
 *(.data .data.* .gnu.linkonce.d.*)
 .data.rel.local
                0x00000000000a4000        0x8 /usr/lib/gcc/x86_64-linux-gnu/11/crtbeginS.o
                0x00000000000a4000                __dso_handle
 *fill*         0x00000000000a4008       0x18 
 .data.g_config
                0x00000000000a4020       0x20 ../libssl_s.a(matrixssl.o)
 .data.sha384OfEmptyInput
                0x00000000000a4040       0x30 ../libssl_s.a(tls13KeySchedule.o)
 *fill*         0x00000000000a4070       0x10 
 .data.sha256OfEmptyInput
                0x00000000000a4080       0x20 ../libssl_s.a(tls13KeySchedule.o)
 .data.g_config
                0x00000000000a40a0       0x20 ../../crypto/libcrypt_s.a(matrix.o)
 .data.rel.implementation
                0x00000000000a40c0        0x8 ../../crypto/libcrypt_s.a(stream_chacha20.o)
 .data.rel.implementation
                0x00000000000a40c8        0x8 ../../crypto/libcrypt_s.a(onetimeauth_poly1305.o)
 *fill*         0x00000000000a40d0       0x10 
 .data.rel.local.psCrypto_onetimeauth_poly1305_sse2_implementation
                0x00000000000a40e0       0x28 ../../crypto/libcrypt_s.a(poly1305_sse2.o)
                0x00000000000a40e0                psCrypto_onetimeauth_poly1305_sse2_implementation
 *fill*         0x00000000000a4108       0x18 
 .data.rel.local.psCrypto_onetimeauth_poly1305_donna_implementation
                0x00000000000a4120       0x28 ../../crypto/libcrypt_s.a(poly1305_donna.o)
                0x00000000000a4120                psCrypto_onetimeauth_poly1305_donna_implementation
 *fill*         0x00000000000a4148       0x18 
 .data.rel.local.psCrypto_stream_chacha20_dolbeau_ssse3_implementation
                0x00000000000a4160       0x20 ../../crypto/libcrypt_s.a(chacha20_dolbeau-ssse3.o)
                0x00000000000a4160                psCrypto_stream_chacha20_dolbeau_ssse3_implementation
 .data.rel.local.psCrypto_stream_chacha20_ref_implementation
                0x00000000000a4180       0x20 ../../crypto/libcrypt_s.a(chacha20_ref.o)
                0x00000000000a4180                psCrypto_stream_chacha20_ref_implementation
 .data.rel.implementation
                0x00000000000a41a0        0x8 ../../crypto/libcrypt_s.a(scalarmult_curve25519.o)
 *fill*         0x00000000000a41a8        0x8 
 .data.rel.local.psSodium_crypto_scalarmult_curve25519_ref10_implementation
                0x00000000000a41b0       0x10 ../../crypto/libcrypt_s.a(x25519_ref10.o)
                0x00000000000a41b0                psSodium_crypto_scalarmult_curve25519_ref10_implementation
 .data.g_config
                0x00000000000a41c0       0x20 ../../core/libcore_s.a(corelib_main.o)
 .data.randfd   0x00000000000a41e0        0x4 ../../core/libcore_s.a(osdep.o)
 .data.urandfd  0x00000000000a41e4        0x4 ../../core/libcore_s.a(osdep.o)

.tm_clone_table
                0x00000000000a41e8        0x0
 .tm_clone_table
                0x00000000000a41e8        0x0 /usr/lib/gcc/x86_64-linux-gnu/11/crtbeginS.o
 .tm_clone_table
                0x00000000000a41e8        0x0 /usr/lib/gcc/x86_64-linux-gnu/11/crtendS.o

.data1
 *(.data1)
                0x00000000000a41e8                _edata = .
                [!provide]                        PROVIDE (edata = .)
                0x00000000000a41e8                . = .
                0x00000000000a41e8                __bss_start = .

.bss            0x00000000000a4200     0x1390
 *(.dynbss)
 .dynbss        0x00000000000a4200        0x8 /usr/lib/gcc/x86_64-linux-gnu/11/../../../x86_64-linux-gnu/Scrt1.o
                0x00000000000a4200                stderr@@GLIBC_2.2.5
 *(.bss .bss.* .gnu.linkonce.b.*)
 .bss           0x00000000000a4208        0x1 /usr/lib/gcc/x86_64-linux-gnu/11/crtbeginS.o
 *fill*         0x00000000000a4209       0x17 
 .bss.disabledCipherFlags
                0x00000000000a4220       0x20 ../libssl_s.a(cipherSuite.o)
 .bss.cookie_key
                0x00000000000a4240       0x20 ../libssl_s.a(dtls.o)
 .bss.globalPmtu
                0x00000000000a4260        0x4 ../libssl_s.a(dtls.o)
 *fill*         0x00000000000a4264        0xc 
 .bss.g_sessionChronList
                0x00000000000a4270       0x10 ../libssl_s.a(matrixssl.o)
 .bss.g_sessionTable
                0x00000000000a4280     0x1100 ../libssl_s.a(matrixssl.o)
 .bss.g_sessTicketLock
                0x00000000000a5380       0x28 ../libssl_s.a(matrixssl.o)
 *fill*         0x00000000000a53a8       0x18 
 .bss.g_sessionTableLock
                0x00000000000a53c0       0x28 ../libssl_s.a(matrixssl.o)
 *fill*         0x00000000000a53e8       0x18 
 .bss.vOptsDefault.0
                0x00000000000a5400       0x40 ../../crypto/libcrypt_s.a(x509.o)
 .bss.gPrngInit
                0x00000000000a5440        0x2 ../../crypto/libcrypt_s.a(prng.o)
 *fill*         0x00000000000a5442        0x2 
 .bss.gMatrixPrng
                0x00000000000a5444        0x4 ../../crypto/libcrypt_s.a(prng.o)
 *fill*         0x00000000000a5448       0x18 
 .bss.prngLock  0x00000000000a5460       0x28 ../../crypto/libcrypt_s.a(prng.o)
 .bss.pschacha2_initialized.0
                0x00000000000a5488        0x4 ../../crypto/libcrypt_s.a(ps_chacha20poly1305ietf.o)
 *fill*         0x00000000000a548c       0x14 
 .bss._cpu_features
                0x00000000000a54a0       0x28 ../../crypto/libcrypt_s.a(runtime.o)
 .bss.g_CRL     0x00000000000a54c8        0x8 ../../crypto/libcrypt_s.a(crl.o)
 *fill*         0x00000000000a54d0       0x10 
 .bss.g_crlTableLock
                0x00000000000a54e0       0x28 ../../crypto/libcrypt_s.a(crl.o)
 *fill*         0x00000000000a5508       0x18 
 .bss.corelibMutex
                0x00000000000a5520       0x28 ../../core/libcore_s.a(corelib_main.o)
 *fill*         0x00000000000a5548       0x18 
 .bss.tracefile_mutex.1
                0x00000000000a5560       0x28 ../../core/libcore_s.a(osdep.o)
 .bss.tracefile.2
                0x00000000000a5588        0x8 ../../core/libcore_s.a(osdep.o)
 *(COMMON)
                0x00000000000a5590                . = ALIGN ((. != 0x0)?0x8:0x1)

.lbss
 *(.dynlbss)
 *(.lbss .lbss.* .gnu.linkonce.lb.*)
 *(LARGE_COMMON)
                0x00000000000a5590                . = ALIGN (0x8)
                0x00000000000a5590                . = SEGMENT_START ("ldata-segment", .)

.lrodata
 *(.lrodata .lrodata.* .gnu.linkonce.lr.*)

.ldata          0x00000000000a7590        0x0
 *(.ldata .ldata.* .gnu.linkonce.l.*)
                0x00000000000a7590                . = ALIGN ((. != 0x0)?0x8:0x1)
                0x00000000000a7590                . = ALIGN (0x8)
                0x00000000000a5590                _end = .
                [!provide]                        PROVIDE (end = .)
                0x00000000000a7590                . = DATA_SEGMENT_END (.)

.stab
 *(.stab)

.stabstr
 *(.stabstr)

.stab.excl
 *(.stab.excl)

.stab.exclstr
 *(.stab.exclstr)

.stab.index
 *(.stab.index)

.stab.indexstr
 *(.stab.indexstr)

.comment        0x0000000000000000       0x2b
 *(.comment)
 .comment       0x0000000000000000       0x2b /usr/lib/gcc/x86_64-linux-gnu/11/crtbeginS.o
                                         0x2c (size before relaxing)
 .comment       0x000000000000002b       0x2c sslTest.o
 .comment       0x000000000000002b       0x2c ../libssl_s.a(cipherSuite.o)
 .comment       0x000000000000002b       0x2c ../libssl_s.a(dtls.o)
 .comment       0x000000000000002b       0x2c ../libssl_s.a(hsHash.o)
 .comment       0x000000000000002b       0x2c ../libssl_s.a(hsNegotiateVersion.o)
 .comment       0x000000000000002b       0x2c ../libssl_s.a(matrixssl.o)
 .comment       0x000000000000002b       0x2c ../libssl_s.a(matrixsslKeys.o)
 .comment       0x000000000000002b       0x2c ../libssl_s.a(matrixsslApi.o)
 .comment       0x000000000000002b       0x2c ../libssl_s.a(matrixsslInitVer.o)
 .comment       0x000000000000002b       0x2c ../libssl_s.a(prf.o)
 .comment       0x000000000000002b       0x2c ../libssl_s.a(psk.o)
 .comment       0x000000000000002b       0x2c ../libssl_s.a(sslDecode.o)
 .comment       0x000000000000002b       0x2c ../libssl_s.a(sslEncode.o)
 .comment       0x000000000000002b       0x2c ../libssl_s.a(tlsDefaults.o)
 .comment       0x000000000000002b       0x2c ../libssl_s.a(tlsSelectKeys.o)
 .comment       0x000000000000002b       0x2c ../libssl_s.a(tlsSigVer.o)
 .comment       0x000000000000002b       0x2c ../libssl_s.a(tls13CipherSuite.o)
 .comment       0x000000000000002b       0x2c ../libssl_s.a(tls13Encode.o)
 .comment       0x000000000000002b       0x2c ../libssl_s.a(tls13EncodeExt.o)
 .comment       0x000000000000002b       0x2c ../libssl_s.a(tls13Decode.o)
 .comment       0x000000000000002b       0x2c ../libssl_s.a(tls13DecodeExt.o)
 .comment       0x000000000000002b       0x2c ../libssl_s.a(tls13KeyAgree.o)
 .comment       0x000000000000002b       0x2c ../libssl_s.a(tls13KeySchedule.o)
 .comment       0x000000000000002b       0x2c ../libssl_s.a(tls13Negotiate.o)
 .comment       0x000000000000002b       0x2c ../libssl_s.a(tls13Psk.o)
 .comment       0x000000000000002b       0x2c ../libssl_s.a(tls13Resume.o)
 .comment       0x000000000000002b       0x2c ../libssl_s.a(tls13SigVer.o)
 .comment       0x000000000000002b       0x2c ../libssl_s.a(tls13TrHash.o)
 .comment       0x000000000000002b       0x2c ../libssl_s.a(tls.o)
 .comment       0x000000000000002b       0x2c ../libssl_s.a(hsDecode.o)
 .comment       0x000000000000002b       0x2c ../libssl_s.a(tls13Authenticate.o)
 .comment       0x000000000000002b       0x2c ../libssl_s.a(extDecode.o)
 .comment       0x000000000000002b       0x2c ../../crypto/libcrypt_s.a(alg_info.o)
 .comment       0x000000000000002b       0x2c ../../crypto/libcrypt_s.a(aes_aesni.o)
 .comment       0x000000000000002b       0x2c ../../crypto/libcrypt_s.a(sha1.o)
 .comment       0x000000000000002b       0x2c ../../crypto/libcrypt_s.a(sha256.o)
 .comment       0x000000000000002b       0x2c ../../crypto/libcrypt_s.a(sha512.o)
 .comment       0x000000000000002b       0x2c ../../crypto/libcrypt_s.a(md5sha1.o)
 .comment       0x000000000000002b       0x2c ../../crypto/libcrypt_s.a(md5.o)
 .comment       0x000000000000002b       0x2c ../../crypto/libcrypt_s.a(hmac.o)
 .comment       0x000000000000002b       0x2c ../../crypto/libcrypt_s.a(hkdf.o)
 .comment       0x000000000000002b       0x2c ../../crypto/libcrypt_s.a(pem_decode_mem.o)
 .comment       0x000000000000002b       0x2c ../../crypto/libcrypt_s.a(pkcs.o)
 .comment       0x000000000000002b       0x2c ../../crypto/libcrypt_s.a(x509.o)
 .comment       0x000000000000002b       0x2c ../../crypto/libcrypt_s.a(matrix.o)
 .comment       0x000000000000002b       0x2c ../../crypto/libcrypt_s.a(pstm.o)
 .comment       0x000000000000002b       0x2c ../../crypto/libcrypt_s.a(pstmnt.o)
 .comment       0x000000000000002b       0x2c ../../crypto/libcrypt_s.a(pstm_mul_comba.o)
 .comment       0x000000000000002b       0x2c ../../crypto/libcrypt_s.a(pstm_sqr_comba.o)
 .comment       0x000000000000002b       0x2c ../../crypto/libcrypt_s.a(prng.o)
 .comment       0x000000000000002b       0x2c ../../crypto/libcrypt_s.a(dh.o)
 .comment       0x000000000000002b       0x2c ../../crypto/libcrypt_s.a(dh_params.o)
 .comment       0x000000000000002b       0x2c ../../crypto/libcrypt_s.a(dh_export.o)
 .comment       0x000000000000002b       0x2c ../../crypto/libcrypt_s.a(dh_import.o)
 .comment       0x000000000000002b       0x2c ../../crypto/libcrypt_s.a(dh_gen_key.o)
 .comment       0x000000000000002b       0x2c ../../crypto/libcrypt_s.a(dh_gen_secret.o)
 .comment       0x000000000000002b       0x2c ../../crypto/libcrypt_s.a(ecc.o)
 .comment       0x000000000000002b       0x2c ../../crypto/libcrypt_s.a(ecc_curve.o)
 .comment       0x000000000000002b       0x2c ../../crypto/libcrypt_s.a(ecc_curve_data.o)
 .comment       0x000000000000002b       0x2c ../../crypto/libcrypt_s.a(ecc_curve_config.o)
 .comment       0x000000000000002b       0x2c ../../crypto/libcrypt_s.a(ecc_priv.o)
 .comment       0x000000000000002b       0x2c ../../crypto/libcrypt_s.a(ecc_pub.o)
 .comment       0x000000000000002b       0x2c ../../crypto/libcrypt_s.a(ecc_keygen.o)
 .comment       0x000000000000002b       0x2c ../../crypto/libcrypt_s.a(ecc_gen_shared.o)
 .comment       0x000000000000002b       0x2c ../../crypto/libcrypt_s.a(ecc_parse_mem.o)
 .comment       0x000000000000002b       0x2c ../../crypto/libcrypt_s.a(ecc_export.o)
 .comment       0x000000000000002b       0x2c ../../crypto/libcrypt_s.a(ecc_import.o)
 .comment       0x000000000000002b       0x2c ../../crypto/libcrypt_s.a(pubkey.o)
 .comment       0x000000000000002b       0x2c ../../crypto/libcrypt_s.a(pubkey_sign.o)
 .comment       0x000000000000002b       0x2c ../../crypto/libcrypt_s.a(pubkey_verify.o)
 .comment       0x000000000000002b       0x2c ../../crypto/libcrypt_s.a(pubkey_parse_file.o)
 .comment       0x000000000000002b       0x2c ../../crypto/libcrypt_s.a(rsa.o)
 .comment       0x000000000000002b       0x2c ../../crypto/libcrypt_s.a(rsa_priv.o)
 .comment       0x000000000000002b       0x2c ../../crypto/libcrypt_s.a(rsa_pub.o)
 .comment       0x000000000000002b       0x2c ../../crypto/libcrypt_s.a(rsa_parse_mem.o)
 .comment       0x000000000000002b       0x2c ../../crypto/libcrypt_s.a(rsa_parse_file.o)
 .comment       0x000000000000002b       0x2c ../../crypto/libcrypt_s.a(ps_chacha20poly1305ietf.o)
 .comment       0x000000000000002b       0x2c ../../crypto/libcrypt_s.a(aead_chacha20poly1305.o)
 .comment       0x000000000000002b       0x2c ../../crypto/libcrypt_s.a(utils.o)
 .comment       0x000000000000002b       0x2c ../../crypto/libcrypt_s.a(verify.o)
 .comment       0x000000000000002b       0x2c ../../crypto/libcrypt_s.a(runtime.o)
 .comment       0x000000000000002b       0x2c ../../crypto/libcrypt_s.a(ps_x25519.o)
 .comment       0x000000000000002b       0x2c ../../crypto/libcrypt_s.a(ps_ed25519.o)
 .comment       0x000000000000002b       0x2c ../../crypto/libcrypt_s.a(digest_info.o)
 .comment       0x000000000000002b       0x2c ../../crypto/libcrypt_s.a(des3.o)
 .comment       0x000000000000002b       0x2c ../../crypto/libcrypt_s.a(asn1.o)
 .comment       0x000000000000002b       0x2c ../../crypto/libcrypt_s.a(base64.o)
 .comment       0x000000000000002b       0x2c ../../crypto/libcrypt_s.a(crl.o)
 .comment       0x000000000000002b       0x2c ../../crypto/libcrypt_s.a(pem_decode_file.o)
 .comment       0x000000000000002b       0x2c ../../crypto/libcrypt_s.a(ecc_math.o)
 .comment       0x000000000000002b       0x2c ../../crypto/libcrypt_s.a(ecc_parse_file.o)
 .comment       0x000000000000002b       0x2c ../../crypto/libcrypt_s.a(pubkey_parse_mem.o)
 .comment       0x000000000000002b       0x2c ../../crypto/libcrypt_s.a(stream_chacha20.o)
 .comment       0x000000000000002b       0x2c ../../crypto/libcrypt_s.a(onetimeauth_poly1305.o)
 .comment       0x000000000000002b       0x2c ../../crypto/libcrypt_s.a(crypto_scalarmult.o)
 .comment       0x000000000000002b       0x2c ../../crypto/libcrypt_s.a(sign.o)
 .comment       0x000000000000002b       0x2c ../../crypto/libcrypt_s.a(open.o)
 .comment       0x000000000000002b       0x2c ../../crypto/libcrypt_s.a(pstm_montgomery_reduce.o)
 .comment       0x000000000000002b       0x2c ../../crypto/libcrypt_s.a(poly1305_sse2.o)
 .comment       0x000000000000002b       0x2c ../../crypto/libcrypt_s.a(poly1305_donna.o)
 .comment       0x000000000000002b       0x2c ../../crypto/libcrypt_s.a(chacha20_dolbeau-ssse3.o)
 .comment       0x000000000000002b       0x2c ../../crypto/libcrypt_s.a(chacha20_ref.o)
 .comment       0x000000000000002b       0x2c ../../crypto/libcrypt_s.a(scalarmult_curve25519.o)
 .comment       0x000000000000002b       0x2c ../../crypto/libcrypt_s.a(x25519_ref10.o)
 .comment       0x000000000000002b       0x2c ../../crypto/libcrypt_s.a(ed25519_ref10.o)
 .comment       0x000000000000002b       0x2c ../../core/libcore_s.a(memset_s.o)
 .comment       0x000000000000002b       0x2c ../../core/libcore_s.a(corelib_main.o)
 .comment       0x000000000000002b       0x2c ../../core/libcore_s.a(corelib_trace.o)
 .comment       0x000000000000002b       0x2c ../../core/libcore_s.a(corelib_date.o)
 .comment       0x000000000000002b       0x2c ../../core/libcore_s.a(corelib_strings.o)
 .comment       0x000000000000002b       0x2c ../../core/libcore_s.a(corelib_list.o)
 .comment       0x000000000000002b       0x2c ../../core/libcore_s.a(psbuf.o)
 .comment       0x000000000000002b       0x2c ../../core/libcore_s.a(psStat.o)
 .comment       0x000000000000002b       0x2c ../../core/libcore_s.a(osdep.o)
 .comment       0x000000000000002b       0x2c ../../core/libcore_s.a(cl_memset.o)
 .comment       0x000000000000002b       0x2c /usr/lib/gcc/x86_64-linux-gnu/11/crtendS.o

.gnu.build.attributes
 *(.gnu.build.attributes .gnu.build.attributes.*)

.debug
 *(.debug)

.line
 *(.line)

.debug_srcinfo
 *(.debug_srcinfo)

.debug_sfnames
 *(.debug_sfnames)

.debug_aranges
 *(.debug_aranges)

.debug_pubnames
 *(.debug_pubnames)

.debug_info
 *(.debug_info .gnu.linkonce.wi.*)

.debug_abbrev
 *(.debug_abbrev)

.debug_line
 *(.debug_line .debug_line.* .debug_line_end)

.debug_frame
 *(.debug_frame)

.debug_str
 *(.debug_str)

.debug_loc
 *(.debug_loc)

.debug_macinfo
 *(.debug_macinfo)

.debug_weaknames
 *(.debug_weaknames)

.debug_funcnames
 *(.debug_funcnames)

.debug_typenames
 *(.debug_typenames)

.debug_varnames
 *(.debug_varnames)

.debug_pubtypes
 *(.debug_pubtypes)

.debug_ranges
 *(.debug_ranges)

.debug_macro
 *(.debug_macro)

.debug_addr
 *(.debug_addr)

.gnu.attributes
 *(.gnu.attributes)

/DISCARD/
 *(.note.GNU-stack)
 *(.gnu_debuglink)
 *(.gnu.lto_*)
OUTPUT(sslTest elf64-x86-64)

Cross Reference Table

Symbol                                            File
CL_MemSet                                         ../../core/libcore_s.a(cl_memset.o)
GLIBC_2.10                                        /lib/x86_64-linux-gnu/libc.so.6
GLIBC_2.11                                        /usr/lib/gcc/x86_64-linux-gnu/11/../../../x86_64-linux-gnu/libpthread.so
                                                  /lib/x86_64-linux-gnu/libc.so.6
GLIBC_2.12                                        /usr/lib/gcc/x86_64-linux-gnu/11/../../../x86_64-linux-gnu/libpthread.so
                                                  /lib/x86_64-linux-gnu/libc.so.6
GLIBC_2.13                                        /lib/x86_64-linux-gnu/libc.so.6
GLIBC_2.14                                        /lib/x86_64-linux-gnu/libc.so.6
GLIBC_2.15                                        /lib/x86_64-linux-gnu/libc.so.6
GLIBC_2.16                                        /lib/x86_64-linux-gnu/libc.so.6
GLIBC_2.17                                        /lib/x86_64-linux-gnu/libc.so.6
GLIBC_2.18                                        /usr/lib/gcc/x86_64-linux-gnu/11/../../../x86_64-linux-gnu/libpthread.so
                                                  /lib/x86_64-linux-gnu/libc.so.6
GLIBC_2.2.5                                       /usr/lib/gcc/x86_64-linux-gnu/11/../../../x86_64-linux-gnu/libpthread.so
                                                  /lib/x86_64-linux-gnu/ld-linux-x86-64.so.2
                                                  /lib/x86_64-linux-gnu/libc.so.6
GLIBC_2.2.6                                       /usr/lib/gcc/x86_64-linux-gnu/11/../../../x86_64-linux-gnu/libpthread.so
                                                  /lib/x86_64-linux-gnu/libc.so.6
GLIBC_2.22                                        /lib/x86_64-linux-gnu/libc.so.6
GLIBC_2.23                                        /lib/x86_64-linux-gnu/libc.so.6
GLIBC_2.24                                        /lib/x86_64-linux-gnu/libc.so.6
GLIBC_2.25                                        /lib/x86_64-linux-gnu/libc.so.6
GLIBC_2.26                                        /lib/x86_64-linux-gnu/libc.so.6
GLIBC_2.27                                        /lib/x86_64-linux-gnu/libc.so.6
GLIBC_2.28                                        /usr/lib/gcc/x86_64-linux-gnu/11/../../../x86_64-linux-gnu/libpthread.so
                                                  /lib/x86_64-linux-gnu/libc.so.6
GLIBC_2.29                                        /lib/x86_64-linux-gnu/libc.so.6
GLIBC_2.3                                         /lib/x86_64-linux-gnu/libc.so.6
                                                  /lib/x86_64-linux-gnu/ld-linux-x86-64.so.2
GLIBC_2.3.2                                       /usr/lib/gcc/x86_64-linux-gnu/11/../../../x86_64-linux-gnu/libpthread.so
                                                  /lib/x86_64-linux-gnu/libc.so.6
GLIBC_2.3.3                                       /usr/lib/gcc/x86_64-linux-gnu/11/../../../x86_64-linux-gnu/libpthread.so
                                                  /lib/x86_64-linux-gnu/libc.so.6
GLIBC_2.3.4                                       /usr/lib/gcc/x86_64-linux-gnu/11/../../../x86_64-linux-gnu/libpthread.so
                                                  /lib/x86_64-linux-gnu/libc.so.6
GLIBC_2.30                                        /usr/lib/gcc/x86_64-linux-gnu/11/../../../x86_64-linux-gnu/libpthread.so
                                                  /lib/x86_64-linux-gnu/libc.so.6
GLIBC_2.31                                        /usr/lib/gcc/x86_64-linux-gnu/11/../../../x86_64-linux-gnu/libpthread.so
GLIBC_2.4                                         /usr/lib/gcc/x86_64-linux-gnu/11/../../../x86_64-linux-gnu/libpthread.so
                                                  /lib/x86_64-linux-gnu/ld-linux-x86-64.so.2
                                                  /lib/x86_64-linux-gnu/libc.so.6
GLIBC_2.5                                         /lib/x86_64-linux-gnu/libc.so.6
GLIBC_2.6                                         /lib/x86_64-linux-gnu/libc.so.6
GLIBC_2.7                                         /lib/x86_64-linux-gnu/libc.so.6
GLIBC_2.8                                         /lib/x86_64-linux-gnu/libc.so.6
GLIBC_2.9                                         /lib/x86_64-linux-gnu/libc.so.6
GLIBC_PRIVATE                                     /usr/lib/gcc/x86_64-linux-gnu/11/../../../x86_64-linux-gnu/libpthread.so
                                                  /lib/x86_64-linux-gnu/ld-linux-x86-64.so.2
                                                  /lib/x86_64-linux-gnu/libc.so.6
SLSodium_memset_as_a_weak_symbol_to_prevent_lto   ../../core/libcore_s.a(cl_memset.o)
SLSodium_memset_s_int                             ../../core/libcore_s.a(cl_memset.o)
                                                  ../../core/libcore_s.a(memset_s.o)
_DYNAMIC                                          /usr/lib/gcc/x86_64-linux-gnu/11/../../../x86_64-linux-gnu/Scrt1.o
_Exit                                             /lib/x86_64-linux-gnu/libc.so.6
_Exit@@GLIBC_2.2.5                                /lib/x86_64-linux-gnu/libc.so.6
_Exit@GLIBC_2.2.5                                 /lib/x86_64-linux-gnu/libc.so.6
_GLOBAL_OFFSET_TABLE_                             /usr/lib/gcc/x86_64-linux-gnu/11/../../../x86_64-linux-gnu/Scrt1.o
                                                  /usr/lib/x86_64-linux-gnu/libc_nonshared.a(elf-init.oS)
                                                  ../../core/libcore_s.a(cl_memset.o)
                                                  ../../core/libcore_s.a(osdep.o)
                                                  ../../core/libcore_s.a(psStat.o)
                                                  ../../core/libcore_s.a(psbuf.o)
                                                  ../../core/libcore_s.a(corelib_list.o)
                                                  ../../core/libcore_s.a(corelib_strings.o)
                                                  ../../core/libcore_s.a(corelib_date.o)
                                                  ../../core/libcore_s.a(corelib_trace.o)
                                                  ../../core/libcore_s.a(corelib_main.o)
                                                  ../../core/libcore_s.a(memset_s.o)
                                                  ../../crypto/libcrypt_s.a(ed25519_ref10.o)
                                                  ../../crypto/libcrypt_s.a(x25519_ref10.o)
                                                  ../../crypto/libcrypt_s.a(chacha20_ref.o)
                                                  ../../crypto/libcrypt_s.a(chacha20_dolbeau-ssse3.o)
                                                  ../../crypto/libcrypt_s.a(poly1305_donna.o)
                                                  ../../crypto/libcrypt_s.a(poly1305_sse2.o)
                                                  ../../crypto/libcrypt_s.a(pstm_montgomery_reduce.o)
                                                  ../../crypto/libcrypt_s.a(open.o)
                                                  ../../crypto/libcrypt_s.a(sign.o)
                                                  ../../crypto/libcrypt_s.a(crypto_scalarmult.o)
                                                  ../../crypto/libcrypt_s.a(onetimeauth_poly1305.o)
                                                  ../../crypto/libcrypt_s.a(stream_chacha20.o)
                                                  ../../crypto/libcrypt_s.a(pubkey_parse_mem.o)
                                                  ../../crypto/libcrypt_s.a(ecc_parse_file.o)
                                                  ../../crypto/libcrypt_s.a(ecc_math.o)
                                                  ../../crypto/libcrypt_s.a(pem_decode_file.o)
                                                  ../../crypto/libcrypt_s.a(crl.o)
                                                  ../../crypto/libcrypt_s.a(asn1.o)
                                                  ../../crypto/libcrypt_s.a(des3.o)
                                                  ../../crypto/libcrypt_s.a(ps_ed25519.o)
                                                  ../../crypto/libcrypt_s.a(ps_x25519.o)
                                                  ../../crypto/libcrypt_s.a(utils.o)
                                                  ../../crypto/libcrypt_s.a(aead_chacha20poly1305.o)
                                                  ../../crypto/libcrypt_s.a(ps_chacha20poly1305ietf.o)
                                                  ../../crypto/libcrypt_s.a(rsa_parse_file.o)
                                                  ../../crypto/libcrypt_s.a(rsa_parse_mem.o)
                                                  ../../crypto/libcrypt_s.a(rsa_pub.o)
                                                  ../../crypto/libcrypt_s.a(rsa_priv.o)
                                                  ../../crypto/libcrypt_s.a(rsa.o)
                                                  ../../crypto/libcrypt_s.a(pubkey_parse_file.o)
                                                  ../../crypto/libcrypt_s.a(pubkey_verify.o)
                                                  ../../crypto/libcrypt_s.a(pubkey_sign.o)
                                                  ../../crypto/libcrypt_s.a(pubkey.o)
                                                  ../../crypto/libcrypt_s.a(ecc_import.o)
                                                  ../../crypto/libcrypt_s.a(ecc_export.o)
                                                  ../../crypto/libcrypt_s.a(ecc_parse_mem.o)
                                                  ../../crypto/libcrypt_s.a(ecc_gen_shared.o)
                                                  ../../crypto/libcrypt_s.a(ecc_keygen.o)
                                                  ../../crypto/libcrypt_s.a(ecc_pub.o)
                                                  ../../crypto/libcrypt_s.a(ecc_priv.o)
                                                  ../../crypto/libcrypt_s.a(ecc_curve.o)
                                                  ../../crypto/libcrypt_s.a(ecc.o)
                                                  ../../crypto/libcrypt_s.a(dh_gen_secret.o)
                                                  ../../crypto/libcrypt_s.a(dh_gen_key.o)
                                                  ../../crypto/libcrypt_s.a(dh_import.o)
                                                  ../../crypto/libcrypt_s.a(dh_export.o)
                                                  ../../crypto/libcrypt_s.a(dh_params.o)
                                                  ../../crypto/libcrypt_s.a(dh.o)
                                                  ../../crypto/libcrypt_s.a(prng.o)
                                                  ../../crypto/libcrypt_s.a(pstm_sqr_comba.o)
                                                  ../../crypto/libcrypt_s.a(pstm_mul_comba.o)
                                                  ../../crypto/libcrypt_s.a(pstmnt.o)
                                                  ../../crypto/libcrypt_s.a(pstm.o)
                                                  ../../crypto/libcrypt_s.a(matrix.o)
                                                  ../../crypto/libcrypt_s.a(x509.o)
                                                  ../../crypto/libcrypt_s.a(pkcs.o)
                                                  ../../crypto/libcrypt_s.a(pem_decode_mem.o)
                                                  ../../crypto/libcrypt_s.a(hkdf.o)
                                                  ../../crypto/libcrypt_s.a(hmac.o)
                                                  ../../crypto/libcrypt_s.a(md5.o)
                                                  ../../crypto/libcrypt_s.a(md5sha1.o)
                                                  ../../crypto/libcrypt_s.a(sha512.o)
                                                  ../../crypto/libcrypt_s.a(sha256.o)
                                                  ../../crypto/libcrypt_s.a(sha1.o)
                                                  ../../crypto/libcrypt_s.a(aes_aesni.o)
                                                  ../../crypto/libcrypt_s.a(alg_info.o)
                                                  ../libssl_s.a(extDecode.o)
                                                  ../libssl_s.a(tls13Authenticate.o)
                                                  ../libssl_s.a(hsDecode.o)
                                                  ../libssl_s.a(tls.o)
                                                  ../libssl_s.a(tls13TrHash.o)
                                                  ../libssl_s.a(tls13SigVer.o)
                                                  ../libssl_s.a(tls13Resume.o)
                                                  ../libssl_s.a(tls13Psk.o)
                                                  ../libssl_s.a(tls13Negotiate.o)
                                                  ../libssl_s.a(tls13KeySchedule.o)
                                                  ../libssl_s.a(tls13KeyAgree.o)
                                                  ../libssl_s.a(tls13DecodeExt.o)
                                                  ../libssl_s.a(tls13Decode.o)
                                                  ../libssl_s.a(tls13EncodeExt.o)
                                                  ../libssl_s.a(tls13Encode.o)
                                                  ../libssl_s.a(tls13CipherSuite.o)
                                                  ../libssl_s.a(tlsSigVer.o)
                                                  ../libssl_s.a(tlsSelectKeys.o)
                                                  ../libssl_s.a(tlsDefaults.o)
                                                  ../libssl_s.a(sslEncode.o)
                                                  ../libssl_s.a(sslDecode.o)
                                                  ../libssl_s.a(psk.o)
                                                  ../libssl_s.a(prf.o)
                                                  ../libssl_s.a(matrixsslInitVer.o)
                                                  ../libssl_s.a(matrixsslApi.o)
                                                  ../libssl_s.a(matrixsslKeys.o)
                                                  ../libssl_s.a(matrixssl.o)
                                                  ../libssl_s.a(hsNegotiateVersion.o)
                                                  ../libssl_s.a(hsHash.o)
                                                  ../libssl_s.a(dtls.o)
                                                  ../libssl_s.a(cipherSuite.o)
                                                  sslTest.o
                                                  /usr/lib/gcc/x86_64-linux-gnu/11/crtbeginS.o
                                                  /usr/lib/gcc/x86_64-linux-gnu/11/../../../x86_64-linux-gnu/crti.o
_IO_fprintf                                       /lib/x86_64-linux-gnu/libc.so.6
_IO_fprintf@@GLIBC_2.2.5                          /lib/x86_64-linux-gnu/libc.so.6
_IO_fprintf@GLIBC_2.2.5                           /lib/x86_64-linux-gnu/libc.so.6
_IO_stdin_used                                    /usr/lib/gcc/x86_64-linux-gnu/11/../../../x86_64-linux-gnu/Scrt1.o
_ITM_deregisterTMCloneTable                       /usr/lib/gcc/x86_64-linux-gnu/11/../../../x86_64-linux-gnu/libpthread.so
                                                  /usr/lib/gcc/x86_64-linux-gnu/11/crtbeginS.o
_ITM_registerTMCloneTable                         /usr/lib/gcc/x86_64-linux-gnu/11/../../../x86_64-linux-gnu/libpthread.so
                                                  /usr/lib/gcc/x86_64-linux-gnu/11/crtbeginS.o
__GNU_EH_FRAME_HDR                                sslTest
__TMC_END__                                       /usr/lib/gcc/x86_64-linux-gnu/11/crtendS.o
                                                  /usr/lib/gcc/x86_64-linux-gnu/11/crtbeginS.o
__after_morecore_hook                             /lib/x86_64-linux-gnu/libc.so.6
__after_morecore_hook@@GLIBC_2.2.5                /lib/x86_64-linux-gnu/libc.so.6
__after_morecore_hook@GLIBC_2.2.5                 /lib/x86_64-linux-gnu/libc.so.6
__assert_fail                                     /lib/x86_64-linux-gnu/libc.so.6
                                                  ../../core/libcore_s.a(psbuf.o)
                                                  ../../crypto/libcrypt_s.a(pstmnt.o)
                                                  sslTest.o
__assert_fail@@GLIBC_2.2.5                        /lib/x86_64-linux-gnu/libc.so.6
__assert_fail@GLIBC_2.2.5                         /lib/x86_64-linux-gnu/libc.so.6
                                                  /usr/lib/gcc/x86_64-linux-gnu/11/../../../x86_64-linux-gnu/libpthread.so
__compat_bdflush                                  /lib/x86_64-linux-gnu/libc.so.6
__connect                                         /usr/lib/gcc/x86_64-linux-gnu/11/../../../x86_64-linux-gnu/libpthread.so
__connect@@GLIBC_2.2.5                            /usr/lib/gcc/x86_64-linux-gnu/11/../../../x86_64-linux-gnu/libpthread.so
                                                  /lib/x86_64-linux-gnu/libc.so.6
__connect@GLIBC_2.2.5                             /usr/lib/gcc/x86_64-linux-gnu/11/../../../x86_64-linux-gnu/libpthread.so
__ctype_get_mb_cur_max                            /lib/x86_64-linux-gnu/libc.so.6
__ctype_get_mb_cur_max@@GLIBC_2.2.5               /lib/x86_64-linux-gnu/libc.so.6
__ctype_get_mb_cur_max@GLIBC_2.2.5                /lib/x86_64-linux-gnu/libc.so.6
__ctype_toupper_loc                               /lib/x86_64-linux-gnu/libc.so.6
                                                  ../../crypto/libcrypt_s.a(pstm.o)
__ctype_toupper_loc@@GLIBC_2.3                    /lib/x86_64-linux-gnu/libc.so.6
__ctype_toupper_loc@GLIBC_2.3                     /lib/x86_64-linux-gnu/libc.so.6
__cxa_finalize                                    /lib/x86_64-linux-gnu/libc.so.6
                                                  /usr/lib/gcc/x86_64-linux-gnu/11/crtbeginS.o
__cxa_finalize@@GLIBC_2.2.5                       /lib/x86_64-linux-gnu/libc.so.6
__cxa_finalize@GLIBC_2.2.5                        /lib/x86_64-linux-gnu/libc.so.6
                                                  /usr/lib/gcc/x86_64-linux-gnu/11/../../../x86_64-linux-gnu/libpthread.so
__data_start                                      /usr/lib/gcc/x86_64-linux-gnu/11/../../../x86_64-linux-gnu/Scrt1.o
__dso_handle                                      /usr/lib/gcc/x86_64-linux-gnu/11/crtbeginS.o
__errno_location                                  /usr/lib/gcc/x86_64-linux-gnu/11/../../../x86_64-linux-gnu/libpthread.so
                                                  ../../core/libcore_s.a(osdep.o)
                                                  ../../crypto/libcrypt_s.a(utils.o)
__errno_location@@GLIBC_2.2.5                     /usr/lib/gcc/x86_64-linux-gnu/11/../../../x86_64-linux-gnu/libpthread.so
                                                  /lib/x86_64-linux-gnu/libc.so.6
__errno_location@GLIBC_2.2.5                      /usr/lib/gcc/x86_64-linux-gnu/11/../../../x86_64-linux-gnu/libpthread.so
__fcntl                                           /lib/x86_64-linux-gnu/libc.so.6
__fcntl@@GLIBC_2.2.5                              /lib/x86_64-linux-gnu/libc.so.6
__fcntl@GLIBC_2.2.5                               /usr/lib/gcc/x86_64-linux-gnu/11/../../../x86_64-linux-gnu/libpthread.so
__fprintf_chk                                     /lib/x86_64-linux-gnu/libc.so.6
                                                  ../../core/libcore_s.a(osdep.o)
                                                  sslTest.o
__fprintf_chk@@GLIBC_2.3.4                        /lib/x86_64-linux-gnu/libc.so.6
__fprintf_chk@GLIBC_2.3.4                         /lib/x86_64-linux-gnu/libc.so.6
__free_hook                                       /lib/x86_64-linux-gnu/libc.so.6
__free_hook@@GLIBC_2.2.5                          /lib/x86_64-linux-gnu/libc.so.6
__free_hook@GLIBC_2.2.5                           /lib/x86_64-linux-gnu/libc.so.6
__getdelim                                        /lib/x86_64-linux-gnu/libc.so.6
__getdelim@@GLIBC_2.2.5                           /lib/x86_64-linux-gnu/libc.so.6
__getdelim@GLIBC_2.2.5                            /lib/x86_64-linux-gnu/libc.so.6
                                                  /usr/lib/gcc/x86_64-linux-gnu/11/../../../x86_64-linux-gnu/libpthread.so
__gmon_start__                                    /usr/lib/gcc/x86_64-linux-gnu/11/../../../x86_64-linux-gnu/crti.o
__init_array_end                                  /usr/lib/x86_64-linux-gnu/libc_nonshared.a(elf-init.oS)
__init_array_start                                /usr/lib/x86_64-linux-gnu/libc_nonshared.a(elf-init.oS)
__isascii_l                                       /lib/x86_64-linux-gnu/libc.so.6
__isascii_l@@GLIBC_2.2.5                          /lib/x86_64-linux-gnu/libc.so.6
__isascii_l@GLIBC_2.2.5                           /lib/x86_64-linux-gnu/libc.so.6
__libc_csu_fini                                   /usr/lib/x86_64-linux-gnu/libc_nonshared.a(elf-init.oS)
                                                  /usr/lib/gcc/x86_64-linux-gnu/11/../../../x86_64-linux-gnu/Scrt1.o
__libc_csu_init                                   /usr/lib/x86_64-linux-gnu/libc_nonshared.a(elf-init.oS)
                                                  /usr/lib/gcc/x86_64-linux-gnu/11/../../../x86_64-linux-gnu/Scrt1.o
__libc_secure_getenv                              /lib/x86_64-linux-gnu/libc.so.6
__libc_secure_getenv@@GLIBC_PRIVATE               /lib/x86_64-linux-gnu/libc.so.6
__libc_secure_getenv@GLIBC_PRIVATE                /lib/x86_64-linux-gnu/libc.so.6
__libdl_freeres                                   /lib/x86_64-linux-gnu/libc.so.6
__lseek                                           /usr/lib/gcc/x86_64-linux-gnu/11/../../../x86_64-linux-gnu/libpthread.so
__lseek@@GLIBC_2.2.5                              /usr/lib/gcc/x86_64-linux-gnu/11/../../../x86_64-linux-gnu/libpthread.so
                                                  /lib/x86_64-linux-gnu/libc.so.6
__lseek@GLIBC_2.2.5                               /usr/lib/gcc/x86_64-linux-gnu/11/../../../x86_64-linux-gnu/libpthread.so
__malloc_hook                                     /lib/x86_64-linux-gnu/libc.so.6
__malloc_hook@@GLIBC_2.2.5                        /lib/x86_64-linux-gnu/libc.so.6
__malloc_hook@GLIBC_2.2.5                         /lib/x86_64-linux-gnu/libc.so.6
__malloc_initialize_hook@GLIBC_2.2.5              /lib/x86_64-linux-gnu/libc.so.6
__memalign_hook                                   /lib/x86_64-linux-gnu/libc.so.6
__memalign_hook@@GLIBC_2.2.5                      /lib/x86_64-linux-gnu/libc.so.6
__memalign_hook@GLIBC_2.2.5                       /lib/x86_64-linux-gnu/libc.so.6
__memcpy_chk                                      /lib/x86_64-linux-gnu/libc.so.6
                                                  ../../crypto/libcrypt_s.a(pstmnt.o)
                                                  ../../crypto/libcrypt_s.a(pstm.o)
                                                  ../../crypto/libcrypt_s.a(pkcs.o)
                                                  ../../crypto/libcrypt_s.a(hkdf.o)
                                                  ../../crypto/libcrypt_s.a(aes_aesni.o)
                                                  ../libssl_s.a(tls.o)
                                                  ../libssl_s.a(matrixssl.o)
                                                  ../libssl_s.a(dtls.o)
__memcpy_chk@@GLIBC_2.3.4                         /lib/x86_64-linux-gnu/libc.so.6
__memcpy_chk@GLIBC_2.3.4                          /lib/x86_64-linux-gnu/libc.so.6
__memset_chk                                      /lib/x86_64-linux-gnu/libc.so.6
                                                  ../../crypto/libcrypt_s.a(pkcs.o)
                                                  ../libssl_s.a(tls13KeySchedule.o)
__memset_chk@@GLIBC_2.3.4                         /lib/x86_64-linux-gnu/libc.so.6
__memset_chk@GLIBC_2.3.4                          /lib/x86_64-linux-gnu/libc.so.6
__pread64                                         /usr/lib/gcc/x86_64-linux-gnu/11/../../../x86_64-linux-gnu/libpthread.so
__pread64@@GLIBC_2.2.5                            /usr/lib/gcc/x86_64-linux-gnu/11/../../../x86_64-linux-gnu/libpthread.so
                                                  /lib/x86_64-linux-gnu/libc.so.6
__pread64@GLIBC_2.2.5                             /usr/lib/gcc/x86_64-linux-gnu/11/../../../x86_64-linux-gnu/libpthread.so
__printf_chk                                      /lib/x86_64-linux-gnu/libc.so.6
                                                  sslTest.o
__printf_chk@@GLIBC_2.3.4                         /lib/x86_64-linux-gnu/libc.so.6
__printf_chk@GLIBC_2.3.4                          /lib/x86_64-linux-gnu/libc.so.6
__pthread_initialize_minimal                      /usr/lib/gcc/x86_64-linux-gnu/11/../../../x86_64-linux-gnu/libpthread.so
__pthread_initialize_minimal@@GLIBC_PRIVATE       /usr/lib/gcc/x86_64-linux-gnu/11/../../../x86_64-linux-gnu/libpthread.so
__pthread_initialize_minimal@GLIBC_PRIVATE        /usr/lib/gcc/x86_64-linux-gnu/11/../../../x86_64-linux-gnu/libpthread.so
__pwrite64                                        /usr/lib/gcc/x86_64-linux-gnu/11/../../../x86_64-linux-gnu/libpthread.so
__pwrite64@@GLIBC_2.2.5                           /usr/lib/gcc/x86_64-linux-gnu/11/../../../x86_64-linux-gnu/libpthread.so
                                                  /lib/x86_64-linux-gnu/libc.so.6
__pwrite64@GLIBC_2.2.5                            /usr/lib/gcc/x86_64-linux-gnu/11/../../../x86_64-linux-gnu/libpthread.so
__read                                            /usr/lib/gcc/x86_64-linux-gnu/11/../../../x86_64-linux-gnu/libpthread.so
__read@@GLIBC_2.2.5                               /usr/lib/gcc/x86_64-linux-gnu/11/../../../x86_64-linux-gnu/libpthread.so
                                                  /lib/x86_64-linux-gnu/libc.so.6
__read@GLIBC_2.2.5                                /usr/lib/gcc/x86_64-linux-gnu/11/../../../x86_64-linux-gnu/libpthread.so
__realloc_hook                                    /lib/x86_64-linux-gnu/libc.so.6
__realloc_hook@@GLIBC_2.2.5                       /lib/x86_64-linux-gnu/libc.so.6
__realloc_hook@GLIBC_2.2.5                        /lib/x86_64-linux-gnu/libc.so.6
__recv                                            /lib/x86_64-linux-gnu/libc.so.6
__recv@@GLIBC_PRIVATE                             /lib/x86_64-linux-gnu/libc.so.6
__recv@GLIBC_PRIVATE                              /lib/x86_64-linux-gnu/libc.so.6
__secure_getenv@GLIBC_2.2.5                       /lib/x86_64-linux-gnu/libc.so.6
__send                                            /usr/lib/gcc/x86_64-linux-gnu/11/../../../x86_64-linux-gnu/libpthread.so
__send@@GLIBC_2.2.5                               /usr/lib/gcc/x86_64-linux-gnu/11/../../../x86_64-linux-gnu/libpthread.so
                                                  /lib/x86_64-linux-gnu/libc.so.6
__send@GLIBC_2.2.5                                /usr/lib/gcc/x86_64-linux-gnu/11/../../../x86_64-linux-gnu/libpthread.so
__snprintf_chk                                    /lib/x86_64-linux-gnu/libc.so.6
                                                  ../../core/libcore_s.a(psStat.o)
                                                  ../libssl_s.a(matrixssl.o)
__snprintf_chk@@GLIBC_2.3.4                       /lib/x86_64-linux-gnu/libc.so.6
__snprintf_chk@GLIBC_2.3.4                        /lib/x86_64-linux-gnu/libc.so.6
__stack_chk_fail                                  /lib/x86_64-linux-gnu/libc.so.6
                                                  ../../core/libcore_s.a(osdep.o)
                                                  ../../core/libcore_s.a(psStat.o)
                                                  ../../core/libcore_s.a(psbuf.o)
                                                  ../../core/libcore_s.a(corelib_strings.o)
                                                  ../../core/libcore_s.a(corelib_date.o)
                                                  ../../core/libcore_s.a(corelib_trace.o)
                                                  ../../core/libcore_s.a(corelib_main.o)
                                                  ../../crypto/libcrypt_s.a(ed25519_ref10.o)
                                                  ../../crypto/libcrypt_s.a(x25519_ref10.o)
                                                  ../../crypto/libcrypt_s.a(chacha20_ref.o)
                                                  ../../crypto/libcrypt_s.a(chacha20_dolbeau-ssse3.o)
                                                  ../../crypto/libcrypt_s.a(poly1305_donna.o)
                                                  ../../crypto/libcrypt_s.a(poly1305_sse2.o)
                                                  ../../crypto/libcrypt_s.a(open.o)
                                                  ../../crypto/libcrypt_s.a(sign.o)
                                                  ../../crypto/libcrypt_s.a(pubkey_parse_mem.o)
                                                  ../../crypto/libcrypt_s.a(ecc_parse_file.o)
                                                  ../../crypto/libcrypt_s.a(ecc_math.o)
                                                  ../../crypto/libcrypt_s.a(pem_decode_file.o)
                                                  ../../crypto/libcrypt_s.a(crl.o)
                                                  ../../crypto/libcrypt_s.a(asn1.o)
                                                  ../../crypto/libcrypt_s.a(des3.o)
                                                  ../../crypto/libcrypt_s.a(ps_ed25519.o)
                                                  ../../crypto/libcrypt_s.a(ps_x25519.o)
                                                  ../../crypto/libcrypt_s.a(aead_chacha20poly1305.o)
                                                  ../../crypto/libcrypt_s.a(rsa_parse_file.o)
                                                  ../../crypto/libcrypt_s.a(rsa_parse_mem.o)
                                                  ../../crypto/libcrypt_s.a(rsa_pub.o)
                                                  ../../crypto/libcrypt_s.a(rsa_priv.o)
                                                  ../../crypto/libcrypt_s.a(rsa.o)
                                                  ../../crypto/libcrypt_s.a(pubkey_parse_file.o)
                                                  ../../crypto/libcrypt_s.a(pubkey_verify.o)
                                                  ../../crypto/libcrypt_s.a(pubkey_sign.o)
                                                  ../../crypto/libcrypt_s.a(ecc_import.o)
                                                  ../../crypto/libcrypt_s.a(ecc_export.o)
                                                  ../../crypto/libcrypt_s.a(ecc_parse_mem.o)
                                                  ../../crypto/libcrypt_s.a(ecc_gen_shared.o)
                                                  ../../crypto/libcrypt_s.a(ecc_keygen.o)
                                                  ../../crypto/libcrypt_s.a(ecc_pub.o)
                                                  ../../crypto/libcrypt_s.a(ecc_priv.o)
                                                  ../../crypto/libcrypt_s.a(dh_gen_secret.o)
                                                  ../../crypto/libcrypt_s.a(dh_gen_key.o)
                                                  ../../crypto/libcrypt_s.a(dh_params.o)
                                                  ../../crypto/libcrypt_s.a(pstm_sqr_comba.o)
                                                  ../../crypto/libcrypt_s.a(pstm_mul_comba.o)
                                                  ../../crypto/libcrypt_s.a(pstmnt.o)
                                                  ../../crypto/libcrypt_s.a(pstm.o)
                                                  ../../crypto/libcrypt_s.a(matrix.o)
                                                  ../../crypto/libcrypt_s.a(x509.o)
                                                  ../../crypto/libcrypt_s.a(pkcs.o)
                                                  ../../crypto/libcrypt_s.a(pem_decode_mem.o)
                                                  ../../crypto/libcrypt_s.a(hkdf.o)
                                                  ../../crypto/libcrypt_s.a(hmac.o)
                                                  ../../crypto/libcrypt_s.a(md5.o)
                                                  ../../crypto/libcrypt_s.a(sha512.o)
                                                  ../../crypto/libcrypt_s.a(sha256.o)
                                                  ../../crypto/libcrypt_s.a(sha1.o)
                                                  ../../crypto/libcrypt_s.a(aes_aesni.o)
                                                  ../libssl_s.a(extDecode.o)
                                                  ../libssl_s.a(tls13Authenticate.o)
                                                  ../libssl_s.a(hsDecode.o)
                                                  ../libssl_s.a(tls.o)
                                                  ../libssl_s.a(tls13TrHash.o)
                                                  ../libssl_s.a(tls13SigVer.o)
                                                  ../libssl_s.a(tls13Resume.o)
                                                  ../libssl_s.a(tls13KeySchedule.o)
                                                  ../libssl_s.a(tls13KeyAgree.o)
                                                  ../libssl_s.a(tls13DecodeExt.o)
                                                  ../libssl_s.a(tls13Decode.o)
                                                  ../libssl_s.a(tls13EncodeExt.o)
                                                  ../libssl_s.a(tls13Encode.o)
                                                  ../libssl_s.a(tls13CipherSuite.o)
                                                  ../libssl_s.a(tlsSigVer.o)
                                                  ../libssl_s.a(sslEncode.o)
                                                  ../libssl_s.a(sslDecode.o)
                                                  ../libssl_s.a(prf.o)
                                                  ../libssl_s.a(matrixsslInitVer.o)
                                                  ../libssl_s.a(matrixsslApi.o)
                                                  ../libssl_s.a(matrixsslKeys.o)
                                                  ../libssl_s.a(matrixssl.o)
                                                  ../libssl_s.a(hsNegotiateVersion.o)
                                                  ../libssl_s.a(hsHash.o)
                                                  ../libssl_s.a(dtls.o)
                                                  ../libssl_s.a(cipherSuite.o)
                                                  sslTest.o
__stack_chk_fail@@GLIBC_2.4                       /lib/x86_64-linux-gnu/libc.so.6
__stack_chk_fail@GLIBC_2.4                        /lib/x86_64-linux-gnu/libc.so.6
                                                  /usr/lib/gcc/x86_64-linux-gnu/11/../../../x86_64-linux-gnu/libpthread.so
__strtoll_l                                       /lib/x86_64-linux-gnu/libc.so.6
__strtoll_l@@GLIBC_2.2.5                          /lib/x86_64-linux-gnu/libc.so.6
__strtoll_l@GLIBC_2.2.5                           /lib/x86_64-linux-gnu/libc.so.6
__strtoull_l                                      /lib/x86_64-linux-gnu/libc.so.6
__strtoull_l@@GLIBC_2.2.5                         /lib/x86_64-linux-gnu/libc.so.6
__strtoull_l@GLIBC_2.2.5                          /lib/x86_64-linux-gnu/libc.so.6
__toascii_l                                       /lib/x86_64-linux-gnu/libc.so.6
__toascii_l@@GLIBC_2.2.5                          /lib/x86_64-linux-gnu/libc.so.6
__toascii_l@GLIBC_2.2.5                           /lib/x86_64-linux-gnu/libc.so.6
__vsnprintf                                       /lib/x86_64-linux-gnu/libc.so.6
__vsnprintf@@GLIBC_2.2.5                          /lib/x86_64-linux-gnu/libc.so.6
__vsnprintf@GLIBC_2.2.5                           /lib/x86_64-linux-gnu/libc.so.6
__vsscanf                                         /lib/x86_64-linux-gnu/libc.so.6
__vsscanf@@GLIBC_2.2.5                            /lib/x86_64-linux-gnu/libc.so.6
__vsscanf@GLIBC_2.2.5                             /lib/x86_64-linux-gnu/libc.so.6
__wcstoll_l                                       /lib/x86_64-linux-gnu/libc.so.6
__wcstoll_l@@GLIBC_2.2.5                          /lib/x86_64-linux-gnu/libc.so.6
__wcstoll_l@GLIBC_2.2.5                           /lib/x86_64-linux-gnu/libc.so.6
__wcstoull_l                                      /lib/x86_64-linux-gnu/libc.so.6
__wcstoull_l@@GLIBC_2.2.5                         /lib/x86_64-linux-gnu/libc.so.6
__wcstoull_l@GLIBC_2.2.5                          /lib/x86_64-linux-gnu/libc.so.6
__write                                           /usr/lib/gcc/x86_64-linux-gnu/11/../../../x86_64-linux-gnu/libpthread.so
__write@@GLIBC_2.2.5                              /usr/lib/gcc/x86_64-linux-gnu/11/../../../x86_64-linux-gnu/libpthread.so
                                                  /lib/x86_64-linux-gnu/libc.so.6
__write@GLIBC_2.2.5                               /usr/lib/gcc/x86_64-linux-gnu/11/../../../x86_64-linux-gnu/libpthread.so
__xpg_sigpause                                    /lib/x86_64-linux-gnu/libc.so.6
__xpg_sigpause@@GLIBC_2.2.5                       /lib/x86_64-linux-gnu/libc.so.6
__xpg_sigpause@GLIBC_2.2.5                        /lib/x86_64-linux-gnu/libc.so.6
_dl_starting_up                                   /lib/x86_64-linux-gnu/libc.so.6
_environ                                          /lib/x86_64-linux-gnu/libc.so.6
_environ@@GLIBC_2.2.5                             /lib/x86_64-linux-gnu/libc.so.6
_environ@GLIBC_2.2.5                              /lib/x86_64-linux-gnu/libc.so.6
_fini                                             /usr/lib/gcc/x86_64-linux-gnu/11/../../../x86_64-linux-gnu/crti.o
_flushlbf                                         /lib/x86_64-linux-gnu/libc.so.6
_flushlbf@@GLIBC_2.2.5                            /lib/x86_64-linux-gnu/libc.so.6
_flushlbf@GLIBC_2.2.5                             /lib/x86_64-linux-gnu/libc.so.6
_init                                             /usr/lib/gcc/x86_64-linux-gnu/11/../../../x86_64-linux-gnu/crti.o
                                                  /usr/lib/x86_64-linux-gnu/libc_nonshared.a(elf-init.oS)
_longjmp                                          /lib/x86_64-linux-gnu/libc.so.6
_longjmp@@GLIBC_2.2.5                             /lib/x86_64-linux-gnu/libc.so.6
_longjmp@GLIBC_2.2.5                              /lib/x86_64-linux-gnu/libc.so.6
_psError                                          ../../core/libcore_s.a(corelib_trace.o)
                                                  ../../core/libcore_s.a(psStat.o)
                                                  ../../crypto/libcrypt_s.a(crl.o)
                                                  ../../crypto/libcrypt_s.a(rsa_priv.o)
                                                  ../../crypto/libcrypt_s.a(pubkey_sign.o)
                                                  ../../crypto/libcrypt_s.a(ecc_parse_mem.o)
                                                  ../../crypto/libcrypt_s.a(ecc_keygen.o)
                                                  ../../crypto/libcrypt_s.a(ecc.o)
                                                  ../../crypto/libcrypt_s.a(dh_gen_key.o)
                                                  ../../crypto/libcrypt_s.a(dh_params.o)
                                                  ../../crypto/libcrypt_s.a(dh.o)
                                                  ../../crypto/libcrypt_s.a(matrix.o)
                                                  ../../crypto/libcrypt_s.a(x509.o)
                                                  ../../crypto/libcrypt_s.a(pkcs.o)
                                                  ../../crypto/libcrypt_s.a(pem_decode_mem.o)
                                                  ../../crypto/libcrypt_s.a(hmac.o)
                                                  ../../crypto/libcrypt_s.a(sha512.o)
                                                  ../../crypto/libcrypt_s.a(alg_info.o)
                                                  ../libssl_s.a(hsDecode.o)
                                                  ../libssl_s.a(tls.o)
                                                  ../libssl_s.a(tls13SigVer.o)
                                                  ../libssl_s.a(tls13KeySchedule.o)
                                                  ../libssl_s.a(tls13KeyAgree.o)
                                                  ../libssl_s.a(tls13DecodeExt.o)
                                                  ../libssl_s.a(tls13Decode.o)
                                                  ../libssl_s.a(tls13EncodeExt.o)
                                                  ../libssl_s.a(tls13Encode.o)
                                                  ../libssl_s.a(tlsSigVer.o)
                                                  ../libssl_s.a(sslEncode.o)
                                                  ../libssl_s.a(sslDecode.o)
                                                  ../libssl_s.a(prf.o)
                                                  ../libssl_s.a(matrixsslInitVer.o)
                                                  ../libssl_s.a(matrixsslApi.o)
                                                  ../libssl_s.a(matrixsslKeys.o)
                                                  ../libssl_s.a(matrixssl.o)
                                                  ../libssl_s.a(cipherSuite.o)
_psErrorInt                                       ../../core/libcore_s.a(corelib_trace.o)
                                                  ../../core/libcore_s.a(osdep.o)
_psErrorStr                                       ../../core/libcore_s.a(corelib_trace.o)
                                                  ../../core/libcore_s.a(corelib_main.o)
                                                  ../../crypto/libcrypt_s.a(matrix.o)
                                                  ../libssl_s.a(matrixssl.o)
_psGetTraceFile                                   ../../core/libcore_s.a(osdep.o)
_psSodium_crypto_scalarmult_curve25519_pick_best_implementation ../../crypto/libcrypt_s.a(scalarmult_curve25519.o)
_psSodium_crypto_sign_ed25519_detached            ../../crypto/libcrypt_s.a(sign.o)
_psSodium_crypto_sign_ed25519_verify_detached     ../../crypto/libcrypt_s.a(open.o)
_psTrace                                          ../../core/libcore_s.a(osdep.o)
                                                  ../../core/libcore_s.a(corelib_trace.o)
                                                  ../../crypto/libcrypt_s.a(x509.o)
                                                  ../libssl_s.a(tls13Resume.o)
                                                  ../libssl_s.a(matrixssl.o)
_psTraceInt                                       ../../core/libcore_s.a(osdep.o)
                                                  ../../core/libcore_s.a(psStat.o)
                                                  ../../core/libcore_s.a(corelib_trace.o)
                                                  ../../core/libcore_s.a(corelib_main.o)
                                                  ../../crypto/libcrypt_s.a(crl.o)
                                                  ../../crypto/libcrypt_s.a(rsa_priv.o)
                                                  ../../crypto/libcrypt_s.a(pubkey_sign.o)
                                                  ../../crypto/libcrypt_s.a(ecc_parse_mem.o)
                                                  ../../crypto/libcrypt_s.a(ecc_keygen.o)
                                                  ../../crypto/libcrypt_s.a(ecc.o)
                                                  ../../crypto/libcrypt_s.a(dh_gen_key.o)
                                                  ../../crypto/libcrypt_s.a(dh_params.o)
                                                  ../../crypto/libcrypt_s.a(dh.o)
                                                  ../../crypto/libcrypt_s.a(matrix.o)
                                                  ../../crypto/libcrypt_s.a(x509.o)
                                                  ../../crypto/libcrypt_s.a(pkcs.o)
                                                  ../../crypto/libcrypt_s.a(pem_decode_mem.o)
                                                  ../../crypto/libcrypt_s.a(hmac.o)
                                                  ../../crypto/libcrypt_s.a(sha512.o)
                                                  ../../crypto/libcrypt_s.a(alg_info.o)
                                                  ../libssl_s.a(hsDecode.o)
                                                  ../libssl_s.a(tls.o)
                                                  ../libssl_s.a(tls13SigVer.o)
                                                  ../libssl_s.a(tls13KeySchedule.o)
                                                  ../libssl_s.a(tls13KeyAgree.o)
                                                  ../libssl_s.a(tls13DecodeExt.o)
                                                  ../libssl_s.a(tls13Decode.o)
                                                  ../libssl_s.a(tls13EncodeExt.o)
                                                  ../libssl_s.a(tls13Encode.o)
                                                  ../libssl_s.a(tlsSigVer.o)
                                                  ../libssl_s.a(sslEncode.o)
                                                  ../libssl_s.a(sslDecode.o)
                                                  ../libssl_s.a(prf.o)
                                                  ../libssl_s.a(matrixsslInitVer.o)
                                                  ../libssl_s.a(matrixsslApi.o)
                                                  ../libssl_s.a(matrixsslKeys.o)
                                                  ../libssl_s.a(matrixssl.o)
                                                  ../libssl_s.a(cipherSuite.o)
_psTracePtr                                       ../../core/libcore_s.a(osdep.o)
_psTraceStr                                       ../../core/libcore_s.a(osdep.o)
                                                  ../../core/libcore_s.a(psStat.o)
                                                  ../../core/libcore_s.a(corelib_trace.o)
                                                  ../../core/libcore_s.a(corelib_main.o)
                                                  ../../crypto/libcrypt_s.a(crl.o)
                                                  ../../crypto/libcrypt_s.a(rsa_priv.o)
                                                  ../../crypto/libcrypt_s.a(pubkey_sign.o)
                                                  ../../crypto/libcrypt_s.a(ecc_parse_mem.o)
                                                  ../../crypto/libcrypt_s.a(ecc_keygen.o)
                                                  ../../crypto/libcrypt_s.a(ecc.o)
                                                  ../../crypto/libcrypt_s.a(dh_gen_key.o)
                                                  ../../crypto/libcrypt_s.a(dh_params.o)
                                                  ../../crypto/libcrypt_s.a(dh.o)
                                                  ../../crypto/libcrypt_s.a(matrix.o)
                                                  ../../crypto/libcrypt_s.a(x509.o)
                                                  ../../crypto/libcrypt_s.a(pkcs.o)
                                                  ../../crypto/libcrypt_s.a(pem_decode_mem.o)
                                                  ../../crypto/libcrypt_s.a(hmac.o)
                                                  ../../crypto/libcrypt_s.a(sha512.o)
                                                  ../../crypto/libcrypt_s.a(alg_info.o)
                                                  ../libssl_s.a(hsDecode.o)
                                                  ../libssl_s.a(tls.o)
                                                  ../libssl_s.a(tls13SigVer.o)
                                                  ../libssl_s.a(tls13KeySchedule.o)
                                                  ../libssl_s.a(tls13KeyAgree.o)
                                                  ../libssl_s.a(tls13DecodeExt.o)
                                                  ../libssl_s.a(tls13Decode.o)
                                                  ../libssl_s.a(tls13EncodeExt.o)
                                                  ../libssl_s.a(tls13Encode.o)
                                                  ../libssl_s.a(tlsSigVer.o)
                                                  ../libssl_s.a(sslEncode.o)
                                                  ../libssl_s.a(sslDecode.o)
                                                  ../libssl_s.a(prf.o)
                                                  ../libssl_s.a(matrixsslInitVer.o)
                                                  ../libssl_s.a(matrixsslApi.o)
                                                  ../libssl_s.a(matrixsslKeys.o)
                                                  ../libssl_s.a(matrixssl.o)
                                                  ../libssl_s.a(cipherSuite.o)
_start                                            /usr/lib/gcc/x86_64-linux-gnu/11/../../../x86_64-linux-gnu/Scrt1.o
abort                                             /lib/x86_64-linux-gnu/libc.so.6
                                                  ../../core/libcore_s.a(osdep.o)
                                                  ../../crypto/libcrypt_s.a(ed25519_ref10.o)
                                                  ../../crypto/libcrypt_s.a(chacha20_ref.o)
                                                  ../../crypto/libcrypt_s.a(chacha20_dolbeau-ssse3.o)
                                                  ../../crypto/libcrypt_s.a(utils.o)
                                                  ../../crypto/libcrypt_s.a(aead_chacha20poly1305.o)
                                                  sslTest.o
abort@@GLIBC_2.2.5                                /lib/x86_64-linux-gnu/libc.so.6
abort@GLIBC_2.2.5                                 /lib/x86_64-linux-gnu/libc.so.6
                                                  /usr/lib/gcc/x86_64-linux-gnu/11/../../../x86_64-linux-gnu/libpthread.so
accept                                            /usr/lib/gcc/x86_64-linux-gnu/11/../../../x86_64-linux-gnu/libpthread.so
accept@@GLIBC_2.2.5                               /usr/lib/gcc/x86_64-linux-gnu/11/../../../x86_64-linux-gnu/libpthread.so
                                                  /lib/x86_64-linux-gnu/libc.so.6
accept@GLIBC_2.2.5                                /usr/lib/gcc/x86_64-linux-gnu/11/../../../x86_64-linux-gnu/libpthread.so
access                                            /lib/x86_64-linux-gnu/libc.so.6
access@@GLIBC_2.2.5                               /lib/x86_64-linux-gnu/libc.so.6
access@GLIBC_2.2.5                                /lib/x86_64-linux-gnu/libc.so.6
accountForEcdsaSizeChange                         ../libssl_s.a(sslEncode.o)
                                                  ../libssl_s.a(tlsSigVer.o)
addVersion                                        ../libssl_s.a(matrixsslInitVer.o)
                                                  ../libssl_s.a(tlsDefaults.o)
addmntent                                         /lib/x86_64-linux-gnu/libc.so.6
addmntent@@GLIBC_2.2.5                            /lib/x86_64-linux-gnu/libc.so.6
addmntent@GLIBC_2.2.5                             /lib/x86_64-linux-gnu/libc.so.6
addseverity                                       /lib/x86_64-linux-gnu/libc.so.6
addseverity@@GLIBC_2.2.5                          /lib/x86_64-linux-gnu/libc.so.6
addseverity@GLIBC_2.2.5                           /lib/x86_64-linux-gnu/libc.so.6
adjtime                                           /lib/x86_64-linux-gnu/libc.so.6
adjtime@@GLIBC_2.2.5                              /lib/x86_64-linux-gnu/libc.so.6
adjtime@GLIBC_2.2.5                               /lib/x86_64-linux-gnu/libc.so.6
adjtimex                                          /lib/x86_64-linux-gnu/libc.so.6
adjtimex@@GLIBC_2.2.5                             /lib/x86_64-linux-gnu/libc.so.6
adjtimex@GLIBC_2.2.5                              /lib/x86_64-linux-gnu/libc.so.6
advance@GLIBC_2.2.5                               /lib/x86_64-linux-gnu/libc.so.6
aligned_alloc                                     /lib/x86_64-linux-gnu/libc.so.6
aligned_alloc@@GLIBC_2.16                         /lib/x86_64-linux-gnu/libc.so.6
aligned_alloc@GLIBC_2.16                          /lib/x86_64-linux-gnu/libc.so.6
alphasort                                         /lib/x86_64-linux-gnu/libc.so.6
alphasort64                                       /lib/x86_64-linux-gnu/libc.so.6
alphasort64@@GLIBC_2.2.5                          /lib/x86_64-linux-gnu/libc.so.6
alphasort64@GLIBC_2.2.5                           /lib/x86_64-linux-gnu/libc.so.6
alphasort@@GLIBC_2.2.5                            /lib/x86_64-linux-gnu/libc.so.6
alphasort@GLIBC_2.2.5                             /lib/x86_64-linux-gnu/libc.so.6
anyNonTls13VersionSupported                       ../libssl_s.a(tls.o)
anyTls13VersionSupported                          ../libssl_s.a(tls.o)
                                                  ../libssl_s.a(tlsDefaults.o)
                                                  ../libssl_s.a(hsHash.o)
arch_prctl                                        /lib/x86_64-linux-gnu/libc.so.6
arch_prctl@@GLIBC_2.2.5                           /lib/x86_64-linux-gnu/libc.so.6
arch_prctl@GLIBC_2.2.5                            /lib/x86_64-linux-gnu/libc.so.6
argp_error                                        /lib/x86_64-linux-gnu/libc.so.6
argp_error@@GLIBC_2.2.5                           /lib/x86_64-linux-gnu/libc.so.6
argp_error@GLIBC_2.2.5                            /lib/x86_64-linux-gnu/libc.so.6
argp_failure                                      /lib/x86_64-linux-gnu/libc.so.6
argp_failure@@GLIBC_2.2.5                         /lib/x86_64-linux-gnu/libc.so.6
argp_failure@GLIBC_2.2.5                          /lib/x86_64-linux-gnu/libc.so.6
argp_help                                         /lib/x86_64-linux-gnu/libc.so.6
argp_help@@GLIBC_2.2.5                            /lib/x86_64-linux-gnu/libc.so.6
argp_help@GLIBC_2.2.5                             /lib/x86_64-linux-gnu/libc.so.6
argp_parse                                        /lib/x86_64-linux-gnu/libc.so.6
argp_parse@@GLIBC_2.2.5                           /lib/x86_64-linux-gnu/libc.so.6
argp_parse@GLIBC_2.2.5                            /lib/x86_64-linux-gnu/libc.so.6
argp_state_help                                   /lib/x86_64-linux-gnu/libc.so.6
argp_state_help@@GLIBC_2.2.5                      /lib/x86_64-linux-gnu/libc.so.6
argp_state_help@GLIBC_2.2.5                       /lib/x86_64-linux-gnu/libc.so.6
argp_usage                                        /lib/x86_64-linux-gnu/libc.so.6
argp_usage@@GLIBC_2.2.5                           /lib/x86_64-linux-gnu/libc.so.6
argp_usage@GLIBC_2.2.5                            /lib/x86_64-linux-gnu/libc.so.6
argz_add                                          /lib/x86_64-linux-gnu/libc.so.6
argz_add@@GLIBC_2.2.5                             /lib/x86_64-linux-gnu/libc.so.6
argz_add@GLIBC_2.2.5                              /lib/x86_64-linux-gnu/libc.so.6
argz_add_sep                                      /lib/x86_64-linux-gnu/libc.so.6
argz_add_sep@@GLIBC_2.2.5                         /lib/x86_64-linux-gnu/libc.so.6
argz_add_sep@GLIBC_2.2.5                          /lib/x86_64-linux-gnu/libc.so.6
argz_append                                       /lib/x86_64-linux-gnu/libc.so.6
argz_append@@GLIBC_2.2.5                          /lib/x86_64-linux-gnu/libc.so.6
argz_append@GLIBC_2.2.5                           /lib/x86_64-linux-gnu/libc.so.6
argz_count                                        /lib/x86_64-linux-gnu/libc.so.6
argz_count@@GLIBC_2.2.5                           /lib/x86_64-linux-gnu/libc.so.6
argz_count@GLIBC_2.2.5                            /lib/x86_64-linux-gnu/libc.so.6
argz_create                                       /lib/x86_64-linux-gnu/libc.so.6
argz_create@@GLIBC_2.2.5                          /lib/x86_64-linux-gnu/libc.so.6
argz_create@GLIBC_2.2.5                           /lib/x86_64-linux-gnu/libc.so.6
argz_create_sep                                   /lib/x86_64-linux-gnu/libc.so.6
argz_create_sep@@GLIBC_2.2.5                      /lib/x86_64-linux-gnu/libc.so.6
argz_create_sep@GLIBC_2.2.5                       /lib/x86_64-linux-gnu/libc.so.6
argz_extract                                      /lib/x86_64-linux-gnu/libc.so.6
argz_extract@@GLIBC_2.2.5                         /lib/x86_64-linux-gnu/libc.so.6
argz_extract@GLIBC_2.2.5                          /lib/x86_64-linux-gnu/libc.so.6
argz_insert                                       /lib/x86_64-linux-gnu/libc.so.6
argz_insert@@GLIBC_2.2.5                          /lib/x86_64-linux-gnu/libc.so.6
argz_insert@GLIBC_2.2.5                           /lib/x86_64-linux-gnu/libc.so.6
argz_next                                         /lib/x86_64-linux-gnu/libc.so.6
argz_next@@GLIBC_2.2.5                            /lib/x86_64-linux-gnu/libc.so.6
argz_next@GLIBC_2.2.5                             /lib/x86_64-linux-gnu/libc.so.6
argz_replace                                      /lib/x86_64-linux-gnu/libc.so.6
argz_replace@@GLIBC_2.2.5                         /lib/x86_64-linux-gnu/libc.so.6
argz_replace@GLIBC_2.2.5                          /lib/x86_64-linux-gnu/libc.so.6
argz_stringify                                    /lib/x86_64-linux-gnu/libc.so.6
argz_stringify@@GLIBC_2.2.5                       /lib/x86_64-linux-gnu/libc.so.6
argz_stringify@GLIBC_2.2.5                        /lib/x86_64-linux-gnu/libc.so.6
asctime_r                                         /lib/x86_64-linux-gnu/libc.so.6
asctime_r@@GLIBC_2.2.5                            /lib/x86_64-linux-gnu/libc.so.6
asctime_r@GLIBC_2.2.5                             /lib/x86_64-linux-gnu/libc.so.6
asnParseOid                                       ../../crypto/libcrypt_s.a(asn1.o)
                                                  ../../crypto/libcrypt_s.a(x509.o)
asprintf                                          /lib/x86_64-linux-gnu/libc.so.6
asprintf@@GLIBC_2.2.5                             /lib/x86_64-linux-gnu/libc.so.6
asprintf@GLIBC_2.2.5                              /lib/x86_64-linux-gnu/libc.so.6
backtrace                                         /lib/x86_64-linux-gnu/libc.so.6
backtrace@@GLIBC_2.2.5                            /lib/x86_64-linux-gnu/libc.so.6
backtrace@GLIBC_2.2.5                             /lib/x86_64-linux-gnu/libc.so.6
backtrace_symbols                                 /lib/x86_64-linux-gnu/libc.so.6
backtrace_symbols@@GLIBC_2.2.5                    /lib/x86_64-linux-gnu/libc.so.6
backtrace_symbols@GLIBC_2.2.5                     /lib/x86_64-linux-gnu/libc.so.6
backtrace_symbols_fd                              /lib/x86_64-linux-gnu/libc.so.6
backtrace_symbols_fd@@GLIBC_2.2.5                 /lib/x86_64-linux-gnu/libc.so.6
backtrace_symbols_fd@GLIBC_2.2.5                  /lib/x86_64-linux-gnu/libc.so.6
basename                                          /lib/x86_64-linux-gnu/libc.so.6
basename@@GLIBC_2.2.5                             /lib/x86_64-linux-gnu/libc.so.6
basename@GLIBC_2.2.5                              /lib/x86_64-linux-gnu/libc.so.6
bcmp                                              /lib/x86_64-linux-gnu/libc.so.6
bcmp@@GLIBC_2.2.5                                 /lib/x86_64-linux-gnu/libc.so.6
bcmp@GLIBC_2.2.5                                  /lib/x86_64-linux-gnu/libc.so.6
bind                                              /lib/x86_64-linux-gnu/libc.so.6
bind@@GLIBC_2.2.5                                 /lib/x86_64-linux-gnu/libc.so.6
bind@GLIBC_2.2.5                                  /lib/x86_64-linux-gnu/libc.so.6
bind_textdomain_codeset                           /lib/x86_64-linux-gnu/libc.so.6
bind_textdomain_codeset@@GLIBC_2.2.5              /lib/x86_64-linux-gnu/libc.so.6
bind_textdomain_codeset@GLIBC_2.2.5               /lib/x86_64-linux-gnu/libc.so.6
bindtextdomain                                    /lib/x86_64-linux-gnu/libc.so.6
bindtextdomain@@GLIBC_2.2.5                       /lib/x86_64-linux-gnu/libc.so.6
bindtextdomain@GLIBC_2.2.5                        /lib/x86_64-linux-gnu/libc.so.6
blockCipherWritePad                               ../../crypto/libcrypt_s.a(pkcs.o)
brk                                               /lib/x86_64-linux-gnu/libc.so.6
brk@@GLIBC_2.2.5                                  /lib/x86_64-linux-gnu/libc.so.6
brk@GLIBC_2.2.5                                   /lib/x86_64-linux-gnu/libc.so.6
bsd_signal                                        /lib/x86_64-linux-gnu/libc.so.6
bsd_signal@@GLIBC_2.2.5                           /lib/x86_64-linux-gnu/libc.so.6
bsd_signal@GLIBC_2.2.5                            /lib/x86_64-linux-gnu/libc.so.6
btowc                                             /lib/x86_64-linux-gnu/libc.so.6
btowc@@GLIBC_2.2.5                                /lib/x86_64-linux-gnu/libc.so.6
btowc@GLIBC_2.2.5                                 /lib/x86_64-linux-gnu/libc.so.6
bzero                                             /lib/x86_64-linux-gnu/libc.so.6
bzero@@GLIBC_2.2.5                                /lib/x86_64-linux-gnu/libc.so.6
bzero@GLIBC_2.2.5                                 /lib/x86_64-linux-gnu/libc.so.6
calcCkeSize                                       ../libssl_s.a(sslEncode.o)
calloc                                            /lib/x86_64-linux-gnu/libc.so.6
                                                  ../../core/libcore_s.a(osdep.o)
                                                  ../../core/libcore_s.a(corelib_list.o)
                                                  ../../crypto/libcrypt_s.a(pstm_montgomery_reduce.o)
                                                  ../../crypto/libcrypt_s.a(crl.o)
                                                  ../../crypto/libcrypt_s.a(ecc.o)
                                                  ../../crypto/libcrypt_s.a(pstm_sqr_comba.o)
                                                  ../../crypto/libcrypt_s.a(pstm_mul_comba.o)
                                                  ../../crypto/libcrypt_s.a(pstm.o)
                                                  ../../crypto/libcrypt_s.a(x509.o)
                                                  ../../crypto/libcrypt_s.a(pkcs.o)
                                                  ../../crypto/libcrypt_s.a(pem_decode_mem.o)
                                                  ../libssl_s.a(hsDecode.o)
                                                  ../libssl_s.a(tls.o)
                                                  ../libssl_s.a(tls13Psk.o)
                                                  ../libssl_s.a(tls13DecodeExt.o)
                                                  ../libssl_s.a(tls13Encode.o)
                                                  ../libssl_s.a(sslEncode.o)
                                                  ../libssl_s.a(matrixsslApi.o)
                                                  ../libssl_s.a(matrixsslKeys.o)
                                                  ../libssl_s.a(matrixssl.o)
                                                  ../libssl_s.a(dtls.o)
                                                  sslTest.o
calloc@@GLIBC_2.2.5                               /lib/x86_64-linux-gnu/libc.so.6
                                                  /lib/x86_64-linux-gnu/ld-linux-x86-64.so.2
calloc@GLIBC_2.2.5                                /lib/x86_64-linux-gnu/libc.so.6
                                                  /usr/lib/gcc/x86_64-linux-gnu/11/../../../x86_64-linux-gnu/libpthread.so
canUseSigAlg                                      ../libssl_s.a(tlsSigVer.o)
canonicalize_file_name                            /lib/x86_64-linux-gnu/libc.so.6
canonicalize_file_name@@GLIBC_2.2.5               /lib/x86_64-linux-gnu/libc.so.6
canonicalize_file_name@GLIBC_2.2.5                /lib/x86_64-linux-gnu/libc.so.6
chdir                                             /lib/x86_64-linux-gnu/libc.so.6
chdir@@GLIBC_2.2.5                                /lib/x86_64-linux-gnu/libc.so.6
chdir@GLIBC_2.2.5                                 /lib/x86_64-linux-gnu/libc.so.6
checkClientHelloVersion                           ../libssl_s.a(hsNegotiateVersion.o)
                                                  ../libssl_s.a(hsDecode.o)
checkServerHelloVersion                           ../libssl_s.a(hsNegotiateVersion.o)
                                                  ../libssl_s.a(hsDecode.o)
checkSupportedVersions                            ../libssl_s.a(hsNegotiateVersion.o)
                                                  ../libssl_s.a(hsDecode.o)
chmod                                             /lib/x86_64-linux-gnu/libc.so.6
chmod@@GLIBC_2.2.5                                /lib/x86_64-linux-gnu/libc.so.6
chmod@GLIBC_2.2.5                                 /lib/x86_64-linux-gnu/libc.so.6
chooseCipherSuite                                 ../libssl_s.a(cipherSuite.o)
                                                  ../libssl_s.a(hsDecode.o)
chooseSigAlg                                      ../libssl_s.a(tlsSigVer.o)
                                                  ../libssl_s.a(sslEncode.o)
chooseSigAlgInt                                   ../libssl_s.a(tlsSigVer.o)
chooseSkeSigAlg                                   ../libssl_s.a(tlsSigVer.o)
                                                  ../libssl_s.a(sslEncode.o)
chown                                             /lib/x86_64-linux-gnu/libc.so.6
chown@@GLIBC_2.2.5                                /lib/x86_64-linux-gnu/libc.so.6
chown@GLIBC_2.2.5                                 /lib/x86_64-linux-gnu/libc.so.6
clearFlightList                                   ../libssl_s.a(sslEncode.o)
                                                  ../libssl_s.a(tls13Encode.o)
                                                  ../libssl_s.a(matrixssl.o)
clearPkaAfter                                     ../libssl_s.a(sslEncode.o)
                                                  ../libssl_s.a(tlsSigVer.o)
clearenv                                          /lib/x86_64-linux-gnu/libc.so.6
clearenv@@GLIBC_2.2.5                             /lib/x86_64-linux-gnu/libc.so.6
clearenv@GLIBC_2.2.5                              /lib/x86_64-linux-gnu/libc.so.6
clock_adjtime                                     /lib/x86_64-linux-gnu/libc.so.6
clock_adjtime@@GLIBC_2.14                         /lib/x86_64-linux-gnu/libc.so.6
clock_adjtime@GLIBC_2.14                          /lib/x86_64-linux-gnu/libc.so.6
clock_gettime                                     /lib/x86_64-linux-gnu/libc.so.6
                                                  ../../core/libcore_s.a(osdep.o)
clock_gettime@@GLIBC_2.17                         /lib/x86_64-linux-gnu/libc.so.6
clock_gettime@GLIBC_2.17                          /lib/x86_64-linux-gnu/libc.so.6
clone                                             /lib/x86_64-linux-gnu/libc.so.6
clone@@GLIBC_2.2.5                                /lib/x86_64-linux-gnu/libc.so.6
clone@GLIBC_2.2.5                                 /lib/x86_64-linux-gnu/libc.so.6
close                                             /usr/lib/gcc/x86_64-linux-gnu/11/../../../x86_64-linux-gnu/libpthread.so
                                                  ../../core/libcore_s.a(osdep.o)
close@@GLIBC_2.2.5                                /usr/lib/gcc/x86_64-linux-gnu/11/../../../x86_64-linux-gnu/libpthread.so
                                                  /lib/x86_64-linux-gnu/libc.so.6
close@GLIBC_2.2.5                                 /usr/lib/gcc/x86_64-linux-gnu/11/../../../x86_64-linux-gnu/libpthread.so
closedir                                          /lib/x86_64-linux-gnu/libc.so.6
closedir@@GLIBC_2.2.5                             /lib/x86_64-linux-gnu/libc.so.6
closedir@GLIBC_2.2.5                              /lib/x86_64-linux-gnu/libc.so.6
compiledInEcFlags                                 ../../crypto/libcrypt_s.a(ecc_curve_config.o)
                                                  ../libssl_s.a(matrixssl.o)
computeSkeHash                                    ../libssl_s.a(tlsSigVer.o)
connect                                           /usr/lib/gcc/x86_64-linux-gnu/11/../../../x86_64-linux-gnu/libpthread.so
connect@@GLIBC_2.2.5                              /usr/lib/gcc/x86_64-linux-gnu/11/../../../x86_64-linux-gnu/libpthread.so
                                                  /lib/x86_64-linux-gnu/libc.so.6
connect@GLIBC_2.2.5                               /usr/lib/gcc/x86_64-linux-gnu/11/../../../x86_64-linux-gnu/libpthread.so
copysign                                          /lib/x86_64-linux-gnu/libc.so.6
copysign@@GLIBC_2.2.5                             /lib/x86_64-linux-gnu/libc.so.6
copysign@GLIBC_2.2.5                              /lib/x86_64-linux-gnu/libc.so.6
copysignf                                         /lib/x86_64-linux-gnu/libc.so.6
copysignf@@GLIBC_2.2.5                            /lib/x86_64-linux-gnu/libc.so.6
copysignf@GLIBC_2.2.5                             /lib/x86_64-linux-gnu/libc.so.6
copysignl                                         /lib/x86_64-linux-gnu/libc.so.6
copysignl@@GLIBC_2.2.5                            /lib/x86_64-linux-gnu/libc.so.6
copysignl@GLIBC_2.2.5                             /lib/x86_64-linux-gnu/libc.so.6
creat                                             /lib/x86_64-linux-gnu/libc.so.6
creat64                                           /lib/x86_64-linux-gnu/libc.so.6
creat64@@GLIBC_2.2.5                              /lib/x86_64-linux-gnu/libc.so.6
creat64@GLIBC_2.2.5                               /lib/x86_64-linux-gnu/libc.so.6
creat@@GLIBC_2.2.5                                /lib/x86_64-linux-gnu/libc.so.6
creat@GLIBC_2.2.5                                 /lib/x86_64-linux-gnu/libc.so.6
csAesDecrypt                                      ../libssl_s.a(cipherSuite.o)
csAesEncrypt                                      ../libssl_s.a(cipherSuite.o)
csAesGcmDecrypt                                   ../libssl_s.a(cipherSuite.o)
csAesGcmDecryptTls13                              ../libssl_s.a(tls13CipherSuite.o)
                                                  ../libssl_s.a(cipherSuite.o)
csAesGcmEncrypt                                   ../libssl_s.a(cipherSuite.o)
csAesGcmEncryptTls13                              ../libssl_s.a(tls13CipherSuite.o)
                                                  ../libssl_s.a(cipherSuite.o)
csAesGcmInit                                      ../libssl_s.a(cipherSuite.o)
csAesGcmInitTls13                                 ../libssl_s.a(tls13CipherSuite.o)
                                                  ../libssl_s.a(cipherSuite.o)
csAesInit                                         ../libssl_s.a(cipherSuite.o)
csChacha20Poly1305IetfDecrypt                     ../libssl_s.a(cipherSuite.o)
csChacha20Poly1305IetfDecryptTls13                ../libssl_s.a(tls13CipherSuite.o)
                                                  ../libssl_s.a(cipherSuite.o)
csChacha20Poly1305IetfEncrypt                     ../libssl_s.a(cipherSuite.o)
csChacha20Poly1305IetfEncryptTls13                ../libssl_s.a(tls13CipherSuite.o)
                                                  ../libssl_s.a(cipherSuite.o)
csChacha20Poly1305IetfInit                        ../libssl_s.a(cipherSuite.o)
csCheckCertAgainstCipherSuite                     ../libssl_s.a(cipherSuite.o)
                                                  ../libssl_s.a(hsDecode.o)
curveIdToFlag                                     ../libssl_s.a(matrixsslKeys.o)
                                                  ../libssl_s.a(extDecode.o)
data_start                                        /usr/lib/gcc/x86_64-linux-gnu/11/../../../x86_64-linux-gnu/Scrt1.o
daylight                                          /lib/x86_64-linux-gnu/libc.so.6
daylight@@GLIBC_2.2.5                             /lib/x86_64-linux-gnu/libc.so.6
daylight@GLIBC_2.2.5                              /lib/x86_64-linux-gnu/libc.so.6
dcgettext                                         /lib/x86_64-linux-gnu/libc.so.6
dcgettext@@GLIBC_2.2.5                            /lib/x86_64-linux-gnu/libc.so.6
dcgettext@GLIBC_2.2.5                             /lib/x86_64-linux-gnu/libc.so.6
dcngettext                                        /lib/x86_64-linux-gnu/libc.so.6
dcngettext@@GLIBC_2.2.5                           /lib/x86_64-linux-gnu/libc.so.6
dcngettext@GLIBC_2.2.5                            /lib/x86_64-linux-gnu/libc.so.6
dgettext                                          /lib/x86_64-linux-gnu/libc.so.6
dgettext@@GLIBC_2.2.5                             /lib/x86_64-linux-gnu/libc.so.6
dgettext@GLIBC_2.2.5                              /lib/x86_64-linux-gnu/libc.so.6
dl_iterate_phdr                                   /lib/x86_64-linux-gnu/libc.so.6
dl_iterate_phdr@@GLIBC_2.2.5                      /lib/x86_64-linux-gnu/libc.so.6
dl_iterate_phdr@GLIBC_2.2.5                       /lib/x86_64-linux-gnu/libc.so.6
dngettext                                         /lib/x86_64-linux-gnu/libc.so.6
dngettext@@GLIBC_2.2.5                            /lib/x86_64-linux-gnu/libc.so.6
dngettext@GLIBC_2.2.5                             /lib/x86_64-linux-gnu/libc.so.6
dtlsChkReplayWindow                               ../libssl_s.a(dtls.o)
                                                  ../libssl_s.a(sslDecode.o)
dtlsCompareEpoch                                  ../libssl_s.a(dtls.o)
                                                  ../libssl_s.a(sslDecode.o)
dtlsComputeCookie                                 ../libssl_s.a(dtls.o)
                                                  ../libssl_s.a(hsDecode.o)
dtlsEncryptFragRecord                             ../libssl_s.a(dtls.o)
                                                  ../libssl_s.a(sslEncode.o)
dtlsGenCookieSecret                               ../libssl_s.a(dtls.o)
                                                  ../libssl_s.a(matrixssl.o)
dtlsHsHashFragMsg                                 ../libssl_s.a(dtls.o)
                                                  ../libssl_s.a(sslDecode.o)
dtlsIncrRsn                                       ../libssl_s.a(dtls.o)
                                                  ../libssl_s.a(sslEncode.o)
dtlsInitFrag                                      ../libssl_s.a(dtls.o)
                                                  ../libssl_s.a(sslDecode.o)
                                                  ../libssl_s.a(matrixssl.o)
dtlsSeenFrag                                      ../libssl_s.a(dtls.o)
                                                  ../libssl_s.a(sslDecode.o)
dtlsWriteCertificate                              ../libssl_s.a(dtls.o)
                                                  ../libssl_s.a(sslEncode.o)
dtlsWriteCertificateRequest                       ../libssl_s.a(dtls.o)
                                                  ../libssl_s.a(sslEncode.o)
dup                                               /lib/x86_64-linux-gnu/libc.so.6
dup2                                              /lib/x86_64-linux-gnu/libc.so.6
dup2@@GLIBC_2.2.5                                 /lib/x86_64-linux-gnu/libc.so.6
dup2@GLIBC_2.2.5                                  /lib/x86_64-linux-gnu/libc.so.6
dup3                                              /lib/x86_64-linux-gnu/libc.so.6
dup3@@GLIBC_2.9                                   /lib/x86_64-linux-gnu/libc.so.6
dup3@GLIBC_2.9                                    /lib/x86_64-linux-gnu/libc.so.6
dup@@GLIBC_2.2.5                                  /lib/x86_64-linux-gnu/libc.so.6
dup@GLIBC_2.2.5                                   /lib/x86_64-linux-gnu/libc.so.6
duplocale                                         /lib/x86_64-linux-gnu/libc.so.6
duplocale@@GLIBC_2.3                              /lib/x86_64-linux-gnu/libc.so.6
duplocale@GLIBC_2.3                               /lib/x86_64-linux-gnu/libc.so.6
eaccess                                           /lib/x86_64-linux-gnu/libc.so.6
eaccess@@GLIBC_2.4                                /lib/x86_64-linux-gnu/libc.so.6
eaccess@GLIBC_2.4                                 /lib/x86_64-linux-gnu/libc.so.6
eccCurves                                         ../../crypto/libcrypt_s.a(ecc_curve_data.o)
                                                  ../../crypto/libcrypt_s.a(ecc_curve_config.o)
                                                  ../../crypto/libcrypt_s.a(ecc_curve.o)
eccFreePoint                                      ../../crypto/libcrypt_s.a(ecc_math.o)
                                                  ../../crypto/libcrypt_s.a(ecc_gen_shared.o)
                                                  ../../crypto/libcrypt_s.a(ecc_keygen.o)
                                                  ../../crypto/libcrypt_s.a(ecc_pub.o)
eccMap                                            ../../crypto/libcrypt_s.a(ecc_math.o)
                                                  ../../crypto/libcrypt_s.a(ecc_pub.o)
eccMulmod                                         ../../crypto/libcrypt_s.a(ecc_math.o)
                                                  ../../crypto/libcrypt_s.a(ecc_gen_shared.o)
                                                  ../../crypto/libcrypt_s.a(ecc_keygen.o)
                                                  ../../crypto/libcrypt_s.a(ecc_pub.o)
eccNewPoint                                       ../../crypto/libcrypt_s.a(ecc_math.o)
                                                  ../../crypto/libcrypt_s.a(ecc_gen_shared.o)
                                                  ../../crypto/libcrypt_s.a(ecc_keygen.o)
                                                  ../../crypto/libcrypt_s.a(ecc_pub.o)
eccProjectiveAddPoint                             ../../crypto/libcrypt_s.a(ecc_math.o)
                                                  ../../crypto/libcrypt_s.a(ecc_pub.o)
eccSuitesSupported                                ../libssl_s.a(cipherSuite.o)
                                                  ../libssl_s.a(sslEncode.o)
eccTestPoint                                      ../../crypto/libcrypt_s.a(ecc_math.o)
                                                  ../../crypto/libcrypt_s.a(ecc_import.o)
ecvt_r                                            /lib/x86_64-linux-gnu/libc.so.6
ecvt_r@@GLIBC_2.2.5                               /lib/x86_64-linux-gnu/libc.so.6
ecvt_r@GLIBC_2.2.5                                /lib/x86_64-linux-gnu/libc.so.6
encryptRecord                                     ../libssl_s.a(sslEncode.o)
endmntent                                         /lib/x86_64-linux-gnu/libc.so.6
endmntent@@GLIBC_2.2.5                            /lib/x86_64-linux-gnu/libc.so.6
endmntent@GLIBC_2.2.5                             /lib/x86_64-linux-gnu/libc.so.6
endttyent                                         /lib/x86_64-linux-gnu/libc.so.6
endttyent@@GLIBC_2.2.5                            /lib/x86_64-linux-gnu/libc.so.6
endttyent@GLIBC_2.2.5                             /lib/x86_64-linux-gnu/libc.so.6
endutent                                          /lib/x86_64-linux-gnu/libc.so.6
endutent@@GLIBC_2.2.5                             /lib/x86_64-linux-gnu/libc.so.6
endutent@GLIBC_2.2.5                              /lib/x86_64-linux-gnu/libc.so.6
environ                                           /lib/x86_64-linux-gnu/libc.so.6
environ@@GLIBC_2.2.5                              /lib/x86_64-linux-gnu/libc.so.6
environ@GLIBC_2.2.5                               /lib/x86_64-linux-gnu/libc.so.6
erand48_r                                         /lib/x86_64-linux-gnu/libc.so.6
erand48_r@@GLIBC_2.2.5                            /lib/x86_64-linux-gnu/libc.so.6
erand48_r@GLIBC_2.2.5                             /lib/x86_64-linux-gnu/libc.so.6
error                                             /lib/x86_64-linux-gnu/libc.so.6
error@@GLIBC_2.2.5                                /lib/x86_64-linux-gnu/libc.so.6
error@GLIBC_2.2.5                                 /lib/x86_64-linux-gnu/libc.so.6
error_at_line                                     /lib/x86_64-linux-gnu/libc.so.6
error_at_line@@GLIBC_2.2.5                        /lib/x86_64-linux-gnu/libc.so.6
error_at_line@GLIBC_2.2.5                         /lib/x86_64-linux-gnu/libc.so.6
euidaccess                                        /lib/x86_64-linux-gnu/libc.so.6
euidaccess@@GLIBC_2.2.5                           /lib/x86_64-linux-gnu/libc.so.6
euidaccess@GLIBC_2.2.5                            /lib/x86_64-linux-gnu/libc.so.6
execve                                            /lib/x86_64-linux-gnu/libc.so.6
execve@@GLIBC_2.2.5                               /lib/x86_64-linux-gnu/libc.so.6
execve@GLIBC_2.2.5                                /lib/x86_64-linux-gnu/libc.so.6
execvpe                                           /lib/x86_64-linux-gnu/libc.so.6
execvpe@@GLIBC_2.11                               /lib/x86_64-linux-gnu/libc.so.6
execvpe@GLIBC_2.11                                /lib/x86_64-linux-gnu/libc.so.6
exit                                              /lib/x86_64-linux-gnu/libc.so.6
                                                  sslTest.o
exit@@GLIBC_2.2.5                                 /lib/x86_64-linux-gnu/libc.so.6
exit@GLIBC_2.2.5                                  /lib/x86_64-linux-gnu/libc.so.6
                                                  /usr/lib/gcc/x86_64-linux-gnu/11/../../../x86_64-linux-gnu/libpthread.so
extMasterSecretSnapshotHSHash                     ../libssl_s.a(hsHash.o)
                                                  ../libssl_s.a(tls.o)
fallocate                                         /lib/x86_64-linux-gnu/libc.so.6
fallocate@@GLIBC_2.10                             /lib/x86_64-linux-gnu/libc.so.6
fallocate@GLIBC_2.10                              /lib/x86_64-linux-gnu/libc.so.6
fchdir                                            /lib/x86_64-linux-gnu/libc.so.6
fchdir@@GLIBC_2.2.5                               /lib/x86_64-linux-gnu/libc.so.6
fchdir@GLIBC_2.2.5                                /lib/x86_64-linux-gnu/libc.so.6
fchmod                                            /lib/x86_64-linux-gnu/libc.so.6
fchmod@@GLIBC_2.2.5                               /lib/x86_64-linux-gnu/libc.so.6
fchmod@GLIBC_2.2.5                                /lib/x86_64-linux-gnu/libc.so.6
fchown                                            /lib/x86_64-linux-gnu/libc.so.6
fchown@@GLIBC_2.2.5                               /lib/x86_64-linux-gnu/libc.so.6
fchown@GLIBC_2.2.5                                /lib/x86_64-linux-gnu/libc.so.6
fcloseall                                         /lib/x86_64-linux-gnu/libc.so.6
fcloseall@@GLIBC_2.2.5                            /lib/x86_64-linux-gnu/libc.so.6
fcloseall@GLIBC_2.2.5                             /lib/x86_64-linux-gnu/libc.so.6
fcntl                                             /lib/x86_64-linux-gnu/libc.so.6
fcntl64                                           /lib/x86_64-linux-gnu/libc.so.6
fcntl64@@GLIBC_2.28                               /lib/x86_64-linux-gnu/libc.so.6
fcntl64@GLIBC_2.28                                /lib/x86_64-linux-gnu/libc.so.6
fcntl@@GLIBC_2.2.5                                /lib/x86_64-linux-gnu/libc.so.6
fcntl@GLIBC_2.2.5                                 /usr/lib/gcc/x86_64-linux-gnu/11/../../../x86_64-linux-gnu/libpthread.so
fcvt_r                                            /lib/x86_64-linux-gnu/libc.so.6
fcvt_r@@GLIBC_2.2.5                               /lib/x86_64-linux-gnu/libc.so.6
fcvt_r@GLIBC_2.2.5                                /lib/x86_64-linux-gnu/libc.so.6
fdopendir                                         /lib/x86_64-linux-gnu/libc.so.6
fdopendir@@GLIBC_2.4                              /lib/x86_64-linux-gnu/libc.so.6
fdopendir@GLIBC_2.4                               /lib/x86_64-linux-gnu/libc.so.6
feof                                              /lib/x86_64-linux-gnu/libc.so.6
feof@@GLIBC_2.2.5                                 /lib/x86_64-linux-gnu/libc.so.6
feof@GLIBC_2.2.5                                  /lib/x86_64-linux-gnu/libc.so.6
feof_unlocked                                     /lib/x86_64-linux-gnu/libc.so.6
feof_unlocked@@GLIBC_2.2.5                        /lib/x86_64-linux-gnu/libc.so.6
feof_unlocked@GLIBC_2.2.5                         /lib/x86_64-linux-gnu/libc.so.6
ferror                                            /lib/x86_64-linux-gnu/libc.so.6
ferror@@GLIBC_2.2.5                               /lib/x86_64-linux-gnu/libc.so.6
ferror@GLIBC_2.2.5                                /lib/x86_64-linux-gnu/libc.so.6
ferror_unlocked                                   /lib/x86_64-linux-gnu/libc.so.6
ferror_unlocked@@GLIBC_2.2.5                      /lib/x86_64-linux-gnu/libc.so.6
ferror_unlocked@GLIBC_2.2.5                       /lib/x86_64-linux-gnu/libc.so.6
fflush                                            /lib/x86_64-linux-gnu/libc.so.6
fflush@@GLIBC_2.2.5                               /lib/x86_64-linux-gnu/libc.so.6
fflush@GLIBC_2.2.5                                /lib/x86_64-linux-gnu/libc.so.6
fflush_unlocked                                   /lib/x86_64-linux-gnu/libc.so.6
fflush_unlocked@@GLIBC_2.2.5                      /lib/x86_64-linux-gnu/libc.so.6
fflush_unlocked@GLIBC_2.2.5                       /lib/x86_64-linux-gnu/libc.so.6
ffsl                                              /lib/x86_64-linux-gnu/libc.so.6
ffsl@@GLIBC_2.2.5                                 /lib/x86_64-linux-gnu/libc.so.6
ffsl@GLIBC_2.2.5                                  /lib/x86_64-linux-gnu/libc.so.6
fgetc                                             /lib/x86_64-linux-gnu/libc.so.6
fgetc@@GLIBC_2.2.5                                /lib/x86_64-linux-gnu/libc.so.6
fgetc@GLIBC_2.2.5                                 /lib/x86_64-linux-gnu/libc.so.6
fgetc_unlocked                                    /lib/x86_64-linux-gnu/libc.so.6
fgetc_unlocked@@GLIBC_2.2.5                       /lib/x86_64-linux-gnu/libc.so.6
fgetc_unlocked@GLIBC_2.2.5                        /lib/x86_64-linux-gnu/libc.so.6
fgetgrent_r                                       /lib/x86_64-linux-gnu/libc.so.6
fgetgrent_r@@GLIBC_2.2.5                          /lib/x86_64-linux-gnu/libc.so.6
fgetgrent_r@GLIBC_2.2.5                           /lib/x86_64-linux-gnu/libc.so.6
fgetpwent_r                                       /lib/x86_64-linux-gnu/libc.so.6
fgetpwent_r@@GLIBC_2.2.5                          /lib/x86_64-linux-gnu/libc.so.6
fgetpwent_r@GLIBC_2.2.5                           /lib/x86_64-linux-gnu/libc.so.6
fgets                                             /lib/x86_64-linux-gnu/libc.so.6
fgets@@GLIBC_2.2.5                                /lib/x86_64-linux-gnu/libc.so.6
fgets@GLIBC_2.2.5                                 /lib/x86_64-linux-gnu/libc.so.6
fgets_unlocked                                    /lib/x86_64-linux-gnu/libc.so.6
fgets_unlocked@@GLIBC_2.2.5                       /lib/x86_64-linux-gnu/libc.so.6
fgets_unlocked@GLIBC_2.2.5                        /lib/x86_64-linux-gnu/libc.so.6
fgetsgent_r                                       /lib/x86_64-linux-gnu/libc.so.6
fgetsgent_r@@GLIBC_2.10                           /lib/x86_64-linux-gnu/libc.so.6
fgetsgent_r@GLIBC_2.10                            /lib/x86_64-linux-gnu/libc.so.6
fgetspent_r                                       /lib/x86_64-linux-gnu/libc.so.6
fgetspent_r@@GLIBC_2.2.5                          /lib/x86_64-linux-gnu/libc.so.6
fgetspent_r@GLIBC_2.2.5                           /lib/x86_64-linux-gnu/libc.so.6
fgetwc                                            /lib/x86_64-linux-gnu/libc.so.6
fgetwc@@GLIBC_2.2.5                               /lib/x86_64-linux-gnu/libc.so.6
fgetwc@GLIBC_2.2.5                                /lib/x86_64-linux-gnu/libc.so.6
fgetwc_unlocked                                   /lib/x86_64-linux-gnu/libc.so.6
fgetwc_unlocked@@GLIBC_2.2.5                      /lib/x86_64-linux-gnu/libc.so.6
fgetwc_unlocked@GLIBC_2.2.5                       /lib/x86_64-linux-gnu/libc.so.6
fileno                                            /lib/x86_64-linux-gnu/libc.so.6
                                                  ../../core/libcore_s.a(osdep.o)
fileno@@GLIBC_2.2.5                               /lib/x86_64-linux-gnu/libc.so.6
fileno@GLIBC_2.2.5                                /lib/x86_64-linux-gnu/libc.so.6
fileno_unlocked                                   /lib/x86_64-linux-gnu/libc.so.6
fileno_unlocked@@GLIBC_2.2.5                      /lib/x86_64-linux-gnu/libc.so.6
fileno_unlocked@GLIBC_2.2.5                       /lib/x86_64-linux-gnu/libc.so.6
findFromUint16Array                               ../libssl_s.a(tls.o)
                                                  ../libssl_s.a(extDecode.o)
                                                  ../libssl_s.a(tls13DecodeExt.o)
                                                  ../libssl_s.a(tls13Decode.o)
finite                                            /lib/x86_64-linux-gnu/libc.so.6
finite@@GLIBC_2.2.5                               /lib/x86_64-linux-gnu/libc.so.6
finite@GLIBC_2.2.5                                /lib/x86_64-linux-gnu/libc.so.6
finitef                                           /lib/x86_64-linux-gnu/libc.so.6
finitef@@GLIBC_2.2.5                              /lib/x86_64-linux-gnu/libc.so.6
finitef@GLIBC_2.2.5                               /lib/x86_64-linux-gnu/libc.so.6
finitel                                           /lib/x86_64-linux-gnu/libc.so.6
finitel@@GLIBC_2.2.5                              /lib/x86_64-linux-gnu/libc.so.6
finitel@GLIBC_2.2.5                               /lib/x86_64-linux-gnu/libc.so.6
flock                                             /lib/x86_64-linux-gnu/libc.so.6
flock@@GLIBC_2.2.5                                /lib/x86_64-linux-gnu/libc.so.6
flock@GLIBC_2.2.5                                 /lib/x86_64-linux-gnu/libc.so.6
flockfile                                         /usr/lib/gcc/x86_64-linux-gnu/11/../../../x86_64-linux-gnu/libpthread.so
flockfile@@GLIBC_2.2.5                            /usr/lib/gcc/x86_64-linux-gnu/11/../../../x86_64-linux-gnu/libpthread.so
                                                  /lib/x86_64-linux-gnu/libc.so.6
flockfile@GLIBC_2.2.5                             /usr/lib/gcc/x86_64-linux-gnu/11/../../../x86_64-linux-gnu/libpthread.so
fopen                                             /lib/x86_64-linux-gnu/libc.so.6
                                                  ../../core/libcore_s.a(osdep.o)
fopen64                                           /lib/x86_64-linux-gnu/libc.so.6
fopen64@@GLIBC_2.2.5                              /lib/x86_64-linux-gnu/libc.so.6
fopen64@GLIBC_2.2.5                               /lib/x86_64-linux-gnu/libc.so.6
fopen@@GLIBC_2.2.5                                /lib/x86_64-linux-gnu/libc.so.6
fopen@GLIBC_2.2.5                                 /lib/x86_64-linux-gnu/libc.so.6
                                                  /usr/lib/gcc/x86_64-linux-gnu/11/../../../x86_64-linux-gnu/libpthread.so
fork                                              /lib/x86_64-linux-gnu/libc.so.6
fork@@GLIBC_2.2.5                                 /lib/x86_64-linux-gnu/libc.so.6
fpathconf                                         /lib/x86_64-linux-gnu/libc.so.6
fpathconf@@GLIBC_2.2.5                            /lib/x86_64-linux-gnu/libc.so.6
fpathconf@GLIBC_2.2.5                             /lib/x86_64-linux-gnu/libc.so.6
fputs                                             /lib/x86_64-linux-gnu/libc.so.6
                                                  ../../core/libcore_s.a(osdep.o)
fputs@@GLIBC_2.2.5                                /lib/x86_64-linux-gnu/libc.so.6
fputs@GLIBC_2.2.5                                 /lib/x86_64-linux-gnu/libc.so.6
fputs_unlocked                                    /lib/x86_64-linux-gnu/libc.so.6
fputs_unlocked@@GLIBC_2.2.5                       /lib/x86_64-linux-gnu/libc.so.6
fputs_unlocked@GLIBC_2.2.5                        /lib/x86_64-linux-gnu/libc.so.6
fread                                             /lib/x86_64-linux-gnu/libc.so.6
                                                  ../../core/libcore_s.a(osdep.o)
fread@@GLIBC_2.2.5                                /lib/x86_64-linux-gnu/libc.so.6
fread@GLIBC_2.2.5                                 /lib/x86_64-linux-gnu/libc.so.6
fread_unlocked                                    /lib/x86_64-linux-gnu/libc.so.6
fread_unlocked@@GLIBC_2.2.5                       /lib/x86_64-linux-gnu/libc.so.6
fread_unlocked@GLIBC_2.2.5                        /lib/x86_64-linux-gnu/libc.so.6
free                                              /lib/x86_64-linux-gnu/libc.so.6
                                                  ../../core/libcore_s.a(psbuf.o)
                                                  ../../core/libcore_s.a(corelib_list.o)
                                                  ../../crypto/libcrypt_s.a(pstm_montgomery_reduce.o)
                                                  ../../crypto/libcrypt_s.a(pubkey_parse_mem.o)
                                                  ../../crypto/libcrypt_s.a(ecc_parse_file.o)
                                                  ../../crypto/libcrypt_s.a(ecc_math.o)
                                                  ../../crypto/libcrypt_s.a(pem_decode_file.o)
                                                  ../../crypto/libcrypt_s.a(crl.o)
                                                  ../../crypto/libcrypt_s.a(rsa_parse_file.o)
                                                  ../../crypto/libcrypt_s.a(rsa_parse_mem.o)
                                                  ../../crypto/libcrypt_s.a(rsa_pub.o)
                                                  ../../crypto/libcrypt_s.a(rsa_priv.o)
                                                  ../../crypto/libcrypt_s.a(pubkey_parse_file.o)
                                                  ../../crypto/libcrypt_s.a(pubkey_sign.o)
                                                  ../../crypto/libcrypt_s.a(pubkey.o)
                                                  ../../crypto/libcrypt_s.a(ecc_gen_shared.o)
                                                  ../../crypto/libcrypt_s.a(ecc_keygen.o)
                                                  ../../crypto/libcrypt_s.a(ecc_pub.o)
                                                  ../../crypto/libcrypt_s.a(ecc_priv.o)
                                                  ../../crypto/libcrypt_s.a(ecc.o)
                                                  ../../crypto/libcrypt_s.a(dh_gen_secret.o)
                                                  ../../crypto/libcrypt_s.a(dh_gen_key.o)
                                                  ../../crypto/libcrypt_s.a(dh_params.o)
                                                  ../../crypto/libcrypt_s.a(pstm_sqr_comba.o)
                                                  ../../crypto/libcrypt_s.a(pstm_mul_comba.o)
                                                  ../../crypto/libcrypt_s.a(pstm.o)
                                                  ../../crypto/libcrypt_s.a(x509.o)
                                                  ../../crypto/libcrypt_s.a(pkcs.o)
                                                  ../../crypto/libcrypt_s.a(pem_decode_mem.o)
                                                  ../../crypto/libcrypt_s.a(hkdf.o)
                                                  ../libssl_s.a(extDecode.o)
                                                  ../libssl_s.a(hsDecode.o)
                                                  ../libssl_s.a(tls.o)
                                                  ../libssl_s.a(tls13SigVer.o)
                                                  ../libssl_s.a(tls13Resume.o)
                                                  ../libssl_s.a(tls13Psk.o)
                                                  ../libssl_s.a(tls13KeySchedule.o)
                                                  ../libssl_s.a(tls13KeyAgree.o)
                                                  ../libssl_s.a(tls13DecodeExt.o)
                                                  ../libssl_s.a(tls13Decode.o)
                                                  ../libssl_s.a(tls13EncodeExt.o)
                                                  ../libssl_s.a(tls13Encode.o)
                                                  ../libssl_s.a(tlsSigVer.o)
                                                  ../libssl_s.a(sslEncode.o)
                                                  ../libssl_s.a(sslDecode.o)
                                                  ../libssl_s.a(psk.o)
                                                  ../libssl_s.a(matrixsslApi.o)
                                                  ../libssl_s.a(matrixsslKeys.o)
                                                  ../libssl_s.a(matrixssl.o)
                                                  ../libssl_s.a(dtls.o)
                                                  ../libssl_s.a(cipherSuite.o)
                                                  sslTest.o
free@@GLIBC_2.2.5                                 /lib/x86_64-linux-gnu/libc.so.6
                                                  /lib/x86_64-linux-gnu/ld-linux-x86-64.so.2
free@GLIBC_2.2.5                                  /lib/x86_64-linux-gnu/libc.so.6
                                                  /usr/lib/gcc/x86_64-linux-gnu/11/../../../x86_64-linux-gnu/libpthread.so
freePkaAfter                                      ../libssl_s.a(sslEncode.o)
                                                  ../libssl_s.a(matrixssl.o)
freeifaddrs                                       /lib/x86_64-linux-gnu/libc.so.6
freeifaddrs@@GLIBC_2.3                            /lib/x86_64-linux-gnu/libc.so.6
freeifaddrs@GLIBC_2.3                             /lib/x86_64-linux-gnu/libc.so.6
freelocale                                        /lib/x86_64-linux-gnu/libc.so.6
freelocale@@GLIBC_2.3                             /lib/x86_64-linux-gnu/libc.so.6
freelocale@GLIBC_2.3                              /lib/x86_64-linux-gnu/libc.so.6
frexp                                             /lib/x86_64-linux-gnu/libc.so.6
frexp@@GLIBC_2.2.5                                /lib/x86_64-linux-gnu/libc.so.6
frexp@GLIBC_2.2.5                                 /lib/x86_64-linux-gnu/libc.so.6
frexpf                                            /lib/x86_64-linux-gnu/libc.so.6
frexpf@@GLIBC_2.2.5                               /lib/x86_64-linux-gnu/libc.so.6
frexpf@GLIBC_2.2.5                                /lib/x86_64-linux-gnu/libc.so.6
frexpl                                            /lib/x86_64-linux-gnu/libc.so.6
frexpl@@GLIBC_2.2.5                               /lib/x86_64-linux-gnu/libc.so.6
frexpl@GLIBC_2.2.5                                /lib/x86_64-linux-gnu/libc.so.6
fseeko                                            /lib/x86_64-linux-gnu/libc.so.6
fseeko64                                          /lib/x86_64-linux-gnu/libc.so.6
fseeko64@@GLIBC_2.2.5                             /lib/x86_64-linux-gnu/libc.so.6
fseeko64@GLIBC_2.2.5                              /lib/x86_64-linux-gnu/libc.so.6
fseeko@@GLIBC_2.2.5                               /lib/x86_64-linux-gnu/libc.so.6
fseeko@GLIBC_2.2.5                                /lib/x86_64-linux-gnu/libc.so.6
fstatfs                                           /lib/x86_64-linux-gnu/libc.so.6
fstatfs64                                         /lib/x86_64-linux-gnu/libc.so.6
fstatfs64@@GLIBC_2.2.5                            /lib/x86_64-linux-gnu/libc.so.6
fstatfs64@GLIBC_2.2.5                             /lib/x86_64-linux-gnu/libc.so.6
fstatfs@@GLIBC_2.2.5                              /lib/x86_64-linux-gnu/libc.so.6
fstatfs@GLIBC_2.2.5                               /lib/x86_64-linux-gnu/libc.so.6
fstatvfs                                          /lib/x86_64-linux-gnu/libc.so.6
fstatvfs64                                        /lib/x86_64-linux-gnu/libc.so.6
fstatvfs64@@GLIBC_2.2.5                           /lib/x86_64-linux-gnu/libc.so.6
fstatvfs64@GLIBC_2.2.5                            /lib/x86_64-linux-gnu/libc.so.6
fstatvfs@@GLIBC_2.2.5                             /lib/x86_64-linux-gnu/libc.so.6
fstatvfs@GLIBC_2.2.5                              /lib/x86_64-linux-gnu/libc.so.6
ftell                                             /lib/x86_64-linux-gnu/libc.so.6
ftell@@GLIBC_2.2.5                                /lib/x86_64-linux-gnu/libc.so.6
ftell@GLIBC_2.2.5                                 /lib/x86_64-linux-gnu/libc.so.6
ftello                                            /lib/x86_64-linux-gnu/libc.so.6
ftello64                                          /lib/x86_64-linux-gnu/libc.so.6
ftello64@@GLIBC_2.2.5                             /lib/x86_64-linux-gnu/libc.so.6
ftello64@GLIBC_2.2.5                              /lib/x86_64-linux-gnu/libc.so.6
ftello@@GLIBC_2.2.5                               /lib/x86_64-linux-gnu/libc.so.6
ftello@GLIBC_2.2.5                                /lib/x86_64-linux-gnu/libc.so.6
ftruncate                                         /lib/x86_64-linux-gnu/libc.so.6
ftruncate64                                       /lib/x86_64-linux-gnu/libc.so.6
ftruncate64@@GLIBC_2.2.5                          /lib/x86_64-linux-gnu/libc.so.6
ftruncate64@GLIBC_2.2.5                           /lib/x86_64-linux-gnu/libc.so.6
ftruncate@@GLIBC_2.2.5                            /lib/x86_64-linux-gnu/libc.so.6
ftruncate@GLIBC_2.2.5                             /lib/x86_64-linux-gnu/libc.so.6
ftrylockfile                                      /usr/lib/gcc/x86_64-linux-gnu/11/../../../x86_64-linux-gnu/libpthread.so
ftrylockfile@@GLIBC_2.2.5                         /usr/lib/gcc/x86_64-linux-gnu/11/../../../x86_64-linux-gnu/libpthread.so
                                                  /lib/x86_64-linux-gnu/libc.so.6
ftrylockfile@GLIBC_2.2.5                          /usr/lib/gcc/x86_64-linux-gnu/11/../../../x86_64-linux-gnu/libpthread.so
fts64_children                                    /lib/x86_64-linux-gnu/libc.so.6
fts64_children@@GLIBC_2.23                        /lib/x86_64-linux-gnu/libc.so.6
fts64_children@GLIBC_2.23                         /lib/x86_64-linux-gnu/libc.so.6
fts64_close                                       /lib/x86_64-linux-gnu/libc.so.6
fts64_close@@GLIBC_2.23                           /lib/x86_64-linux-gnu/libc.so.6
fts64_close@GLIBC_2.23                            /lib/x86_64-linux-gnu/libc.so.6
fts64_open                                        /lib/x86_64-linux-gnu/libc.so.6
fts64_open@@GLIBC_2.23                            /lib/x86_64-linux-gnu/libc.so.6
fts64_open@GLIBC_2.23                             /lib/x86_64-linux-gnu/libc.so.6
fts64_read                                        /lib/x86_64-linux-gnu/libc.so.6
fts64_read@@GLIBC_2.23                            /lib/x86_64-linux-gnu/libc.so.6
fts64_read@GLIBC_2.23                             /lib/x86_64-linux-gnu/libc.so.6
fts64_set                                         /lib/x86_64-linux-gnu/libc.so.6
fts64_set@@GLIBC_2.23                             /lib/x86_64-linux-gnu/libc.so.6
fts64_set@GLIBC_2.23                              /lib/x86_64-linux-gnu/libc.so.6
ftw64                                             /lib/x86_64-linux-gnu/libc.so.6
ftw64@@GLIBC_2.2.5                                /lib/x86_64-linux-gnu/libc.so.6
ftw64@GLIBC_2.2.5                                 /lib/x86_64-linux-gnu/libc.so.6
funlockfile                                       /usr/lib/gcc/x86_64-linux-gnu/11/../../../x86_64-linux-gnu/libpthread.so
funlockfile@@GLIBC_2.2.5                          /usr/lib/gcc/x86_64-linux-gnu/11/../../../x86_64-linux-gnu/libpthread.so
                                                  /lib/x86_64-linux-gnu/libc.so.6
funlockfile@GLIBC_2.2.5                           /usr/lib/gcc/x86_64-linux-gnu/11/../../../x86_64-linux-gnu/libpthread.so
futimens                                          /lib/x86_64-linux-gnu/libc.so.6
futimens@@GLIBC_2.6                               /lib/x86_64-linux-gnu/libc.so.6
futimens@GLIBC_2.6                                /lib/x86_64-linux-gnu/libc.so.6
futimes                                           /lib/x86_64-linux-gnu/libc.so.6
futimes@@GLIBC_2.3                                /lib/x86_64-linux-gnu/libc.so.6
futimes@GLIBC_2.3                                 /lib/x86_64-linux-gnu/libc.so.6
fwprintf                                          /lib/x86_64-linux-gnu/libc.so.6
fwprintf@@GLIBC_2.2.5                             /lib/x86_64-linux-gnu/libc.so.6
fwprintf@GLIBC_2.2.5                              /lib/x86_64-linux-gnu/libc.so.6
fwrite                                            /lib/x86_64-linux-gnu/libc.so.6
                                                  sslTest.o
fwrite@@GLIBC_2.2.5                               /lib/x86_64-linux-gnu/libc.so.6
fwrite@GLIBC_2.2.5                                /lib/x86_64-linux-gnu/libc.so.6
getAsnAlgorithmIdentifier                         ../../crypto/libcrypt_s.a(asn1.o)
                                                  ../../crypto/libcrypt_s.a(pubkey_parse_mem.o)
                                                  ../../crypto/libcrypt_s.a(crl.o)
                                                  ../../crypto/libcrypt_s.a(pubkey_parse_file.o)
                                                  ../../crypto/libcrypt_s.a(x509.o)
                                                  ../../crypto/libcrypt_s.a(pkcs.o)
getAsnEnumerated                                  ../../crypto/libcrypt_s.a(asn1.o)
                                                  ../../crypto/libcrypt_s.a(x509.o)
getAsnInteger                                     ../../crypto/libcrypt_s.a(asn1.o)
                                                  ../../crypto/libcrypt_s.a(crl.o)
                                                  ../../crypto/libcrypt_s.a(rsa_parse_mem.o)
                                                  ../../crypto/libcrypt_s.a(pubkey_parse_file.o)
                                                  ../../crypto/libcrypt_s.a(ecc_parse_mem.o)
                                                  ../../crypto/libcrypt_s.a(x509.o)
                                                  ../../crypto/libcrypt_s.a(pkcs.o)
getAsnLength                                      ../../crypto/libcrypt_s.a(asn1.o)
                                                  ../../crypto/libcrypt_s.a(crl.o)
                                                  ../../crypto/libcrypt_s.a(rsa_parse_mem.o)
                                                  ../../crypto/libcrypt_s.a(pubkey_parse_file.o)
                                                  ../../crypto/libcrypt_s.a(ecc_parse_mem.o)
                                                  ../../crypto/libcrypt_s.a(pstm.o)
                                                  ../../crypto/libcrypt_s.a(x509.o)
                                                  ../../crypto/libcrypt_s.a(pkcs.o)
getAsnLength32                                    ../../crypto/libcrypt_s.a(asn1.o)
                                                  ../../crypto/libcrypt_s.a(x509.o)
getAsnOID                                         ../../crypto/libcrypt_s.a(asn1.o)
                                                  ../../crypto/libcrypt_s.a(x509.o)
getAsnSequence                                    ../../crypto/libcrypt_s.a(asn1.o)
                                                  ../../crypto/libcrypt_s.a(pubkey_parse_mem.o)
                                                  ../../crypto/libcrypt_s.a(rsa_parse_mem.o)
                                                  ../../crypto/libcrypt_s.a(pubkey_parse_file.o)
                                                  ../../crypto/libcrypt_s.a(ecc_parse_mem.o)
                                                  ../../crypto/libcrypt_s.a(ecc_pub.o)
                                                  ../../crypto/libcrypt_s.a(dh_params.o)
                                                  ../../crypto/libcrypt_s.a(x509.o)
                                                  ../../crypto/libcrypt_s.a(pkcs.o)
getAsnSequence32                                  ../../crypto/libcrypt_s.a(asn1.o)
                                                  ../../crypto/libcrypt_s.a(crl.o)
                                                  ../../crypto/libcrypt_s.a(x509.o)
getAsnSet                                         ../../crypto/libcrypt_s.a(asn1.o)
                                                  ../../crypto/libcrypt_s.a(x509.o)
getAsnSet32                                       ../../crypto/libcrypt_s.a(asn1.o)
getAsnTagLenUnsafe                                ../../crypto/libcrypt_s.a(asn1.o)
                                                  ../../crypto/libcrypt_s.a(x509.o)
getDefaultCipherSuites                            ../libssl_s.a(tlsDefaults.o)
                                                  ../libssl_s.a(tls13Encode.o)
getDefaultSigAlgs                                 ../libssl_s.a(tlsDefaults.o)
                                                  ../libssl_s.a(matrixssl.o)
getDefaultSkeHashSize                             ../libssl_s.a(tlsSigVer.o)
getDefaultVersions                                ../libssl_s.a(tlsDefaults.o)
                                                  ../libssl_s.a(matrixsslInitVer.o)
getEcPubKey                                       ../../crypto/libcrypt_s.a(ecc_parse_mem.o)
                                                  ../../crypto/libcrypt_s.a(pubkey_parse_mem.o)
                                                  ../../crypto/libcrypt_s.a(x509.o)
getEccParamById                                   ../../crypto/libcrypt_s.a(ecc_curve_config.o)
                                                  ../libssl_s.a(hsDecode.o)
                                                  ../libssl_s.a(tls13KeyAgree.o)
getEccParamByName                                 ../../crypto/libcrypt_s.a(ecc_curve.o)
getEccParamByOid                                  ../../crypto/libcrypt_s.a(ecc_curve.o)
                                                  ../../crypto/libcrypt_s.a(pubkey_parse_file.o)
                                                  ../../crypto/libcrypt_s.a(ecc_parse_mem.o)
getExplicitExtensions                             ../../crypto/libcrypt_s.a(x509.o)
                                                  ../../crypto/libcrypt_s.a(crl.o)
getPkaAfter                                       ../libssl_s.a(sslEncode.o)
                                                  ../libssl_s.a(tlsSigVer.o)
getPkaAfterCv                                     ../libssl_s.a(sslEncode.o)
getSerialNum                                      ../../crypto/libcrypt_s.a(x509.o)
                                                  ../../crypto/libcrypt_s.a(crl.o)
getSignatureAndHashAlgorithmEncoding              ../libssl_s.a(tlsSigVer.o)
                                                  ../libssl_s.a(sslEncode.o)
get_avphys_pages                                  /lib/x86_64-linux-gnu/libc.so.6
get_avphys_pages@@GLIBC_2.2.5                     /lib/x86_64-linux-gnu/libc.so.6
get_avphys_pages@GLIBC_2.2.5                      /lib/x86_64-linux-gnu/libc.so.6
get_nprocs                                        /lib/x86_64-linux-gnu/libc.so.6
get_nprocs@@GLIBC_2.2.5                           /lib/x86_64-linux-gnu/libc.so.6
get_nprocs@GLIBC_2.2.5                            /lib/x86_64-linux-gnu/libc.so.6
get_nprocs_conf                                   /lib/x86_64-linux-gnu/libc.so.6
get_nprocs_conf@@GLIBC_2.2.5                      /lib/x86_64-linux-gnu/libc.so.6
get_nprocs_conf@GLIBC_2.2.5                       /lib/x86_64-linux-gnu/libc.so.6
get_phys_pages                                    /lib/x86_64-linux-gnu/libc.so.6
get_phys_pages@@GLIBC_2.2.5                       /lib/x86_64-linux-gnu/libc.so.6
get_phys_pages@GLIBC_2.2.5                        /lib/x86_64-linux-gnu/libc.so.6
getauxval                                         /lib/x86_64-linux-gnu/libc.so.6
getauxval@@GLIBC_2.16                             /lib/x86_64-linux-gnu/libc.so.6
getauxval@GLIBC_2.16                              /lib/x86_64-linux-gnu/libc.so.6
getc                                              /lib/x86_64-linux-gnu/libc.so.6
getc@@GLIBC_2.2.5                                 /lib/x86_64-linux-gnu/libc.so.6
getc@GLIBC_2.2.5                                  /lib/x86_64-linux-gnu/libc.so.6
getc_unlocked                                     /lib/x86_64-linux-gnu/libc.so.6
getc_unlocked@@GLIBC_2.2.5                        /lib/x86_64-linux-gnu/libc.so.6
getc_unlocked@GLIBC_2.2.5                         /lib/x86_64-linux-gnu/libc.so.6
getcontext                                        /lib/x86_64-linux-gnu/libc.so.6
getcontext@@GLIBC_2.2.5                           /lib/x86_64-linux-gnu/libc.so.6
getcontext@GLIBC_2.2.5                            /lib/x86_64-linux-gnu/libc.so.6
getcpu                                            /lib/x86_64-linux-gnu/libc.so.6
getcpu@@GLIBC_2.29                                /lib/x86_64-linux-gnu/libc.so.6
getcpu@GLIBC_2.29                                 /lib/x86_64-linux-gnu/libc.so.6
getcwd                                            /lib/x86_64-linux-gnu/libc.so.6
getcwd@@GLIBC_2.2.5                               /lib/x86_64-linux-gnu/libc.so.6
getcwd@GLIBC_2.2.5                                /lib/x86_64-linux-gnu/libc.so.6
getdate_r                                         /lib/x86_64-linux-gnu/libc.so.6
getdate_r@@GLIBC_2.2.5                            /lib/x86_64-linux-gnu/libc.so.6
getdate_r@GLIBC_2.2.5                             /lib/x86_64-linux-gnu/libc.so.6
getdelim                                          /lib/x86_64-linux-gnu/libc.so.6
getdelim@@GLIBC_2.2.5                             /lib/x86_64-linux-gnu/libc.so.6
getdelim@GLIBC_2.2.5                              /lib/x86_64-linux-gnu/libc.so.6
getdents64                                        /lib/x86_64-linux-gnu/libc.so.6
getdents64@@GLIBC_2.30                            /lib/x86_64-linux-gnu/libc.so.6
getdents64@GLIBC_2.30                             /lib/x86_64-linux-gnu/libc.so.6
getdirentries                                     /lib/x86_64-linux-gnu/libc.so.6
getdirentries@@GLIBC_2.2.5                        /lib/x86_64-linux-gnu/libc.so.6
getdirentries@GLIBC_2.2.5                         /lib/x86_64-linux-gnu/libc.so.6
getdtablesize                                     /lib/x86_64-linux-gnu/libc.so.6
getdtablesize@@GLIBC_2.2.5                        /lib/x86_64-linux-gnu/libc.so.6
getdtablesize@GLIBC_2.2.5                         /lib/x86_64-linux-gnu/libc.so.6
getegid                                           /lib/x86_64-linux-gnu/libc.so.6
getegid@@GLIBC_2.2.5                              /lib/x86_64-linux-gnu/libc.so.6
getegid@GLIBC_2.2.5                               /lib/x86_64-linux-gnu/libc.so.6
getenv                                            /lib/x86_64-linux-gnu/libc.so.6
                                                  ../../core/libcore_s.a(osdep.o)
                                                  ../../crypto/libcrypt_s.a(ps_chacha20poly1305ietf.o)
                                                  sslTest.o
getenv@@GLIBC_2.2.5                               /lib/x86_64-linux-gnu/libc.so.6
getenv@GLIBC_2.2.5                                /lib/x86_64-linux-gnu/libc.so.6
geteuid                                           /lib/x86_64-linux-gnu/libc.so.6
geteuid@@GLIBC_2.2.5                              /lib/x86_64-linux-gnu/libc.so.6
geteuid@GLIBC_2.2.5                               /lib/x86_64-linux-gnu/libc.so.6
getgid                                            /lib/x86_64-linux-gnu/libc.so.6
getgid@@GLIBC_2.2.5                               /lib/x86_64-linux-gnu/libc.so.6
getgid@GLIBC_2.2.5                                /lib/x86_64-linux-gnu/libc.so.6
getgroups                                         /lib/x86_64-linux-gnu/libc.so.6
getgroups@@GLIBC_2.2.5                            /lib/x86_64-linux-gnu/libc.so.6
getgroups@GLIBC_2.2.5                             /lib/x86_64-linux-gnu/libc.so.6
gethostname                                       /lib/x86_64-linux-gnu/libc.so.6
gethostname@@GLIBC_2.2.5                          /lib/x86_64-linux-gnu/libc.so.6
gethostname@GLIBC_2.2.5                           /lib/x86_64-linux-gnu/libc.so.6
getifaddrs                                        /lib/x86_64-linux-gnu/libc.so.6
getifaddrs@@GLIBC_2.3                             /lib/x86_64-linux-gnu/libc.so.6
getifaddrs@GLIBC_2.3                              /lib/x86_64-linux-gnu/libc.so.6
getitimer                                         /lib/x86_64-linux-gnu/libc.so.6
getitimer@@GLIBC_2.2.5                            /lib/x86_64-linux-gnu/libc.so.6
getitimer@GLIBC_2.2.5                             /lib/x86_64-linux-gnu/libc.so.6
getline                                           /lib/x86_64-linux-gnu/libc.so.6
getline@@GLIBC_2.2.5                              /lib/x86_64-linux-gnu/libc.so.6
getline@GLIBC_2.2.5                               /lib/x86_64-linux-gnu/libc.so.6
getlogin_r                                        /lib/x86_64-linux-gnu/libc.so.6
getlogin_r@@GLIBC_2.2.5                           /lib/x86_64-linux-gnu/libc.so.6
getlogin_r@GLIBC_2.2.5                            /lib/x86_64-linux-gnu/libc.so.6
getmntent_r                                       /lib/x86_64-linux-gnu/libc.so.6
getmntent_r@@GLIBC_2.2.5                          /lib/x86_64-linux-gnu/libc.so.6
getmntent_r@GLIBC_2.2.5                           /lib/x86_64-linux-gnu/libc.so.6
getnetgrent_r                                     /lib/x86_64-linux-gnu/libc.so.6
getnetgrent_r@@GLIBC_2.2.5                        /lib/x86_64-linux-gnu/libc.so.6
getnetgrent_r@GLIBC_2.2.5                         /lib/x86_64-linux-gnu/libc.so.6
getpagesize                                       /lib/x86_64-linux-gnu/libc.so.6
getpagesize@@GLIBC_2.2.5                          /lib/x86_64-linux-gnu/libc.so.6
getpagesize@GLIBC_2.2.5                           /lib/x86_64-linux-gnu/libc.so.6
getpeername                                       /lib/x86_64-linux-gnu/libc.so.6
getpeername@@GLIBC_2.2.5                          /lib/x86_64-linux-gnu/libc.so.6
getpeername@GLIBC_2.2.5                           /lib/x86_64-linux-gnu/libc.so.6
getpgid                                           /lib/x86_64-linux-gnu/libc.so.6
getpgid@@GLIBC_2.2.5                              /lib/x86_64-linux-gnu/libc.so.6
getpgid@GLIBC_2.2.5                               /lib/x86_64-linux-gnu/libc.so.6
getpid                                            /lib/x86_64-linux-gnu/libc.so.6
getpid@@GLIBC_2.2.5                               /lib/x86_64-linux-gnu/libc.so.6
getpid@GLIBC_2.2.5                                /lib/x86_64-linux-gnu/libc.so.6
                                                  /usr/lib/gcc/x86_64-linux-gnu/11/../../../x86_64-linux-gnu/libpthread.so
getppid                                           /lib/x86_64-linux-gnu/libc.so.6
getppid@@GLIBC_2.2.5                              /lib/x86_64-linux-gnu/libc.so.6
getppid@GLIBC_2.2.5                               /lib/x86_64-linux-gnu/libc.so.6
getpriority                                       /lib/x86_64-linux-gnu/libc.so.6
getpriority@@GLIBC_2.2.5                          /lib/x86_64-linux-gnu/libc.so.6
getpriority@GLIBC_2.2.5                           /lib/x86_64-linux-gnu/libc.so.6
getpt                                             /lib/x86_64-linux-gnu/libc.so.6
getpt@@GLIBC_2.2.5                                /lib/x86_64-linux-gnu/libc.so.6
getpt@GLIBC_2.2.5                                 /lib/x86_64-linux-gnu/libc.so.6
getpw                                             /lib/x86_64-linux-gnu/libc.so.6
getpw@@GLIBC_2.2.5                                /lib/x86_64-linux-gnu/libc.so.6
getpw@GLIBC_2.2.5                                 /lib/x86_64-linux-gnu/libc.so.6
getrandom                                         /lib/x86_64-linux-gnu/libc.so.6
getrandom@@GLIBC_2.25                             /lib/x86_64-linux-gnu/libc.so.6
getrandom@GLIBC_2.25                              /lib/x86_64-linux-gnu/libc.so.6
getrlimit                                         /lib/x86_64-linux-gnu/libc.so.6
getrlimit64                                       /lib/x86_64-linux-gnu/libc.so.6
getrlimit64@@GLIBC_2.2.5                          /lib/x86_64-linux-gnu/libc.so.6
getrlimit64@GLIBC_2.2.5                           /lib/x86_64-linux-gnu/libc.so.6
getrlimit@@GLIBC_2.2.5                            /lib/x86_64-linux-gnu/libc.so.6
getrlimit@GLIBC_2.2.5                             /lib/x86_64-linux-gnu/libc.so.6
                                                  /usr/lib/gcc/x86_64-linux-gnu/11/../../../x86_64-linux-gnu/libpthread.so
getrusage                                         /lib/x86_64-linux-gnu/libc.so.6
getrusage@@GLIBC_2.2.5                            /lib/x86_64-linux-gnu/libc.so.6
getrusage@GLIBC_2.2.5                             /lib/x86_64-linux-gnu/libc.so.6
gets                                              /lib/x86_64-linux-gnu/libc.so.6
gets@@GLIBC_2.2.5                                 /lib/x86_64-linux-gnu/libc.so.6
gets@GLIBC_2.2.5                                  /lib/x86_64-linux-gnu/libc.so.6
getsockname                                       /lib/x86_64-linux-gnu/libc.so.6
getsockname@@GLIBC_2.2.5                          /lib/x86_64-linux-gnu/libc.so.6
getsockname@GLIBC_2.2.5                           /lib/x86_64-linux-gnu/libc.so.6
getsockopt                                        /lib/x86_64-linux-gnu/libc.so.6
getsockopt@@GLIBC_2.2.5                           /lib/x86_64-linux-gnu/libc.so.6
getsockopt@GLIBC_2.2.5                            /lib/x86_64-linux-gnu/libc.so.6
gettext                                           /lib/x86_64-linux-gnu/libc.so.6
gettext@@GLIBC_2.2.5                              /lib/x86_64-linux-gnu/libc.so.6
gettext@GLIBC_2.2.5                               /lib/x86_64-linux-gnu/libc.so.6
gettid                                            /lib/x86_64-linux-gnu/libc.so.6
gettid@@GLIBC_2.30                                /lib/x86_64-linux-gnu/libc.so.6
gettid@GLIBC_2.30                                 /lib/x86_64-linux-gnu/libc.so.6
gettimeofday                                      /lib/x86_64-linux-gnu/libc.so.6
gettimeofday@@GLIBC_2.2.5                         /lib/x86_64-linux-gnu/libc.so.6
gettimeofday@GLIBC_2.2.5                          /lib/x86_64-linux-gnu/libc.so.6
getttyent                                         /lib/x86_64-linux-gnu/libc.so.6
getttyent@@GLIBC_2.2.5                            /lib/x86_64-linux-gnu/libc.so.6
getttyent@GLIBC_2.2.5                             /lib/x86_64-linux-gnu/libc.so.6
getttynam                                         /lib/x86_64-linux-gnu/libc.so.6
getttynam@@GLIBC_2.2.5                            /lib/x86_64-linux-gnu/libc.so.6
getttynam@GLIBC_2.2.5                             /lib/x86_64-linux-gnu/libc.so.6
getuid                                            /lib/x86_64-linux-gnu/libc.so.6
getuid@@GLIBC_2.2.5                               /lib/x86_64-linux-gnu/libc.so.6
getuid@GLIBC_2.2.5                                /lib/x86_64-linux-gnu/libc.so.6
                                                  /usr/lib/gcc/x86_64-linux-gnu/11/../../../x86_64-linux-gnu/libpthread.so
getutent                                          /lib/x86_64-linux-gnu/libc.so.6
getutent@@GLIBC_2.2.5                             /lib/x86_64-linux-gnu/libc.so.6
getutent@GLIBC_2.2.5                              /lib/x86_64-linux-gnu/libc.so.6
getutent_r                                        /lib/x86_64-linux-gnu/libc.so.6
getutent_r@@GLIBC_2.2.5                           /lib/x86_64-linux-gnu/libc.so.6
getutent_r@GLIBC_2.2.5                            /lib/x86_64-linux-gnu/libc.so.6
getutid                                           /lib/x86_64-linux-gnu/libc.so.6
getutid@@GLIBC_2.2.5                              /lib/x86_64-linux-gnu/libc.so.6
getutid@GLIBC_2.2.5                               /lib/x86_64-linux-gnu/libc.so.6
getutid_r                                         /lib/x86_64-linux-gnu/libc.so.6
getutid_r@@GLIBC_2.2.5                            /lib/x86_64-linux-gnu/libc.so.6
getutid_r@GLIBC_2.2.5                             /lib/x86_64-linux-gnu/libc.so.6
getutline                                         /lib/x86_64-linux-gnu/libc.so.6
getutline@@GLIBC_2.2.5                            /lib/x86_64-linux-gnu/libc.so.6
getutline@GLIBC_2.2.5                             /lib/x86_64-linux-gnu/libc.so.6
getutline_r                                       /lib/x86_64-linux-gnu/libc.so.6
getutline_r@@GLIBC_2.2.5                          /lib/x86_64-linux-gnu/libc.so.6
getutline_r@GLIBC_2.2.5                           /lib/x86_64-linux-gnu/libc.so.6
getwc                                             /lib/x86_64-linux-gnu/libc.so.6
getwc@@GLIBC_2.2.5                                /lib/x86_64-linux-gnu/libc.so.6
getwc@GLIBC_2.2.5                                 /lib/x86_64-linux-gnu/libc.so.6
getwc_unlocked                                    /lib/x86_64-linux-gnu/libc.so.6
getwc_unlocked@@GLIBC_2.2.5                       /lib/x86_64-linux-gnu/libc.so.6
getwc_unlocked@GLIBC_2.2.5                        /lib/x86_64-linux-gnu/libc.so.6
glob_pattern_p                                    /lib/x86_64-linux-gnu/libc.so.6
glob_pattern_p@@GLIBC_2.2.5                       /lib/x86_64-linux-gnu/libc.so.6
glob_pattern_p@GLIBC_2.2.5                        /lib/x86_64-linux-gnu/libc.so.6
globfree64                                        /lib/x86_64-linux-gnu/libc.so.6
globfree64@@GLIBC_2.2.5                           /lib/x86_64-linux-gnu/libc.so.6
globfree64@GLIBC_2.2.5                            /lib/x86_64-linux-gnu/libc.so.6
gmtime_r                                          /lib/x86_64-linux-gnu/libc.so.6
                                                  ../../core/libcore_s.a(corelib_date.o)
gmtime_r@@GLIBC_2.2.5                             /lib/x86_64-linux-gnu/libc.so.6
gmtime_r@GLIBC_2.2.5                              /lib/x86_64-linux-gnu/libc.so.6
gnu_dev_major                                     /lib/x86_64-linux-gnu/libc.so.6
gnu_dev_major@@GLIBC_2.3.3                        /lib/x86_64-linux-gnu/libc.so.6
gnu_dev_major@GLIBC_2.3.3                         /lib/x86_64-linux-gnu/libc.so.6
gnu_dev_makedev                                   /lib/x86_64-linux-gnu/libc.so.6
gnu_dev_makedev@@GLIBC_2.3.3                      /lib/x86_64-linux-gnu/libc.so.6
gnu_dev_makedev@GLIBC_2.3.3                       /lib/x86_64-linux-gnu/libc.so.6
gnu_dev_minor                                     /lib/x86_64-linux-gnu/libc.so.6
gnu_dev_minor@@GLIBC_2.3.3                        /lib/x86_64-linux-gnu/libc.so.6
gnu_dev_minor@GLIBC_2.3.3                         /lib/x86_64-linux-gnu/libc.so.6
gnu_get_libc_release                              /lib/x86_64-linux-gnu/libc.so.6
gnu_get_libc_release@@GLIBC_2.2.5                 /lib/x86_64-linux-gnu/libc.so.6
gnu_get_libc_release@GLIBC_2.2.5                  /lib/x86_64-linux-gnu/libc.so.6
gnu_get_libc_version                              /lib/x86_64-linux-gnu/libc.so.6
gnu_get_libc_version@@GLIBC_2.2.5                 /lib/x86_64-linux-gnu/libc.so.6
gnu_get_libc_version@GLIBC_2.2.5                  /lib/x86_64-linux-gnu/libc.so.6
group_member                                      /lib/x86_64-linux-gnu/libc.so.6
group_member@@GLIBC_2.2.5                         /lib/x86_64-linux-gnu/libc.so.6
group_member@GLIBC_2.2.5                          /lib/x86_64-linux-gnu/libc.so.6
gsignal                                           /lib/x86_64-linux-gnu/libc.so.6
gsignal@@GLIBC_2.2.5                              /lib/x86_64-linux-gnu/libc.so.6
gsignal@GLIBC_2.2.5                               /lib/x86_64-linux-gnu/libc.so.6
hasmntopt                                         /lib/x86_64-linux-gnu/libc.so.6
hasmntopt@@GLIBC_2.2.5                            /lib/x86_64-linux-gnu/libc.so.6
hasmntopt@GLIBC_2.2.5                             /lib/x86_64-linux-gnu/libc.so.6
haveKeyMaterial                                   ../libssl_s.a(cipherSuite.o)
hcreate_r                                         /lib/x86_64-linux-gnu/libc.so.6
hcreate_r@@GLIBC_2.2.5                            /lib/x86_64-linux-gnu/libc.so.6
hcreate_r@GLIBC_2.2.5                             /lib/x86_64-linux-gnu/libc.so.6
hdestroy                                          /lib/x86_64-linux-gnu/libc.so.6
hdestroy@@GLIBC_2.2.5                             /lib/x86_64-linux-gnu/libc.so.6
hdestroy@GLIBC_2.2.5                              /lib/x86_64-linux-gnu/libc.so.6
hdestroy_r                                        /lib/x86_64-linux-gnu/libc.so.6
hdestroy_r@@GLIBC_2.2.5                           /lib/x86_64-linux-gnu/libc.so.6
hdestroy_r@GLIBC_2.2.5                            /lib/x86_64-linux-gnu/libc.so.6
hsearch_r                                         /lib/x86_64-linux-gnu/libc.so.6
hsearch_r@@GLIBC_2.2.5                            /lib/x86_64-linux-gnu/libc.so.6
hsearch_r@GLIBC_2.2.5                             /lib/x86_64-linux-gnu/libc.so.6
if_freenameindex                                  /lib/x86_64-linux-gnu/libc.so.6
if_freenameindex@@GLIBC_2.2.5                     /lib/x86_64-linux-gnu/libc.so.6
if_freenameindex@GLIBC_2.2.5                      /lib/x86_64-linux-gnu/libc.so.6
if_indextoname                                    /lib/x86_64-linux-gnu/libc.so.6
if_indextoname@@GLIBC_2.2.5                       /lib/x86_64-linux-gnu/libc.so.6
if_indextoname@GLIBC_2.2.5                        /lib/x86_64-linux-gnu/libc.so.6
if_nameindex                                      /lib/x86_64-linux-gnu/libc.so.6
if_nameindex@@GLIBC_2.2.5                         /lib/x86_64-linux-gnu/libc.so.6
if_nameindex@GLIBC_2.2.5                          /lib/x86_64-linux-gnu/libc.so.6
if_nametoindex                                    /lib/x86_64-linux-gnu/libc.so.6
if_nametoindex@@GLIBC_2.2.5                       /lib/x86_64-linux-gnu/libc.so.6
if_nametoindex@GLIBC_2.2.5                        /lib/x86_64-linux-gnu/libc.so.6
imaxabs                                           /lib/x86_64-linux-gnu/libc.so.6
imaxabs@@GLIBC_2.2.5                              /lib/x86_64-linux-gnu/libc.so.6
imaxabs@GLIBC_2.2.5                               /lib/x86_64-linux-gnu/libc.so.6
imaxdiv                                           /lib/x86_64-linux-gnu/libc.so.6
imaxdiv@@GLIBC_2.2.5                              /lib/x86_64-linux-gnu/libc.so.6
imaxdiv@GLIBC_2.2.5                               /lib/x86_64-linux-gnu/libc.so.6
in6addr_any                                       /lib/x86_64-linux-gnu/libc.so.6
in6addr_any@@GLIBC_2.2.5                          /lib/x86_64-linux-gnu/libc.so.6
in6addr_any@GLIBC_2.2.5                           /lib/x86_64-linux-gnu/libc.so.6
in6addr_loopback                                  /lib/x86_64-linux-gnu/libc.so.6
in6addr_loopback@@GLIBC_2.2.5                     /lib/x86_64-linux-gnu/libc.so.6
in6addr_loopback@GLIBC_2.2.5                      /lib/x86_64-linux-gnu/libc.so.6
incrTwoByte                                       ../libssl_s.a(dtls.o)
                                                  ../libssl_s.a(sslEncode.o)
                                                  ../libssl_s.a(sslDecode.o)
index                                             /lib/x86_64-linux-gnu/libc.so.6
index@@GLIBC_2.2.5                                /lib/x86_64-linux-gnu/libc.so.6
index@GLIBC_2.2.5                                 /lib/x86_64-linux-gnu/libc.so.6
inet_addr                                         /lib/x86_64-linux-gnu/libc.so.6
inet_addr@@GLIBC_2.2.5                            /lib/x86_64-linux-gnu/libc.so.6
inet_addr@GLIBC_2.2.5                             /lib/x86_64-linux-gnu/libc.so.6
inet_aton                                         /lib/x86_64-linux-gnu/libc.so.6
inet_aton@@GLIBC_2.2.5                            /lib/x86_64-linux-gnu/libc.so.6
inet_aton@GLIBC_2.2.5                             /lib/x86_64-linux-gnu/libc.so.6
inet_makeaddr                                     /lib/x86_64-linux-gnu/libc.so.6
inet_makeaddr@@GLIBC_2.2.5                        /lib/x86_64-linux-gnu/libc.so.6
inet_makeaddr@GLIBC_2.2.5                         /lib/x86_64-linux-gnu/libc.so.6
inet_pton                                         /lib/x86_64-linux-gnu/libc.so.6
inet_pton@@GLIBC_2.2.5                            /lib/x86_64-linux-gnu/libc.so.6
inet_pton@GLIBC_2.2.5                             /lib/x86_64-linux-gnu/libc.so.6
initSupportedVersions                             ../libssl_s.a(matrixsslInitVer.o)
                                                  ../libssl_s.a(matrixssl.o)
initstate                                         /lib/x86_64-linux-gnu/libc.so.6
initstate@@GLIBC_2.2.5                            /lib/x86_64-linux-gnu/libc.so.6
initstate@GLIBC_2.2.5                             /lib/x86_64-linux-gnu/libc.so.6
initstate_r                                       /lib/x86_64-linux-gnu/libc.so.6
initstate_r@@GLIBC_2.2.5                          /lib/x86_64-linux-gnu/libc.so.6
initstate_r@GLIBC_2.2.5                           /lib/x86_64-linux-gnu/libc.so.6
internalCRLmatch                                  ../../crypto/libcrypt_s.a(crl.o)
internalCrlIsRevoked                              ../../crypto/libcrypt_s.a(crl.o)
invokeSslTest                                     sslTest.o
ioctl                                             /lib/x86_64-linux-gnu/libc.so.6
ioctl@@GLIBC_2.2.5                                /lib/x86_64-linux-gnu/libc.so.6
ioctl@GLIBC_2.2.5                                 /lib/x86_64-linux-gnu/libc.so.6
isAlpnSuite                                       ../libssl_s.a(cipherSuite.o)
isTls13Ciphersuite                                ../libssl_s.a(tls13CipherSuite.o)
                                                  ../libssl_s.a(hsDecode.o)
                                                  ../libssl_s.a(matrixsslApi.o)
isalnum_l                                         /lib/x86_64-linux-gnu/libc.so.6
isalnum_l@@GLIBC_2.3                              /lib/x86_64-linux-gnu/libc.so.6
isalnum_l@GLIBC_2.3                               /lib/x86_64-linux-gnu/libc.so.6
isalpha_l                                         /lib/x86_64-linux-gnu/libc.so.6
isalpha_l@@GLIBC_2.3                              /lib/x86_64-linux-gnu/libc.so.6
isalpha_l@GLIBC_2.3                               /lib/x86_64-linux-gnu/libc.so.6
isatty                                            /lib/x86_64-linux-gnu/libc.so.6
isatty@@GLIBC_2.2.5                               /lib/x86_64-linux-gnu/libc.so.6
isatty@GLIBC_2.2.5                                /lib/x86_64-linux-gnu/libc.so.6
isblank_l                                         /lib/x86_64-linux-gnu/libc.so.6
isblank_l@@GLIBC_2.3                              /lib/x86_64-linux-gnu/libc.so.6
isblank_l@GLIBC_2.3                               /lib/x86_64-linux-gnu/libc.so.6
iscntrl_l                                         /lib/x86_64-linux-gnu/libc.so.6
iscntrl_l@@GLIBC_2.3                              /lib/x86_64-linux-gnu/libc.so.6
iscntrl_l@GLIBC_2.3                               /lib/x86_64-linux-gnu/libc.so.6
isctype                                           /lib/x86_64-linux-gnu/libc.so.6
isctype@@GLIBC_2.3                                /lib/x86_64-linux-gnu/libc.so.6
isctype@GLIBC_2.3                                 /lib/x86_64-linux-gnu/libc.so.6
isdigit_l                                         /lib/x86_64-linux-gnu/libc.so.6
isdigit_l@@GLIBC_2.3                              /lib/x86_64-linux-gnu/libc.so.6
isdigit_l@GLIBC_2.3                               /lib/x86_64-linux-gnu/libc.so.6
isgraph_l                                         /lib/x86_64-linux-gnu/libc.so.6
isgraph_l@@GLIBC_2.3                              /lib/x86_64-linux-gnu/libc.so.6
isgraph_l@GLIBC_2.3                               /lib/x86_64-linux-gnu/libc.so.6
isinf                                             /lib/x86_64-linux-gnu/libc.so.6
isinf@@GLIBC_2.2.5                                /lib/x86_64-linux-gnu/libc.so.6
isinf@GLIBC_2.2.5                                 /lib/x86_64-linux-gnu/libc.so.6
isinff                                            /lib/x86_64-linux-gnu/libc.so.6
isinff@@GLIBC_2.2.5                               /lib/x86_64-linux-gnu/libc.so.6
isinff@GLIBC_2.2.5                                /lib/x86_64-linux-gnu/libc.so.6
isinfl                                            /lib/x86_64-linux-gnu/libc.so.6
isinfl@@GLIBC_2.2.5                               /lib/x86_64-linux-gnu/libc.so.6
isinfl@GLIBC_2.2.5                                /lib/x86_64-linux-gnu/libc.so.6
islower_l                                         /lib/x86_64-linux-gnu/libc.so.6
islower_l@@GLIBC_2.3                              /lib/x86_64-linux-gnu/libc.so.6
islower_l@GLIBC_2.3                               /lib/x86_64-linux-gnu/libc.so.6
isnan                                             /lib/x86_64-linux-gnu/libc.so.6
isnan@@GLIBC_2.2.5                                /lib/x86_64-linux-gnu/libc.so.6
isnan@GLIBC_2.2.5                                 /lib/x86_64-linux-gnu/libc.so.6
isnanf                                            /lib/x86_64-linux-gnu/libc.so.6
isnanf@@GLIBC_2.2.5                               /lib/x86_64-linux-gnu/libc.so.6
isnanf@GLIBC_2.2.5                                /lib/x86_64-linux-gnu/libc.so.6
isnanl                                            /lib/x86_64-linux-gnu/libc.so.6
isnanl@@GLIBC_2.2.5                               /lib/x86_64-linux-gnu/libc.so.6
isnanl@GLIBC_2.2.5                                /lib/x86_64-linux-gnu/libc.so.6
isprint_l                                         /lib/x86_64-linux-gnu/libc.so.6
isprint_l@@GLIBC_2.3                              /lib/x86_64-linux-gnu/libc.so.6
isprint_l@GLIBC_2.3                               /lib/x86_64-linux-gnu/libc.so.6
ispunct_l                                         /lib/x86_64-linux-gnu/libc.so.6
ispunct_l@@GLIBC_2.3                              /lib/x86_64-linux-gnu/libc.so.6
ispunct_l@GLIBC_2.3                               /lib/x86_64-linux-gnu/libc.so.6
isspace_l                                         /lib/x86_64-linux-gnu/libc.so.6
isspace_l@@GLIBC_2.3                              /lib/x86_64-linux-gnu/libc.so.6
isspace_l@GLIBC_2.3                               /lib/x86_64-linux-gnu/libc.so.6
isupper_l                                         /lib/x86_64-linux-gnu/libc.so.6
isupper_l@@GLIBC_2.3                              /lib/x86_64-linux-gnu/libc.so.6
isupper_l@GLIBC_2.3                               /lib/x86_64-linux-gnu/libc.so.6
iswalnum                                          /lib/x86_64-linux-gnu/libc.so.6
iswalnum@@GLIBC_2.2.5                             /lib/x86_64-linux-gnu/libc.so.6
iswalnum@GLIBC_2.2.5                              /lib/x86_64-linux-gnu/libc.so.6
iswalnum_l                                        /lib/x86_64-linux-gnu/libc.so.6
iswalnum_l@@GLIBC_2.3                             /lib/x86_64-linux-gnu/libc.so.6
iswalnum_l@GLIBC_2.3                              /lib/x86_64-linux-gnu/libc.so.6
iswalpha                                          /lib/x86_64-linux-gnu/libc.so.6
iswalpha@@GLIBC_2.2.5                             /lib/x86_64-linux-gnu/libc.so.6
iswalpha@GLIBC_2.2.5                              /lib/x86_64-linux-gnu/libc.so.6
iswalpha_l                                        /lib/x86_64-linux-gnu/libc.so.6
iswalpha_l@@GLIBC_2.3                             /lib/x86_64-linux-gnu/libc.so.6
iswalpha_l@GLIBC_2.3                              /lib/x86_64-linux-gnu/libc.so.6
iswblank                                          /lib/x86_64-linux-gnu/libc.so.6
iswblank@@GLIBC_2.2.5                             /lib/x86_64-linux-gnu/libc.so.6
iswblank@GLIBC_2.2.5                              /lib/x86_64-linux-gnu/libc.so.6
iswblank_l                                        /lib/x86_64-linux-gnu/libc.so.6
iswblank_l@@GLIBC_2.3                             /lib/x86_64-linux-gnu/libc.so.6
iswblank_l@GLIBC_2.3                              /lib/x86_64-linux-gnu/libc.so.6
iswcntrl                                          /lib/x86_64-linux-gnu/libc.so.6
iswcntrl@@GLIBC_2.2.5                             /lib/x86_64-linux-gnu/libc.so.6
iswcntrl@GLIBC_2.2.5                              /lib/x86_64-linux-gnu/libc.so.6
iswcntrl_l                                        /lib/x86_64-linux-gnu/libc.so.6
iswcntrl_l@@GLIBC_2.3                             /lib/x86_64-linux-gnu/libc.so.6
iswcntrl_l@GLIBC_2.3                              /lib/x86_64-linux-gnu/libc.so.6
iswctype                                          /lib/x86_64-linux-gnu/libc.so.6
iswctype@@GLIBC_2.2.5                             /lib/x86_64-linux-gnu/libc.so.6
iswctype@GLIBC_2.2.5                              /lib/x86_64-linux-gnu/libc.so.6
iswctype_l                                        /lib/x86_64-linux-gnu/libc.so.6
iswctype_l@@GLIBC_2.3                             /lib/x86_64-linux-gnu/libc.so.6
iswctype_l@GLIBC_2.3                              /lib/x86_64-linux-gnu/libc.so.6
iswdigit                                          /lib/x86_64-linux-gnu/libc.so.6
iswdigit@@GLIBC_2.2.5                             /lib/x86_64-linux-gnu/libc.so.6
iswdigit@GLIBC_2.2.5                              /lib/x86_64-linux-gnu/libc.so.6
iswdigit_l                                        /lib/x86_64-linux-gnu/libc.so.6
iswdigit_l@@GLIBC_2.3                             /lib/x86_64-linux-gnu/libc.so.6
iswdigit_l@GLIBC_2.3                              /lib/x86_64-linux-gnu/libc.so.6
iswgraph                                          /lib/x86_64-linux-gnu/libc.so.6
iswgraph@@GLIBC_2.2.5                             /lib/x86_64-linux-gnu/libc.so.6
iswgraph@GLIBC_2.2.5                              /lib/x86_64-linux-gnu/libc.so.6
iswgraph_l                                        /lib/x86_64-linux-gnu/libc.so.6
iswgraph_l@@GLIBC_2.3                             /lib/x86_64-linux-gnu/libc.so.6
iswgraph_l@GLIBC_2.3                              /lib/x86_64-linux-gnu/libc.so.6
iswlower                                          /lib/x86_64-linux-gnu/libc.so.6
iswlower@@GLIBC_2.2.5                             /lib/x86_64-linux-gnu/libc.so.6
iswlower@GLIBC_2.2.5                              /lib/x86_64-linux-gnu/libc.so.6
iswlower_l                                        /lib/x86_64-linux-gnu/libc.so.6
iswlower_l@@GLIBC_2.3                             /lib/x86_64-linux-gnu/libc.so.6
iswlower_l@GLIBC_2.3                              /lib/x86_64-linux-gnu/libc.so.6
iswprint                                          /lib/x86_64-linux-gnu/libc.so.6
iswprint@@GLIBC_2.2.5                             /lib/x86_64-linux-gnu/libc.so.6
iswprint@GLIBC_2.2.5                              /lib/x86_64-linux-gnu/libc.so.6
iswprint_l                                        /lib/x86_64-linux-gnu/libc.so.6
iswprint_l@@GLIBC_2.3                             /lib/x86_64-linux-gnu/libc.so.6
iswprint_l@GLIBC_2.3                              /lib/x86_64-linux-gnu/libc.so.6
iswpunct                                          /lib/x86_64-linux-gnu/libc.so.6
iswpunct@@GLIBC_2.2.5                             /lib/x86_64-linux-gnu/libc.so.6
iswpunct@GLIBC_2.2.5                              /lib/x86_64-linux-gnu/libc.so.6
iswpunct_l                                        /lib/x86_64-linux-gnu/libc.so.6
iswpunct_l@@GLIBC_2.3                             /lib/x86_64-linux-gnu/libc.so.6
iswpunct_l@GLIBC_2.3                              /lib/x86_64-linux-gnu/libc.so.6
iswspace                                          /lib/x86_64-linux-gnu/libc.so.6
iswspace@@GLIBC_2.2.5                             /lib/x86_64-linux-gnu/libc.so.6
iswspace@GLIBC_2.2.5                              /lib/x86_64-linux-gnu/libc.so.6
iswspace_l                                        /lib/x86_64-linux-gnu/libc.so.6
iswspace_l@@GLIBC_2.3                             /lib/x86_64-linux-gnu/libc.so.6
iswspace_l@GLIBC_2.3                              /lib/x86_64-linux-gnu/libc.so.6
iswupper                                          /lib/x86_64-linux-gnu/libc.so.6
iswupper@@GLIBC_2.2.5                             /lib/x86_64-linux-gnu/libc.so.6
iswupper@GLIBC_2.2.5                              /lib/x86_64-linux-gnu/libc.so.6
iswupper_l                                        /lib/x86_64-linux-gnu/libc.so.6
iswupper_l@@GLIBC_2.3                             /lib/x86_64-linux-gnu/libc.so.6
iswupper_l@GLIBC_2.3                              /lib/x86_64-linux-gnu/libc.so.6
iswxdigit                                         /lib/x86_64-linux-gnu/libc.so.6
iswxdigit@@GLIBC_2.2.5                            /lib/x86_64-linux-gnu/libc.so.6
iswxdigit@GLIBC_2.2.5                             /lib/x86_64-linux-gnu/libc.so.6
iswxdigit_l                                       /lib/x86_64-linux-gnu/libc.so.6
iswxdigit_l@@GLIBC_2.3                            /lib/x86_64-linux-gnu/libc.so.6
iswxdigit_l@GLIBC_2.3                             /lib/x86_64-linux-gnu/libc.so.6
isxdigit_l                                        /lib/x86_64-linux-gnu/libc.so.6
isxdigit_l@@GLIBC_2.3                             /lib/x86_64-linux-gnu/libc.so.6
isxdigit_l@GLIBC_2.3                              /lib/x86_64-linux-gnu/libc.so.6
jrand48_r                                         /lib/x86_64-linux-gnu/libc.so.6
jrand48_r@@GLIBC_2.2.5                            /lib/x86_64-linux-gnu/libc.so.6
jrand48_r@GLIBC_2.2.5                             /lib/x86_64-linux-gnu/libc.so.6
kill                                              /lib/x86_64-linux-gnu/libc.so.6
kill@@GLIBC_2.2.5                                 /lib/x86_64-linux-gnu/libc.so.6
kill@GLIBC_2.2.5                                  /lib/x86_64-linux-gnu/libc.so.6
lchown                                            /lib/x86_64-linux-gnu/libc.so.6
lchown@@GLIBC_2.2.5                               /lib/x86_64-linux-gnu/libc.so.6
lchown@GLIBC_2.2.5                                /lib/x86_64-linux-gnu/libc.so.6
lckpwdf                                           /lib/x86_64-linux-gnu/libc.so.6
lckpwdf@@GLIBC_2.2.5                              /lib/x86_64-linux-gnu/libc.so.6
lckpwdf@GLIBC_2.2.5                               /lib/x86_64-linux-gnu/libc.so.6
lcong48_r                                         /lib/x86_64-linux-gnu/libc.so.6
lcong48_r@@GLIBC_2.2.5                            /lib/x86_64-linux-gnu/libc.so.6
lcong48_r@GLIBC_2.2.5                             /lib/x86_64-linux-gnu/libc.so.6
ldexp                                             /lib/x86_64-linux-gnu/libc.so.6
ldexp@@GLIBC_2.2.5                                /lib/x86_64-linux-gnu/libc.so.6
ldexp@GLIBC_2.2.5                                 /lib/x86_64-linux-gnu/libc.so.6
ldexpf                                            /lib/x86_64-linux-gnu/libc.so.6
ldexpf@@GLIBC_2.2.5                               /lib/x86_64-linux-gnu/libc.so.6
ldexpf@GLIBC_2.2.5                                /lib/x86_64-linux-gnu/libc.so.6
ldexpl                                            /lib/x86_64-linux-gnu/libc.so.6
ldexpl@@GLIBC_2.2.5                               /lib/x86_64-linux-gnu/libc.so.6
ldexpl@GLIBC_2.2.5                                /lib/x86_64-linux-gnu/libc.so.6
link                                              /lib/x86_64-linux-gnu/libc.so.6
link@@GLIBC_2.2.5                                 /lib/x86_64-linux-gnu/libc.so.6
link@GLIBC_2.2.5                                  /lib/x86_64-linux-gnu/libc.so.6
                                                  /usr/lib/gcc/x86_64-linux-gnu/11/../../../x86_64-linux-gnu/libpthread.so
listen                                            /lib/x86_64-linux-gnu/libc.so.6
listen@@GLIBC_2.2.5                               /lib/x86_64-linux-gnu/libc.so.6
listen@GLIBC_2.2.5                                /lib/x86_64-linux-gnu/libc.so.6
localtime_r                                       /lib/x86_64-linux-gnu/libc.so.6
localtime_r@@GLIBC_2.2.5                          /lib/x86_64-linux-gnu/libc.so.6
localtime_r@GLIBC_2.2.5                           /lib/x86_64-linux-gnu/libc.so.6
lockf64                                           /lib/x86_64-linux-gnu/libc.so.6
lockf64@@GLIBC_2.2.5                              /lib/x86_64-linux-gnu/libc.so.6
lockf64@GLIBC_2.2.5                               /lib/x86_64-linux-gnu/libc.so.6
longjmp                                           /lib/x86_64-linux-gnu/libc.so.6
longjmp@@GLIBC_2.2.5                              /lib/x86_64-linux-gnu/libc.so.6
lseek                                             /usr/lib/gcc/x86_64-linux-gnu/11/../../../x86_64-linux-gnu/libpthread.so
lseek64                                           /usr/lib/gcc/x86_64-linux-gnu/11/../../../x86_64-linux-gnu/libpthread.so
lseek64@@GLIBC_2.2.5                              /usr/lib/gcc/x86_64-linux-gnu/11/../../../x86_64-linux-gnu/libpthread.so
                                                  /lib/x86_64-linux-gnu/libc.so.6
lseek64@GLIBC_2.2.5                               /usr/lib/gcc/x86_64-linux-gnu/11/../../../x86_64-linux-gnu/libpthread.so
lseek@@GLIBC_2.2.5                                /usr/lib/gcc/x86_64-linux-gnu/11/../../../x86_64-linux-gnu/libpthread.so
                                                  /lib/x86_64-linux-gnu/libc.so.6
lseek@GLIBC_2.2.5                                 /usr/lib/gcc/x86_64-linux-gnu/11/../../../x86_64-linux-gnu/libpthread.so
madvise                                           /lib/x86_64-linux-gnu/libc.so.6
                                                  ../../crypto/libcrypt_s.a(utils.o)
madvise@@GLIBC_2.2.5                              /lib/x86_64-linux-gnu/libc.so.6
madvise@GLIBC_2.2.5                               /lib/x86_64-linux-gnu/libc.so.6
main                                              sslTest.o
                                                  /usr/lib/gcc/x86_64-linux-gnu/11/../../../x86_64-linux-gnu/Scrt1.o
makecontext                                       /lib/x86_64-linux-gnu/libc.so.6
makecontext@@GLIBC_2.2.5                          /lib/x86_64-linux-gnu/libc.so.6
makecontext@GLIBC_2.2.5                           /lib/x86_64-linux-gnu/libc.so.6
mallinfo                                          /lib/x86_64-linux-gnu/libc.so.6
mallinfo@@GLIBC_2.2.5                             /lib/x86_64-linux-gnu/libc.so.6
mallinfo@GLIBC_2.2.5                              /lib/x86_64-linux-gnu/libc.so.6
malloc                                            /lib/x86_64-linux-gnu/libc.so.6
                                                  ../../core/libcore_s.a(psbuf.o)
                                                  ../../core/libcore_s.a(corelib_list.o)
                                                  ../../crypto/libcrypt_s.a(ecc_math.o)
                                                  ../../crypto/libcrypt_s.a(crl.o)
                                                  ../../crypto/libcrypt_s.a(rsa_pub.o)
                                                  ../../crypto/libcrypt_s.a(rsa_priv.o)
                                                  ../../crypto/libcrypt_s.a(pubkey_sign.o)
                                                  ../../crypto/libcrypt_s.a(pubkey.o)
                                                  ../../crypto/libcrypt_s.a(ecc_gen_shared.o)
                                                  ../../crypto/libcrypt_s.a(ecc_keygen.o)
                                                  ../../crypto/libcrypt_s.a(ecc_pub.o)
                                                  ../../crypto/libcrypt_s.a(dh_gen_key.o)
                                                  ../../crypto/libcrypt_s.a(dh_params.o)
                                                  ../../crypto/libcrypt_s.a(pstm.o)
                                                  ../../crypto/libcrypt_s.a(x509.o)
                                                  ../../crypto/libcrypt_s.a(pkcs.o)
                                                  ../../crypto/libcrypt_s.a(pem_decode_mem.o)
                                                  ../libssl_s.a(extDecode.o)
                                                  ../libssl_s.a(hsDecode.o)
                                                  ../libssl_s.a(tls.o)
                                                  ../libssl_s.a(tls13SigVer.o)
                                                  ../libssl_s.a(tls13Resume.o)
                                                  ../libssl_s.a(tls13Psk.o)
                                                  ../libssl_s.a(tls13KeyAgree.o)
                                                  ../libssl_s.a(tls13DecodeExt.o)
                                                  ../libssl_s.a(tls13Decode.o)
                                                  ../libssl_s.a(tls13Encode.o)
                                                  ../libssl_s.a(tlsSigVer.o)
                                                  ../libssl_s.a(tlsDefaults.o)
                                                  ../libssl_s.a(sslEncode.o)
                                                  ../libssl_s.a(sslDecode.o)
                                                  ../libssl_s.a(psk.o)
                                                  ../libssl_s.a(matrixsslApi.o)
                                                  ../libssl_s.a(matrixsslKeys.o)
                                                  ../libssl_s.a(matrixssl.o)
                                                  ../libssl_s.a(dtls.o)
                                                  ../libssl_s.a(cipherSuite.o)
                                                  sslTest.o
malloc@@GLIBC_2.2.5                               /lib/x86_64-linux-gnu/libc.so.6
                                                  /lib/x86_64-linux-gnu/ld-linux-x86-64.so.2
malloc@GLIBC_2.2.5                                /lib/x86_64-linux-gnu/libc.so.6
                                                  /usr/lib/gcc/x86_64-linux-gnu/11/../../../x86_64-linux-gnu/libpthread.so
malloc_info                                       /lib/x86_64-linux-gnu/libc.so.6
malloc_info@@GLIBC_2.10                           /lib/x86_64-linux-gnu/libc.so.6
malloc_info@GLIBC_2.10                            /lib/x86_64-linux-gnu/libc.so.6
malloc_stats                                      /lib/x86_64-linux-gnu/libc.so.6
malloc_stats@@GLIBC_2.2.5                         /lib/x86_64-linux-gnu/libc.so.6
malloc_stats@GLIBC_2.2.5                          /lib/x86_64-linux-gnu/libc.so.6
malloc_trim                                       /lib/x86_64-linux-gnu/libc.so.6
malloc_trim@@GLIBC_2.2.5                          /lib/x86_64-linux-gnu/libc.so.6
malloc_trim@GLIBC_2.2.5                           /lib/x86_64-linux-gnu/libc.so.6
malloc_usable_size                                /lib/x86_64-linux-gnu/libc.so.6
malloc_usable_size@@GLIBC_2.2.5                   /lib/x86_64-linux-gnu/libc.so.6
malloc_usable_size@GLIBC_2.2.5                    /lib/x86_64-linux-gnu/libc.so.6
mallopt                                           /lib/x86_64-linux-gnu/libc.so.6
mallopt@@GLIBC_2.2.5                              /lib/x86_64-linux-gnu/libc.so.6
mallopt@GLIBC_2.2.5                               /lib/x86_64-linux-gnu/libc.so.6
matrixClearSession                                ../libssl_s.a(matrixssl.o)
                                                  ../libssl_s.a(hsDecode.o)
                                                  ../libssl_s.a(sslEncode.o)
matrixCreateSessionTicket                         ../libssl_s.a(matrixssl.o)
                                                  ../libssl_s.a(sslEncode.o)
matrixDtlsGetOutdata                              ../libssl_s.a(dtls.o)
                                                  sslTest.o
matrixDtlsGetPmtu                                 ../libssl_s.a(dtls.o)
                                                  ../libssl_s.a(matrixsslApi.o)
                                                  ../libssl_s.a(matrixssl.o)
matrixDtlsSentData                                ../libssl_s.a(dtls.o)
                                                  sslTest.o
matrixDtlsSetPmtu                                 ../libssl_s.a(dtls.o)
                                                  ../libssl_s.a(matrixssl.o)
matrixPskGetHint                                  ../libssl_s.a(psk.o)
                                                  ../libssl_s.a(sslEncode.o)
matrixRegisterSession                             ../libssl_s.a(matrixssl.o)
                                                  ../libssl_s.a(sslEncode.o)
matrixResumeSession                               ../libssl_s.a(matrixssl.o)
                                                  ../libssl_s.a(hsDecode.o)
matrixServerGetKeysSNI                            ../libssl_s.a(matrixssl.o)
                                                  ../libssl_s.a(cipherSuite.o)
matrixServerSetKeysSNI                            ../libssl_s.a(matrixssl.o)
matrixSessionTicketLen                            ../libssl_s.a(matrixssl.o)
                                                  ../libssl_s.a(sslEncode.o)
matrixSslAddIdentity                              ../libssl_s.a(matrixsslKeys.o)
matrixSslChooseClientKeys                         ../libssl_s.a(tlsSelectKeys.o)
                                                  ../libssl_s.a(hsDecode.o)
                                                  ../libssl_s.a(tls13Decode.o)
matrixSslClearSessionId                           ../libssl_s.a(matrixsslApi.o)
                                                  sslTest.o
matrixSslClose                                    ../libssl_s.a(matrixssl.o)
                                                  sslTest.o
matrixSslCreateIdentity                           ../libssl_s.a(matrixsslKeys.o)
matrixSslCreateIdentityFromData                   ../libssl_s.a(matrixsslKeys.o)
matrixSslCreateSNIext                             ../libssl_s.a(matrixssl.o)
matrixSslDecode                                   ../libssl_s.a(sslDecode.o)
                                                  ../libssl_s.a(matrixsslApi.o)
matrixSslDecodeTls13                              ../libssl_s.a(tls13Decode.o)
                                                  ../libssl_s.a(sslDecode.o)
matrixSslDelIdentity                              ../libssl_s.a(matrixsslKeys.o)
matrixSslDeleteHelloExtension                     ../libssl_s.a(tls.o)
                                                  ../libssl_s.a(matrixssl.o)
matrixSslDeleteKeys                               ../libssl_s.a(matrixsslKeys.o)
                                                  sslTest.o
matrixSslDeleteSession                            ../libssl_s.a(matrixssl.o)
                                                  ../libssl_s.a(matrixsslApi.o)
                                                  sslTest.o
matrixSslDeleteSessionId                          ../libssl_s.a(matrixsslApi.o)
                                                  sslTest.o
matrixSslDeleteSessionTicketKey                   ../libssl_s.a(matrixssl.o)
matrixSslDisableRehandshakes                      ../libssl_s.a(matrixsslApi.o)
matrixSslEncode                                   ../libssl_s.a(sslEncode.o)
                                                  ../libssl_s.a(matrixsslApi.o)
matrixSslEncodeClientHello                        ../libssl_s.a(sslEncode.o)
                                                  ../libssl_s.a(sslDecode.o)
                                                  ../libssl_s.a(matrixsslApi.o)
matrixSslEncodeClosureAlert                       ../libssl_s.a(matrixsslApi.o)
matrixSslEncodeHelloRequest                       ../libssl_s.a(sslEncode.o)
matrixSslEncodeRehandshake                        ../libssl_s.a(matrixsslApi.o)
matrixSslEncodeToOutdata                          ../libssl_s.a(matrixsslApi.o)
matrixSslEncodeToUserBuf                          ../libssl_s.a(matrixsslApi.o)
matrixSslEncodeWritebuf                           ../libssl_s.a(matrixsslApi.o)
                                                  sslTest.o
matrixSslFreeIdentity                             ../libssl_s.a(matrixsslKeys.o)
matrixSslGenEphemeralEcKey                        ../libssl_s.a(matrixsslKeys.o)
                                                  ../libssl_s.a(hsDecode.o)
                                                  ../libssl_s.a(tls13KeyAgree.o)
                                                  ../libssl_s.a(sslEncode.o)
matrixSslGetAnonStatus                            ../libssl_s.a(matrixssl.o)
matrixSslGetClientKeySelectInfo                   ../libssl_s.a(tlsSelectKeys.o)
matrixSslGetEarlyDataStatus                       ../libssl_s.a(matrixssl.o)
                                                  sslTest.o
matrixSslGetEncodedSize                           ../libssl_s.a(sslEncode.o)
                                                  ../libssl_s.a(matrixsslApi.o)
matrixSslGetMaxEarlyData                          ../libssl_s.a(matrixssl.o)
                                                  sslTest.o
matrixSslGetOutdata                               ../libssl_s.a(matrixsslApi.o)
                                                  sslTest.o
matrixSslGetReadbuf                               ../libssl_s.a(matrixsslApi.o)
                                                  sslTest.o
matrixSslGetReadbufOfSize                         ../libssl_s.a(matrixsslApi.o)
matrixSslGetSessionId                             ../libssl_s.a(matrixssl.o)
                                                  ../libssl_s.a(matrixsslApi.o)
matrixSslGetWritebuf                              ../libssl_s.a(matrixsslApi.o)
                                                  sslTest.o
matrixSslHandshakeIsComplete                      ../libssl_s.a(matrixssl.o)
                                                  ../libssl_s.a(matrixsslApi.o)
matrixSslLoadDhParams                             ../libssl_s.a(matrixsslKeys.o)
matrixSslLoadDhParamsMem                          ../libssl_s.a(matrixsslKeys.o)
                                                  sslTest.o
matrixSslLoadEcKeys                               ../libssl_s.a(matrixsslKeys.o)
matrixSslLoadEcKeysExt                            ../libssl_s.a(matrixsslKeys.o)
matrixSslLoadEcKeysMem                            ../libssl_s.a(matrixsslKeys.o)
                                                  sslTest.o
matrixSslLoadEcKeysMemExt                         ../libssl_s.a(matrixsslKeys.o)
matrixSslLoadHelloExtension                       ../libssl_s.a(tls.o)
matrixSslLoadKeys                                 ../libssl_s.a(matrixsslKeys.o)
matrixSslLoadKeysMem                              ../libssl_s.a(matrixsslKeys.o)
matrixSslLoadOCSPResponse                         ../libssl_s.a(matrixsslKeys.o)
matrixSslLoadPkcs12                               ../libssl_s.a(matrixsslKeys.o)
matrixSslLoadPkcs12Mem                            ../libssl_s.a(matrixsslKeys.o)
matrixSslLoadPsk                                  ../libssl_s.a(psk.o)
                                                  sslTest.o
matrixSslLoadRsaKeys                              ../libssl_s.a(matrixsslKeys.o)
matrixSslLoadRsaKeysExt                           ../libssl_s.a(matrixsslKeys.o)
matrixSslLoadRsaKeysMem                           ../libssl_s.a(matrixsslKeys.o)
                                                  sslTest.o
matrixSslLoadRsaKeysMemExt                        ../libssl_s.a(matrixsslKeys.o)
matrixSslLoadSessionTicketKeys                    ../libssl_s.a(matrixssl.o)
                                                  sslTest.o
matrixSslLoadTls13Psk                             ../libssl_s.a(tls13Psk.o)
                                                  sslTest.o
matrixSslMakeIdentity                             ../libssl_s.a(matrixsslKeys.o)
matrixSslNewClientSession                         ../libssl_s.a(matrixsslApi.o)
                                                  sslTest.o
matrixSslNewHelloExtension                        ../libssl_s.a(tls.o)
matrixSslNewKeys                                  ../libssl_s.a(matrixsslKeys.o)
                                                  sslTest.o
matrixSslNewServer                                ../libssl_s.a(matrixsslApi.o)
matrixSslNewServerSession                         ../libssl_s.a(matrixsslApi.o)
                                                  sslTest.o
matrixSslNewSession                               ../libssl_s.a(matrixssl.o)
                                                  ../libssl_s.a(matrixsslApi.o)
matrixSslNewSessionId                             ../libssl_s.a(matrixsslApi.o)
                                                  sslTest.o
matrixSslOpenWithConfig                           ../libssl_s.a(matrixssl.o)
                                                  sslTest.o
matrixSslProcessedData                            ../libssl_s.a(matrixsslApi.o)
                                                  sslTest.o
matrixSslPskGetKey                                ../libssl_s.a(psk.o)
                                                  ../libssl_s.a(hsDecode.o)
                                                  ../libssl_s.a(sslEncode.o)
matrixSslPskGetKeyId                              ../libssl_s.a(psk.o)
                                                  ../libssl_s.a(sslEncode.o)
matrixSslReEnableRehandshakes                     ../libssl_s.a(matrixsslApi.o)
matrixSslReceivedData                             ../libssl_s.a(matrixsslApi.o)
                                                  sslTest.o
matrixSslRegisterClientIdentityCallback           ../libssl_s.a(matrixsslApi.o)
                                                  sslTest.o
matrixSslRegisterSNICallback                      ../libssl_s.a(matrixsslApi.o)
matrixSslReorderCertChain                         ../libssl_s.a(matrixsslKeys.o)
                                                  ../libssl_s.a(tls13Authenticate.o)
matrixSslSentData                                 ../libssl_s.a(matrixsslApi.o)
                                                  ../libssl_s.a(dtls.o)
                                                  sslTest.o
matrixSslSessOptsSetClientTlsVersionRange         ../libssl_s.a(matrixsslInitVer.o)
matrixSslSessOptsSetClientTlsVersions             ../libssl_s.a(matrixsslInitVer.o)
matrixSslSessOptsSetKeyExGroups                   ../libssl_s.a(matrixssl.o)
matrixSslSessOptsSetMinDhBits                     ../libssl_s.a(matrixssl.o)
matrixSslSessOptsSetServerTlsVersionRange         ../libssl_s.a(matrixsslInitVer.o)
matrixSslSessOptsSetServerTlsVersions             ../libssl_s.a(matrixsslInitVer.o)
matrixSslSessOptsSetSigAlgs                       ../libssl_s.a(matrixssl.o)
matrixSslSessOptsSetSigAlgsCert                   ../libssl_s.a(matrixssl.o)
matrixSslSetCertValidator                         ../libssl_s.a(matrixssl.o)
                                                  ../libssl_s.a(matrixsslApi.o)
matrixSslSetCipherSuiteEnabledStatus              ../libssl_s.a(cipherSuite.o)
matrixSslSetClientIdentity                        ../libssl_s.a(tlsSelectKeys.o)
                                                  sslTest.o
matrixSslSetKexFlags                              ../libssl_s.a(cipherSuite.o)
                                                  ../libssl_s.a(hsDecode.o)
matrixSslSetSessionOption                         ../libssl_s.a(matrixssl.o)
matrixSslSetSessionTicketCallback                 ../libssl_s.a(matrixssl.o)
matrixSslSetTls13BlockPadding                     ../libssl_s.a(matrixsslApi.o)
matrixSslTlsVersionRangeSupported                 ../libssl_s.a(matrixsslInitVer.o)
matrixUnlockSessionTicket                         ../libssl_s.a(matrixssl.o)
                                                  ../libssl_s.a(extDecode.o)
matrixUpdateSession                               ../libssl_s.a(matrixssl.o)
                                                  ../libssl_s.a(hsDecode.o)
matrixUserCertValidator                           ../libssl_s.a(matrixssl.o)
                                                  ../libssl_s.a(tls13Authenticate.o)
                                                  ../libssl_s.a(hsDecode.o)
matrixValidateCerts                               ../libssl_s.a(matrixssl.o)
matrixValidateCertsExt                            ../libssl_s.a(matrixssl.o)
                                                  ../libssl_s.a(tls13Authenticate.o)
                                                  ../libssl_s.a(hsDecode.o)
mbrlen                                            /lib/x86_64-linux-gnu/libc.so.6
mbrlen@@GLIBC_2.2.5                               /lib/x86_64-linux-gnu/libc.so.6
mbrlen@GLIBC_2.2.5                                /lib/x86_64-linux-gnu/libc.so.6
mbrtowc                                           /lib/x86_64-linux-gnu/libc.so.6
mbrtowc@@GLIBC_2.2.5                              /lib/x86_64-linux-gnu/libc.so.6
mbrtowc@GLIBC_2.2.5                               /lib/x86_64-linux-gnu/libc.so.6
mbsinit                                           /lib/x86_64-linux-gnu/libc.so.6
mbsinit@@GLIBC_2.2.5                              /lib/x86_64-linux-gnu/libc.so.6
mbsinit@GLIBC_2.2.5                               /lib/x86_64-linux-gnu/libc.so.6
mbsnrtowcs                                        /lib/x86_64-linux-gnu/libc.so.6
mbsnrtowcs@@GLIBC_2.2.5                           /lib/x86_64-linux-gnu/libc.so.6
mbsnrtowcs@GLIBC_2.2.5                            /lib/x86_64-linux-gnu/libc.so.6
mbsrtowcs                                         /lib/x86_64-linux-gnu/libc.so.6
mbsrtowcs@@GLIBC_2.2.5                            /lib/x86_64-linux-gnu/libc.so.6
mbsrtowcs@GLIBC_2.2.5                             /lib/x86_64-linux-gnu/libc.so.6
mcount                                            /lib/x86_64-linux-gnu/libc.so.6
mcount@@GLIBC_2.2.5                               /lib/x86_64-linux-gnu/libc.so.6
mcount@GLIBC_2.2.5                                /lib/x86_64-linux-gnu/libc.so.6
memalign                                          /lib/x86_64-linux-gnu/libc.so.6
memalign@@GLIBC_2.2.5                             /lib/x86_64-linux-gnu/libc.so.6
memalign@GLIBC_2.2.5                              /lib/x86_64-linux-gnu/libc.so.6
memccpy                                           /lib/x86_64-linux-gnu/libc.so.6
memccpy@@GLIBC_2.2.5                              /lib/x86_64-linux-gnu/libc.so.6
memccpy@GLIBC_2.2.5                               /lib/x86_64-linux-gnu/libc.so.6
memchr                                            /lib/x86_64-linux-gnu/libc.so.6
                                                  ../../core/libcore_s.a(psbuf.o)
                                                  ../libssl_s.a(extDecode.o)
memchr@@GLIBC_2.2.5                               /lib/x86_64-linux-gnu/libc.so.6
memchr@GLIBC_2.2.5                                /lib/x86_64-linux-gnu/libc.so.6
memcmp                                            /lib/x86_64-linux-gnu/libc.so.6
                                                  ../../core/libcore_s.a(psbuf.o)
                                                  ../../core/libcore_s.a(corelib_date.o)
                                                  ../../crypto/libcrypt_s.a(asn1.o)
                                                  ../../crypto/libcrypt_s.a(x509.o)
                                                  ../../crypto/libcrypt_s.a(pkcs.o)
                                                  ../libssl_s.a(hsDecode.o)
                                                  ../libssl_s.a(tls13Psk.o)
                                                  ../libssl_s.a(tls13DecodeExt.o)
                                                  ../libssl_s.a(tls13Decode.o)
                                                  ../libssl_s.a(tlsSelectKeys.o)
                                                  ../libssl_s.a(sslDecode.o)
                                                  ../libssl_s.a(psk.o)
                                                  ../libssl_s.a(matrixsslApi.o)
                                                  ../libssl_s.a(matrixssl.o)
                                                  sslTest.o
memcmp@@GLIBC_2.2.5                               /lib/x86_64-linux-gnu/libc.so.6
memcmp@GLIBC_2.2.5                                /lib/x86_64-linux-gnu/libc.so.6
memcmpct                                          ../../core/libcore_s.a(corelib_strings.o)
                                                  ../../crypto/libcrypt_s.a(crl.o)
                                                  ../../crypto/libcrypt_s.a(rsa_pub.o)
                                                  ../../crypto/libcrypt_s.a(rsa_priv.o)
                                                  ../../crypto/libcrypt_s.a(pubkey_verify.o)
                                                  ../../crypto/libcrypt_s.a(x509.o)
                                                  ../../crypto/libcrypt_s.a(aes_aesni.o)
                                                  ../libssl_s.a(tls13Authenticate.o)
                                                  ../libssl_s.a(hsDecode.o)
                                                  ../libssl_s.a(tls13DecodeExt.o)
                                                  ../libssl_s.a(tls13Decode.o)
                                                  ../libssl_s.a(sslDecode.o)
                                                  ../libssl_s.a(matrixssl.o)
                                                  ../libssl_s.a(cipherSuite.o)
memcpy                                            /lib/x86_64-linux-gnu/libc.so.6
                                                  ../../core/libcore_s.a(psbuf.o)
                                                  ../../core/libcore_s.a(corelib_list.o)
                                                  ../../crypto/libcrypt_s.a(crl.o)
                                                  ../../crypto/libcrypt_s.a(rsa_pub.o)
                                                  ../../crypto/libcrypt_s.a(rsa_priv.o)
                                                  ../../crypto/libcrypt_s.a(pubkey_sign.o)
                                                  ../../crypto/libcrypt_s.a(pstmnt.o)
                                                  ../../crypto/libcrypt_s.a(x509.o)
                                                  ../../crypto/libcrypt_s.a(pkcs.o)
                                                  ../../crypto/libcrypt_s.a(hkdf.o)
                                                  ../../crypto/libcrypt_s.a(md5.o)
                                                  ../../crypto/libcrypt_s.a(sha512.o)
                                                  ../../crypto/libcrypt_s.a(sha256.o)
                                                  ../../crypto/libcrypt_s.a(sha1.o)
                                                  ../../crypto/libcrypt_s.a(aes_aesni.o)
                                                  ../libssl_s.a(hsDecode.o)
                                                  ../libssl_s.a(tls.o)
                                                  ../libssl_s.a(tls13SigVer.o)
                                                  ../libssl_s.a(tls13Resume.o)
                                                  ../libssl_s.a(tls13Psk.o)
                                                  ../libssl_s.a(tls13Decode.o)
                                                  ../libssl_s.a(tls13EncodeExt.o)
                                                  ../libssl_s.a(tls13Encode.o)
                                                  ../libssl_s.a(tlsSigVer.o)
                                                  ../libssl_s.a(sslEncode.o)
                                                  ../libssl_s.a(sslDecode.o)
                                                  ../libssl_s.a(prf.o)
                                                  ../libssl_s.a(matrixsslApi.o)
                                                  ../libssl_s.a(matrixsslKeys.o)
                                                  ../libssl_s.a(matrixssl.o)
                                                  ../libssl_s.a(hsHash.o)
                                                  ../libssl_s.a(dtls.o)
                                                  ../libssl_s.a(cipherSuite.o)
                                                  sslTest.o
memcpy@@GLIBC_2.14                                /lib/x86_64-linux-gnu/libc.so.6
memcpy@GLIBC_2.14                                 /lib/x86_64-linux-gnu/libc.so.6
                                                  /usr/lib/gcc/x86_64-linux-gnu/11/../../../x86_64-linux-gnu/libpthread.so
memmem                                            /lib/x86_64-linux-gnu/libc.so.6
memmem@@GLIBC_2.2.5                               /lib/x86_64-linux-gnu/libc.so.6
memmem@GLIBC_2.2.5                                /lib/x86_64-linux-gnu/libc.so.6
memmove                                           /lib/x86_64-linux-gnu/libc.so.6
                                                  ../../core/libcore_s.a(psbuf.o)
                                                  ../../crypto/libcrypt_s.a(open.o)
                                                  ../../crypto/libcrypt_s.a(sign.o)
                                                  ../../crypto/libcrypt_s.a(pstmnt.o)
                                                  ../libssl_s.a(hsDecode.o)
                                                  ../libssl_s.a(tls13KeyAgree.o)
                                                  ../libssl_s.a(tls13Decode.o)
                                                  ../libssl_s.a(sslEncode.o)
                                                  ../libssl_s.a(matrixsslApi.o)
                                                  ../libssl_s.a(cipherSuite.o)
memmove@@GLIBC_2.2.5                              /lib/x86_64-linux-gnu/libc.so.6
memmove@GLIBC_2.2.5                               /lib/x86_64-linux-gnu/libc.so.6
mempcpy                                           /lib/x86_64-linux-gnu/libc.so.6
mempcpy@@GLIBC_2.2.5                              /lib/x86_64-linux-gnu/libc.so.6
mempcpy@GLIBC_2.2.5                               /lib/x86_64-linux-gnu/libc.so.6
memrchr                                           /lib/x86_64-linux-gnu/libc.so.6
memrchr@@GLIBC_2.2.5                              /lib/x86_64-linux-gnu/libc.so.6
memrchr@GLIBC_2.2.5                               /lib/x86_64-linux-gnu/libc.so.6
memset                                            /lib/x86_64-linux-gnu/libc.so.6
                                                  ../../core/libcore_s.a(cl_memset.o)
                                                  ../../core/libcore_s.a(corelib_list.o)
                                                  ../../crypto/libcrypt_s.a(chacha20_ref.o)
                                                  ../../crypto/libcrypt_s.a(chacha20_dolbeau-ssse3.o)
                                                  ../../crypto/libcrypt_s.a(poly1305_donna.o)
                                                  ../../crypto/libcrypt_s.a(pstm_montgomery_reduce.o)
                                                  ../../crypto/libcrypt_s.a(open.o)
                                                  ../../crypto/libcrypt_s.a(sign.o)
                                                  ../../crypto/libcrypt_s.a(utils.o)
                                                  ../../crypto/libcrypt_s.a(aead_chacha20poly1305.o)
                                                  ../../crypto/libcrypt_s.a(rsa_priv.o)
                                                  ../../crypto/libcrypt_s.a(rsa.o)
                                                  ../../crypto/libcrypt_s.a(ecc_gen_shared.o)
                                                  ../../crypto/libcrypt_s.a(dh_export.o)
                                                  ../../crypto/libcrypt_s.a(pstm_sqr_comba.o)
                                                  ../../crypto/libcrypt_s.a(pstm_mul_comba.o)
                                                  ../../crypto/libcrypt_s.a(pstmnt.o)
                                                  ../../crypto/libcrypt_s.a(pstm.o)
                                                  ../../crypto/libcrypt_s.a(pkcs.o)
                                                  ../../crypto/libcrypt_s.a(pem_decode_mem.o)
                                                  ../../crypto/libcrypt_s.a(hmac.o)
                                                  ../libssl_s.a(tls13KeySchedule.o)
                                                  ../libssl_s.a(tls13KeyAgree.o)
                                                  ../libssl_s.a(tls13Decode.o)
                                                  ../libssl_s.a(sslDecode.o)
                                                  ../libssl_s.a(matrixssl.o)
memset@@GLIBC_2.2.5                               /lib/x86_64-linux-gnu/libc.so.6
memset@GLIBC_2.2.5                                /lib/x86_64-linux-gnu/libc.so.6
                                                  /usr/lib/gcc/x86_64-linux-gnu/11/../../../x86_64-linux-gnu/libpthread.so
memset_s                                          ../../core/libcore_s.a(memset_s.o)
                                                  ../../core/libcore_s.a(corelib_main.o)
                                                  ../../crypto/libcrypt_s.a(des3.o)
                                                  ../../crypto/libcrypt_s.a(ps_chacha20poly1305ietf.o)
                                                  ../../crypto/libcrypt_s.a(rsa_priv.o)
                                                  ../../crypto/libcrypt_s.a(pubkey_parse_file.o)
                                                  ../../crypto/libcrypt_s.a(dh_gen_key.o)
                                                  ../../crypto/libcrypt_s.a(pstm.o)
                                                  ../../crypto/libcrypt_s.a(pkcs.o)
                                                  ../../crypto/libcrypt_s.a(pem_decode_mem.o)
                                                  ../../crypto/libcrypt_s.a(aes_aesni.o)
                                                  ../libssl_s.a(hsDecode.o)
                                                  ../libssl_s.a(tls.o)
                                                  ../libssl_s.a(prf.o)
                                                  ../libssl_s.a(matrixsslKeys.o)
                                                  ../libssl_s.a(matrixssl.o)
                                                  ../libssl_s.a(dtls.o)
                                                  ../libssl_s.a(cipherSuite.o)
mkdir                                             /lib/x86_64-linux-gnu/libc.so.6
mkdir@@GLIBC_2.2.5                                /lib/x86_64-linux-gnu/libc.so.6
mkdir@GLIBC_2.2.5                                 /lib/x86_64-linux-gnu/libc.so.6
mkostemp64                                        /lib/x86_64-linux-gnu/libc.so.6
mkostemp64@@GLIBC_2.7                             /lib/x86_64-linux-gnu/libc.so.6
mkostemp64@GLIBC_2.7                              /lib/x86_64-linux-gnu/libc.so.6
mkostemps64                                       /lib/x86_64-linux-gnu/libc.so.6
mkostemps64@@GLIBC_2.11                           /lib/x86_64-linux-gnu/libc.so.6
mkostemps64@GLIBC_2.11                            /lib/x86_64-linux-gnu/libc.so.6
mkstemp64                                         /lib/x86_64-linux-gnu/libc.so.6
mkstemp64@@GLIBC_2.2.5                            /lib/x86_64-linux-gnu/libc.so.6
mkstemp64@GLIBC_2.2.5                             /lib/x86_64-linux-gnu/libc.so.6
mkstemps64                                        /lib/x86_64-linux-gnu/libc.so.6
mkstemps64@@GLIBC_2.11                            /lib/x86_64-linux-gnu/libc.so.6
mkstemps64@GLIBC_2.11                             /lib/x86_64-linux-gnu/libc.so.6
mktemp                                            /lib/x86_64-linux-gnu/libc.so.6
mktemp@@GLIBC_2.2.5                               /lib/x86_64-linux-gnu/libc.so.6
mktemp@GLIBC_2.2.5                                /lib/x86_64-linux-gnu/libc.so.6
mmap                                              /lib/x86_64-linux-gnu/libc.so.6
mmap64                                            /lib/x86_64-linux-gnu/libc.so.6
mmap64@@GLIBC_2.2.5                               /lib/x86_64-linux-gnu/libc.so.6
mmap64@GLIBC_2.2.5                                /lib/x86_64-linux-gnu/libc.so.6
mmap@@GLIBC_2.2.5                                 /lib/x86_64-linux-gnu/libc.so.6
mmap@GLIBC_2.2.5                                  /lib/x86_64-linux-gnu/libc.so.6
                                                  /usr/lib/gcc/x86_64-linux-gnu/11/../../../x86_64-linux-gnu/libpthread.so
modf                                              /lib/x86_64-linux-gnu/libc.so.6
modf@@GLIBC_2.2.5                                 /lib/x86_64-linux-gnu/libc.so.6
modf@GLIBC_2.2.5                                  /lib/x86_64-linux-gnu/libc.so.6
modff                                             /lib/x86_64-linux-gnu/libc.so.6
modff@@GLIBC_2.2.5                                /lib/x86_64-linux-gnu/libc.so.6
modff@GLIBC_2.2.5                                 /lib/x86_64-linux-gnu/libc.so.6
modfl                                             /lib/x86_64-linux-gnu/libc.so.6
modfl@@GLIBC_2.2.5                                /lib/x86_64-linux-gnu/libc.so.6
modfl@GLIBC_2.2.5                                 /lib/x86_64-linux-gnu/libc.so.6
modify_ldt                                        /lib/x86_64-linux-gnu/libc.so.6
modify_ldt@@GLIBC_2.2.5                           /lib/x86_64-linux-gnu/libc.so.6
modify_ldt@GLIBC_2.2.5                            /lib/x86_64-linux-gnu/libc.so.6
moncontrol                                        /lib/x86_64-linux-gnu/libc.so.6
moncontrol@@GLIBC_2.2.5                           /lib/x86_64-linux-gnu/libc.so.6
moncontrol@GLIBC_2.2.5                            /lib/x86_64-linux-gnu/libc.so.6
monstartup                                        /lib/x86_64-linux-gnu/libc.so.6
monstartup@@GLIBC_2.2.5                           /lib/x86_64-linux-gnu/libc.so.6
monstartup@GLIBC_2.2.5                            /lib/x86_64-linux-gnu/libc.so.6
mount                                             /lib/x86_64-linux-gnu/libc.so.6
mount@@GLIBC_2.2.5                                /lib/x86_64-linux-gnu/libc.so.6
mount@GLIBC_2.2.5                                 /lib/x86_64-linux-gnu/libc.so.6
mprotect                                          /lib/x86_64-linux-gnu/libc.so.6
mprotect@@GLIBC_2.2.5                             /lib/x86_64-linux-gnu/libc.so.6
mprotect@GLIBC_2.2.5                              /lib/x86_64-linux-gnu/libc.so.6
mremap                                            /lib/x86_64-linux-gnu/libc.so.6
mremap@@GLIBC_2.2.5                               /lib/x86_64-linux-gnu/libc.so.6
mremap@GLIBC_2.2.5                                /lib/x86_64-linux-gnu/libc.so.6
msgrcv                                            /lib/x86_64-linux-gnu/libc.so.6
msgrcv@@GLIBC_2.2.5                               /lib/x86_64-linux-gnu/libc.so.6
msgrcv@GLIBC_2.2.5                                /lib/x86_64-linux-gnu/libc.so.6
msgsnd                                            /lib/x86_64-linux-gnu/libc.so.6
msgsnd@@GLIBC_2.2.5                               /lib/x86_64-linux-gnu/libc.so.6
msgsnd@GLIBC_2.2.5                                /lib/x86_64-linux-gnu/libc.so.6
munmap                                            /lib/x86_64-linux-gnu/libc.so.6
munmap@@GLIBC_2.2.5                               /lib/x86_64-linux-gnu/libc.so.6
munmap@GLIBC_2.2.5                                /lib/x86_64-linux-gnu/libc.so.6
                                                  /usr/lib/gcc/x86_64-linux-gnu/11/../../../x86_64-linux-gnu/libpthread.so
nanosleep                                         /lib/x86_64-linux-gnu/libc.so.6
nanosleep@@GLIBC_2.2.5                            /lib/x86_64-linux-gnu/libc.so.6
nanosleep@GLIBC_2.2.5                             /lib/x86_64-linux-gnu/libc.so.6
newlocale                                         /lib/x86_64-linux-gnu/libc.so.6
newlocale@@GLIBC_2.3                              /lib/x86_64-linux-gnu/libc.so.6
newlocale@GLIBC_2.3                               /lib/x86_64-linux-gnu/libc.so.6
ngettext                                          /lib/x86_64-linux-gnu/libc.so.6
ngettext@@GLIBC_2.2.5                             /lib/x86_64-linux-gnu/libc.so.6
ngettext@GLIBC_2.2.5                              /lib/x86_64-linux-gnu/libc.so.6
nl_langinfo_l                                     /lib/x86_64-linux-gnu/libc.so.6
nl_langinfo_l@@GLIBC_2.3                          /lib/x86_64-linux-gnu/libc.so.6
nl_langinfo_l@GLIBC_2.3                           /lib/x86_64-linux-gnu/libc.so.6
nrand48_r                                         /lib/x86_64-linux-gnu/libc.so.6
nrand48_r@@GLIBC_2.2.5                            /lib/x86_64-linux-gnu/libc.so.6
nrand48_r@GLIBC_2.2.5                             /lib/x86_64-linux-gnu/libc.so.6
ntohl                                             /lib/x86_64-linux-gnu/libc.so.6
ntohl@@GLIBC_2.2.5                                /lib/x86_64-linux-gnu/libc.so.6
ntohl@GLIBC_2.2.5                                 /lib/x86_64-linux-gnu/libc.so.6
ntohs                                             /lib/x86_64-linux-gnu/libc.so.6
ntohs@@GLIBC_2.2.5                                /lib/x86_64-linux-gnu/libc.so.6
ntohs@GLIBC_2.2.5                                 /lib/x86_64-linux-gnu/libc.so.6
ntp_adjtime                                       /lib/x86_64-linux-gnu/libc.so.6
ntp_adjtime@@GLIBC_2.2.5                          /lib/x86_64-linux-gnu/libc.so.6
ntp_adjtime@GLIBC_2.2.5                           /lib/x86_64-linux-gnu/libc.so.6
obstack_printf                                    /lib/x86_64-linux-gnu/libc.so.6
obstack_printf@@GLIBC_2.2.5                       /lib/x86_64-linux-gnu/libc.so.6
obstack_printf@GLIBC_2.2.5                        /lib/x86_64-linux-gnu/libc.so.6
obstack_vprintf                                   /lib/x86_64-linux-gnu/libc.so.6
obstack_vprintf@@GLIBC_2.2.5                      /lib/x86_64-linux-gnu/libc.so.6
obstack_vprintf@GLIBC_2.2.5                       /lib/x86_64-linux-gnu/libc.so.6
on_exit                                           /lib/x86_64-linux-gnu/libc.so.6
on_exit@@GLIBC_2.2.5                              /lib/x86_64-linux-gnu/libc.so.6
on_exit@GLIBC_2.2.5                               /lib/x86_64-linux-gnu/libc.so.6
open                                              /usr/lib/gcc/x86_64-linux-gnu/11/../../../x86_64-linux-gnu/libpthread.so
                                                  ../../core/libcore_s.a(osdep.o)
open64                                            /usr/lib/gcc/x86_64-linux-gnu/11/../../../x86_64-linux-gnu/libpthread.so
open64@@GLIBC_2.2.5                               /usr/lib/gcc/x86_64-linux-gnu/11/../../../x86_64-linux-gnu/libpthread.so
                                                  /lib/x86_64-linux-gnu/libc.so.6
open64@GLIBC_2.2.5                                /usr/lib/gcc/x86_64-linux-gnu/11/../../../x86_64-linux-gnu/libpthread.so
open@@GLIBC_2.2.5                                 /usr/lib/gcc/x86_64-linux-gnu/11/../../../x86_64-linux-gnu/libpthread.so
                                                  /lib/x86_64-linux-gnu/libc.so.6
open@GLIBC_2.2.5                                  /usr/lib/gcc/x86_64-linux-gnu/11/../../../x86_64-linux-gnu/libpthread.so
open_memstream                                    /lib/x86_64-linux-gnu/libc.so.6
open_memstream@@GLIBC_2.2.5                       /lib/x86_64-linux-gnu/libc.so.6
open_memstream@GLIBC_2.2.5                        /lib/x86_64-linux-gnu/libc.so.6
openat                                            /lib/x86_64-linux-gnu/libc.so.6
openat64                                          /lib/x86_64-linux-gnu/libc.so.6
openat64@@GLIBC_2.4                               /lib/x86_64-linux-gnu/libc.so.6
openat64@GLIBC_2.4                                /lib/x86_64-linux-gnu/libc.so.6
openat@@GLIBC_2.4                                 /lib/x86_64-linux-gnu/libc.so.6
openat@GLIBC_2.4                                  /lib/x86_64-linux-gnu/libc.so.6
opendir                                           /lib/x86_64-linux-gnu/libc.so.6
opendir@@GLIBC_2.2.5                              /lib/x86_64-linux-gnu/libc.so.6
opendir@GLIBC_2.2.5                               /lib/x86_64-linux-gnu/libc.so.6
osdepEntropyClose                                 ../../core/libcore_s.a(osdep.o)
                                                  ../../core/libcore_s.a(corelib_main.o)
osdepEntropyOpen                                  ../../core/libcore_s.a(osdep.o)
                                                  ../../core/libcore_s.a(corelib_main.o)
osdepMutexClose                                   ../../core/libcore_s.a(osdep.o)
                                                  ../../core/libcore_s.a(corelib_main.o)
osdepMutexOpen                                    ../../core/libcore_s.a(osdep.o)
                                                  ../../core/libcore_s.a(corelib_main.o)
osdepTimeClose                                    ../../core/libcore_s.a(osdep.o)
                                                  ../../core/libcore_s.a(corelib_main.o)
osdepTimeOpen                                     ../../core/libcore_s.a(osdep.o)
                                                  ../../core/libcore_s.a(corelib_main.o)
osdepTraceClose                                   ../../core/libcore_s.a(osdep.o)
osdepTraceOpen                                    ../../core/libcore_s.a(osdep.o)
parseCertificate                                  ../libssl_s.a(hsDecode.o)
                                                  ../libssl_s.a(sslDecode.o)
parseCertificateRequest                           ../libssl_s.a(hsDecode.o)
                                                  ../libssl_s.a(sslDecode.o)
parseCertificateStatus                            ../libssl_s.a(hsDecode.o)
                                                  ../libssl_s.a(sslDecode.o)
parseCertificateVerify                            ../libssl_s.a(hsDecode.o)
                                                  ../libssl_s.a(sslDecode.o)
parseClientHello                                  ../libssl_s.a(hsDecode.o)
                                                  ../libssl_s.a(sslDecode.o)
parseClientHelloExtensions                        ../libssl_s.a(extDecode.o)
                                                  ../libssl_s.a(hsDecode.o)
parseClientKeyExchange                            ../libssl_s.a(hsDecode.o)
                                                  ../libssl_s.a(sslDecode.o)
parseFinished                                     ../libssl_s.a(hsDecode.o)
                                                  ../libssl_s.a(sslDecode.o)
parseServerHello                                  ../libssl_s.a(hsDecode.o)
                                                  ../libssl_s.a(sslDecode.o)
parseServerHelloDone                              ../libssl_s.a(hsDecode.o)
                                                  ../libssl_s.a(sslDecode.o)
parseServerHelloExtensions                        ../libssl_s.a(extDecode.o)
                                                  ../libssl_s.a(hsDecode.o)
parseServerKeyExchange                            ../libssl_s.a(hsDecode.o)
                                                  ../libssl_s.a(sslDecode.o)
parse_args                                        sslTest.o
pathconf                                          /lib/x86_64-linux-gnu/libc.so.6
pathconf@@GLIBC_2.2.5                             /lib/x86_64-linux-gnu/libc.so.6
pathconf@GLIBC_2.2.5                              /lib/x86_64-linux-gnu/libc.so.6
pause                                             /usr/lib/gcc/x86_64-linux-gnu/11/../../../x86_64-linux-gnu/libpthread.so
pause@@GLIBC_2.2.5                                /usr/lib/gcc/x86_64-linux-gnu/11/../../../x86_64-linux-gnu/libpthread.so
                                                  /lib/x86_64-linux-gnu/libc.so.6
pause@GLIBC_2.2.5                                 /usr/lib/gcc/x86_64-linux-gnu/11/../../../x86_64-linux-gnu/libpthread.so
peerOnlySupportsTls13                             ../libssl_s.a(tls.o)
peerSupportsSigAlg                                ../libssl_s.a(tlsSigVer.o)
                                                  ../libssl_s.a(tlsSelectKeys.o)
                                                  ../libssl_s.a(cipherSuite.o)
performTls13DowngradeCheck                        ../libssl_s.a(hsNegotiateVersion.o)
                                                  ../libssl_s.a(hsDecode.o)
personality                                       /lib/x86_64-linux-gnu/libc.so.6
personality@@GLIBC_2.2.5                          /lib/x86_64-linux-gnu/libc.so.6
personality@GLIBC_2.2.5                           /lib/x86_64-linux-gnu/libc.so.6
pipe                                              /lib/x86_64-linux-gnu/libc.so.6
pipe2                                             /lib/x86_64-linux-gnu/libc.so.6
pipe2@@GLIBC_2.9                                  /lib/x86_64-linux-gnu/libc.so.6
pipe2@GLIBC_2.9                                   /lib/x86_64-linux-gnu/libc.so.6
pipe@@GLIBC_2.2.5                                 /lib/x86_64-linux-gnu/libc.so.6
pipe@GLIBC_2.2.5                                  /lib/x86_64-linux-gnu/libc.so.6
pkcs1Pad                                          ../../crypto/libcrypt_s.a(pkcs.o)
                                                  ../../crypto/libcrypt_s.a(rsa_pub.o)
                                                  ../../crypto/libcrypt_s.a(rsa_priv.o)
pkcs1Unpad                                        ../../crypto/libcrypt_s.a(pkcs.o)
                                                  ../../crypto/libcrypt_s.a(rsa_priv.o)
pkcs1UnpadExt                                     ../../crypto/libcrypt_s.a(pkcs.o)
                                                  ../../crypto/libcrypt_s.a(rsa_pub.o)
poll                                              /lib/x86_64-linux-gnu/libc.so.6
poll@@GLIBC_2.2.5                                 /lib/x86_64-linux-gnu/libc.so.6
poll@GLIBC_2.2.5                                  /lib/x86_64-linux-gnu/libc.so.6
posix_fadvise64                                   /lib/x86_64-linux-gnu/libc.so.6
posix_fadvise64@@GLIBC_2.2.5                      /lib/x86_64-linux-gnu/libc.so.6
posix_fadvise64@GLIBC_2.2.5                       /lib/x86_64-linux-gnu/libc.so.6
posix_memalign                                    /lib/x86_64-linux-gnu/libc.so.6
posix_memalign@@GLIBC_2.2.5                       /lib/x86_64-linux-gnu/libc.so.6
posix_memalign@GLIBC_2.2.5                        /lib/x86_64-linux-gnu/libc.so.6
posix_openpt                                      /lib/x86_64-linux-gnu/libc.so.6
posix_openpt@@GLIBC_2.2.5                         /lib/x86_64-linux-gnu/libc.so.6
posix_openpt@GLIBC_2.2.5                          /lib/x86_64-linux-gnu/libc.so.6
posix_spawn_file_actions_addclose                 /lib/x86_64-linux-gnu/libc.so.6
posix_spawn_file_actions_addclose@@GLIBC_2.2.5    /lib/x86_64-linux-gnu/libc.so.6
posix_spawn_file_actions_addclose@GLIBC_2.2.5     /lib/x86_64-linux-gnu/libc.so.6
posix_spawn_file_actions_adddup2                  /lib/x86_64-linux-gnu/libc.so.6
posix_spawn_file_actions_adddup2@@GLIBC_2.2.5     /lib/x86_64-linux-gnu/libc.so.6
posix_spawn_file_actions_adddup2@GLIBC_2.2.5      /lib/x86_64-linux-gnu/libc.so.6
posix_spawn_file_actions_addopen                  /lib/x86_64-linux-gnu/libc.so.6
posix_spawn_file_actions_addopen@@GLIBC_2.2.5     /lib/x86_64-linux-gnu/libc.so.6
posix_spawn_file_actions_addopen@GLIBC_2.2.5      /lib/x86_64-linux-gnu/libc.so.6
posix_spawn_file_actions_destroy                  /lib/x86_64-linux-gnu/libc.so.6
posix_spawn_file_actions_destroy@@GLIBC_2.2.5     /lib/x86_64-linux-gnu/libc.so.6
posix_spawn_file_actions_destroy@GLIBC_2.2.5      /lib/x86_64-linux-gnu/libc.so.6
posix_spawn_file_actions_init                     /lib/x86_64-linux-gnu/libc.so.6
posix_spawn_file_actions_init@@GLIBC_2.2.5        /lib/x86_64-linux-gnu/libc.so.6
posix_spawn_file_actions_init@GLIBC_2.2.5         /lib/x86_64-linux-gnu/libc.so.6
posix_spawnattr_destroy                           /lib/x86_64-linux-gnu/libc.so.6
posix_spawnattr_destroy@@GLIBC_2.2.5              /lib/x86_64-linux-gnu/libc.so.6
posix_spawnattr_destroy@GLIBC_2.2.5               /lib/x86_64-linux-gnu/libc.so.6
posix_spawnattr_init                              /lib/x86_64-linux-gnu/libc.so.6
posix_spawnattr_init@@GLIBC_2.2.5                 /lib/x86_64-linux-gnu/libc.so.6
posix_spawnattr_init@GLIBC_2.2.5                  /lib/x86_64-linux-gnu/libc.so.6
posix_spawnattr_setflags                          /lib/x86_64-linux-gnu/libc.so.6
posix_spawnattr_setflags@@GLIBC_2.2.5             /lib/x86_64-linux-gnu/libc.so.6
posix_spawnattr_setflags@GLIBC_2.2.5              /lib/x86_64-linux-gnu/libc.so.6
posix_spawnattr_setsigdefault                     /lib/x86_64-linux-gnu/libc.so.6
posix_spawnattr_setsigdefault@@GLIBC_2.2.5        /lib/x86_64-linux-gnu/libc.so.6
posix_spawnattr_setsigdefault@GLIBC_2.2.5         /lib/x86_64-linux-gnu/libc.so.6
posix_spawnattr_setsigmask                        /lib/x86_64-linux-gnu/libc.so.6
posix_spawnattr_setsigmask@@GLIBC_2.2.5           /lib/x86_64-linux-gnu/libc.so.6
posix_spawnattr_setsigmask@GLIBC_2.2.5            /lib/x86_64-linux-gnu/libc.so.6
postponeEncryptRecord                             ../libssl_s.a(sslEncode.o)
prctl                                             /lib/x86_64-linux-gnu/libc.so.6
prctl@@GLIBC_2.2.5                                /lib/x86_64-linux-gnu/libc.so.6
prctl@GLIBC_2.2.5                                 /lib/x86_64-linux-gnu/libc.so.6
                                                  /usr/lib/gcc/x86_64-linux-gnu/11/../../../x86_64-linux-gnu/libpthread.so
pread                                             /usr/lib/gcc/x86_64-linux-gnu/11/../../../x86_64-linux-gnu/libpthread.so
pread64                                           /usr/lib/gcc/x86_64-linux-gnu/11/../../../x86_64-linux-gnu/libpthread.so
pread64@@GLIBC_2.2.5                              /usr/lib/gcc/x86_64-linux-gnu/11/../../../x86_64-linux-gnu/libpthread.so
                                                  /lib/x86_64-linux-gnu/libc.so.6
pread64@GLIBC_2.2.5                               /usr/lib/gcc/x86_64-linux-gnu/11/../../../x86_64-linux-gnu/libpthread.so
pread@@GLIBC_2.2.5                                /usr/lib/gcc/x86_64-linux-gnu/11/../../../x86_64-linux-gnu/libpthread.so
                                                  /lib/x86_64-linux-gnu/libc.so.6
pread@GLIBC_2.2.5                                 /usr/lib/gcc/x86_64-linux-gnu/11/../../../x86_64-linux-gnu/libpthread.so
prf                                               ../libssl_s.a(prf.o)
                                                  ../libssl_s.a(tls.o)
                                                  ../libssl_s.a(hsHash.o)
prf2                                              ../libssl_s.a(prf.o)
                                                  ../libssl_s.a(tls.o)
                                                  ../libssl_s.a(hsHash.o)
privRsaEncryptSignedElement                       ../../crypto/libcrypt_s.a(rsa_priv.o)
                                                  ../../crypto/libcrypt_s.a(pubkey_sign.o)
                                                  ../libssl_s.a(sslEncode.o)
prlimit64                                         /lib/x86_64-linux-gnu/libc.so.6
prlimit64@@GLIBC_2.13                             /lib/x86_64-linux-gnu/libc.so.6
prlimit64@GLIBC_2.13                              /lib/x86_64-linux-gnu/libc.so.6
profil                                            /lib/x86_64-linux-gnu/libc.so.6
profil@@GLIBC_2.2.5                               /lib/x86_64-linux-gnu/libc.so.6
profil@GLIBC_2.2.5                                /lib/x86_64-linux-gnu/libc.so.6
program_invocation_name                           /lib/x86_64-linux-gnu/libc.so.6
program_invocation_name@@GLIBC_2.2.5              /lib/x86_64-linux-gnu/libc.so.6
program_invocation_name@GLIBC_2.2.5               /lib/x86_64-linux-gnu/libc.so.6
program_invocation_short_name                     /lib/x86_64-linux-gnu/libc.so.6
program_invocation_short_name@@GLIBC_2.2.5        /lib/x86_64-linux-gnu/libc.so.6
program_invocation_short_name@GLIBC_2.2.5         /lib/x86_64-linux-gnu/libc.so.6
psAddUserExtToSession                             ../libssl_s.a(tls.o)
                                                  ../libssl_s.a(tls13Encode.o)
                                                  ../libssl_s.a(sslEncode.o)
psAesClearBlockKey                                ../../crypto/libcrypt_s.a(aes_aesni.o)
psAesClearCBC                                     ../../crypto/libcrypt_s.a(aes_aesni.o)
                                                  ../libssl_s.a(matrixssl.o)
psAesClearGCM                                     ../../crypto/libcrypt_s.a(aes_aesni.o)
                                                  ../libssl_s.a(tls13Resume.o)
psAesDecryptBlock                                 ../../crypto/libcrypt_s.a(aes_aesni.o)
psAesDecryptCBC                                   ../../crypto/libcrypt_s.a(aes_aesni.o)
                                                  ../../crypto/libcrypt_s.a(pem_decode_mem.o)
                                                  ../libssl_s.a(matrixssl.o)
                                                  ../libssl_s.a(cipherSuite.o)
psAesDecryptGCM                                   ../../crypto/libcrypt_s.a(aes_aesni.o)
                                                  ../libssl_s.a(tls13Resume.o)
                                                  ../libssl_s.a(tls13CipherSuite.o)
                                                  ../libssl_s.a(cipherSuite.o)
psAesDecryptGCM2                                  ../../crypto/libcrypt_s.a(aes_aesni.o)
psAesDecryptGCMtagless                            ../../crypto/libcrypt_s.a(aes_aesni.o)
psAesEncryptBlock                                 ../../crypto/libcrypt_s.a(aes_aesni.o)
psAesEncryptCBC                                   ../../crypto/libcrypt_s.a(aes_aesni.o)
                                                  ../libssl_s.a(matrixssl.o)
                                                  ../libssl_s.a(cipherSuite.o)
psAesEncryptGCM                                   ../../crypto/libcrypt_s.a(aes_aesni.o)
                                                  ../libssl_s.a(tls13Resume.o)
                                                  ../libssl_s.a(tls13CipherSuite.o)
                                                  ../libssl_s.a(cipherSuite.o)
psAesGetGCMTag                                    ../../crypto/libcrypt_s.a(aes_aesni.o)
                                                  ../libssl_s.a(tls13Resume.o)
                                                  ../libssl_s.a(tls13CipherSuite.o)
                                                  ../libssl_s.a(cipherSuite.o)
psAesInitBlockKey                                 ../../crypto/libcrypt_s.a(aes_aesni.o)
psAesInitCBC                                      ../../crypto/libcrypt_s.a(aes_aesni.o)
                                                  ../../crypto/libcrypt_s.a(pem_decode_mem.o)
                                                  ../libssl_s.a(matrixssl.o)
                                                  ../libssl_s.a(cipherSuite.o)
psAesInitGCM                                      ../../crypto/libcrypt_s.a(aes_aesni.o)
                                                  ../libssl_s.a(tls13Resume.o)
                                                  ../libssl_s.a(tls13CipherSuite.o)
                                                  ../libssl_s.a(cipherSuite.o)
psAesReadyGCM                                     ../../crypto/libcrypt_s.a(aes_aesni.o)
                                                  ../libssl_s.a(tls13Resume.o)
                                                  ../libssl_s.a(tls13CipherSuite.o)
                                                  ../libssl_s.a(cipherSuite.o)
psAesReadyGCMRandomIV                             ../../crypto/libcrypt_s.a(aes_aesni.o)
                                                  ../libssl_s.a(tls13Resume.o)
psBase64decode                                    ../../crypto/libcrypt_s.a(base64.o)
                                                  ../../crypto/libcrypt_s.a(pkcs.o)
                                                  ../../crypto/libcrypt_s.a(pem_decode_mem.o)
psBinaryToHex                                     ../../core/libcore_s.a(corelib_strings.o)
psBrokenDownTimeAdd                               ../../core/libcore_s.a(corelib_date.o)
                                                  ../../crypto/libcrypt_s.a(crl.o)
                                                  ../../crypto/libcrypt_s.a(x509.o)
psBrokenDownTimeCmp                               ../../core/libcore_s.a(corelib_date.o)
                                                  ../../crypto/libcrypt_s.a(crl.o)
                                                  ../../crypto/libcrypt_s.a(x509.o)
psBrokenDownTimeImport                            ../../core/libcore_s.a(corelib_date.o)
                                                  ../../crypto/libcrypt_s.a(crl.o)
                                                  ../../crypto/libcrypt_s.a(x509.o)
psBrokenDownTimeImportSeconds                     ../../core/libcore_s.a(corelib_date.o)
psBrokenDownTimeStr                               ../../core/libcore_s.a(corelib_date.o)
psBrokenDownTimeStrTwoDigitYear                   ../../core/libcore_s.a(corelib_date.o)
psBufAppendSize                                   ../../core/libcore_s.a(psbuf.o)
psBufAsHex                                        ../../core/libcore_s.a(psbuf.o)
psBufCopyDataN                                    ../../core/libcore_s.a(psbuf.o)
psBufDetach                                       ../../core/libcore_s.a(psbuf.o)
psBufEmptyFromPointerSize                         ../../core/libcore_s.a(psbuf.o)
psBufFromData                                     ../../core/libcore_s.a(psbuf.o)
psBufFromStaticData                               ../../core/libcore_s.a(psbuf.o)
psBufGetData                                      ../../core/libcore_s.a(psbuf.o)
psBufGetDataSize                                  ../../core/libcore_s.a(psbuf.o)
psBufGetMaxAppendSize                             ../../core/libcore_s.a(psbuf.o)
psBufGetMaxPrependSize                            ../../core/libcore_s.a(psbuf.o)
psBufInit                                         ../../core/libcore_s.a(psbuf.o)
psBufNormalize                                    ../../core/libcore_s.a(psbuf.o)
psBufPrependSize                                  ../../core/libcore_s.a(psbuf.o)
psBufReservePrepend                               ../../core/libcore_s.a(psbuf.o)
psBufUninit                                       ../../core/libcore_s.a(psbuf.o)
psBurnStack                                       ../../core/libcore_s.a(corelib_main.o)
                                                  ../../crypto/libcrypt_s.a(des3.o)
                                                  ../../crypto/libcrypt_s.a(md5.o)
                                                  ../../crypto/libcrypt_s.a(sha512.o)
                                                  ../../crypto/libcrypt_s.a(sha256.o)
                                                  ../../crypto/libcrypt_s.a(sha1.o)
psCRL_Delete                                      ../../crypto/libcrypt_s.a(crl.o)
psCRL_DeleteAll                                   ../../crypto/libcrypt_s.a(crl.o)
psCRL_GetCRLForCert                               ../../crypto/libcrypt_s.a(crl.o)
psCRL_Insert                                      ../../crypto/libcrypt_s.a(crl.o)
psCRL_Remove                                      ../../crypto/libcrypt_s.a(crl.o)
psCRL_RemoveAll                                   ../../crypto/libcrypt_s.a(crl.o)
psCRL_Update                                      ../../crypto/libcrypt_s.a(crl.o)
psCRL_determineRevokedStatus                      ../../crypto/libcrypt_s.a(crl.o)
                                                  ../../crypto/libcrypt_s.a(x509.o)
psCRL_determineRevokedStatusBDT                   ../../crypto/libcrypt_s.a(crl.o)
psCRL_isRevoked                                   ../../crypto/libcrypt_s.a(crl.o)
psChacha20Poly1305IetfClear                       ../../crypto/libcrypt_s.a(ps_chacha20poly1305ietf.o)
psChacha20Poly1305IetfDecrypt                     ../../crypto/libcrypt_s.a(ps_chacha20poly1305ietf.o)
                                                  ../libssl_s.a(tls13CipherSuite.o)
                                                  ../libssl_s.a(cipherSuite.o)
psChacha20Poly1305IetfDecryptDetached             ../../crypto/libcrypt_s.a(ps_chacha20poly1305ietf.o)
psChacha20Poly1305IetfEncrypt                     ../../crypto/libcrypt_s.a(ps_chacha20poly1305ietf.o)
                                                  ../libssl_s.a(tls13CipherSuite.o)
                                                  ../libssl_s.a(cipherSuite.o)
psChacha20Poly1305IetfEncryptDetached             ../../crypto/libcrypt_s.a(ps_chacha20poly1305ietf.o)
psChacha20Poly1305IetfInit                        ../../crypto/libcrypt_s.a(ps_chacha20poly1305ietf.o)
                                                  ../../crypto/libcrypt_s.a(matrix.o)
                                                  ../libssl_s.a(cipherSuite.o)
psClearPubKey                                     ../../crypto/libcrypt_s.a(pubkey.o)
                                                  ../../crypto/libcrypt_s.a(ecc_parse_file.o)
                                                  ../../crypto/libcrypt_s.a(rsa_parse_file.o)
                                                  ../../crypto/libcrypt_s.a(x509.o)
                                                  ../libssl_s.a(matrixsslKeys.o)
psClosePrng                                       ../../crypto/libcrypt_s.a(prng.o)
                                                  ../../crypto/libcrypt_s.a(matrix.o)
psCompareTime                                     ../../core/libcore_s.a(osdep.o)
psComputeHashForSig                               ../../crypto/libcrypt_s.a(pubkey_sign.o)
                                                  ../../crypto/libcrypt_s.a(crl.o)
                                                  ../../crypto/libcrypt_s.a(pubkey_verify.o)
                                                  ../libssl_s.a(tls13SigVer.o)
psCopyHelloExtension                              ../libssl_s.a(tls.o)
psCoreClose                                       ../../core/libcore_s.a(corelib_main.o)
                                                  ../../crypto/libcrypt_s.a(matrix.o)
psCoreLibInternalLock                             ../../core/libcore_s.a(corelib_main.o)
psCoreLibInternalUnlock                           ../../core/libcore_s.a(corelib_main.o)
psCoreOpen                                        ../../core/libcore_s.a(corelib_main.o)
                                                  ../../crypto/libcrypt_s.a(matrix.o)
psCreateMutex                                     ../../core/libcore_s.a(osdep.o)
                                                  ../../core/libcore_s.a(corelib_main.o)
                                                  ../../crypto/libcrypt_s.a(crl.o)
                                                  ../../crypto/libcrypt_s.a(prng.o)
                                                  ../libssl_s.a(matrixsslKeys.o)
                                                  ../libssl_s.a(matrixssl.o)
psCrlClose                                        ../../crypto/libcrypt_s.a(crl.o)
                                                  ../../crypto/libcrypt_s.a(matrix.o)
psCrlOpen                                         ../../crypto/libcrypt_s.a(crl.o)
                                                  ../../crypto/libcrypt_s.a(matrix.o)
psCryptoClose                                     ../../crypto/libcrypt_s.a(matrix.o)
                                                  ../libssl_s.a(matrixssl.o)
psCryptoOpen                                      ../../crypto/libcrypt_s.a(matrix.o)
                                                  ../libssl_s.a(matrixssl.o)
psCrypto_aead_chacha20poly1305_decrypt            ../../crypto/libcrypt_s.a(aead_chacha20poly1305.o)
psCrypto_aead_chacha20poly1305_decrypt_detached   ../../crypto/libcrypt_s.a(aead_chacha20poly1305.o)
psCrypto_aead_chacha20poly1305_encrypt            ../../crypto/libcrypt_s.a(aead_chacha20poly1305.o)
psCrypto_aead_chacha20poly1305_encrypt_detached   ../../crypto/libcrypt_s.a(aead_chacha20poly1305.o)
psCrypto_aead_chacha20poly1305_ietf_abytes        ../../crypto/libcrypt_s.a(aead_chacha20poly1305.o)
psCrypto_aead_chacha20poly1305_ietf_decrypt       ../../crypto/libcrypt_s.a(aead_chacha20poly1305.o)
psCrypto_aead_chacha20poly1305_ietf_decrypt_detached ../../crypto/libcrypt_s.a(aead_chacha20poly1305.o)
                                                  ../../crypto/libcrypt_s.a(ps_chacha20poly1305ietf.o)
psCrypto_aead_chacha20poly1305_ietf_encrypt       ../../crypto/libcrypt_s.a(aead_chacha20poly1305.o)
psCrypto_aead_chacha20poly1305_ietf_encrypt_detached ../../crypto/libcrypt_s.a(aead_chacha20poly1305.o)
                                                  ../../crypto/libcrypt_s.a(ps_chacha20poly1305ietf.o)
psCrypto_aead_chacha20poly1305_ietf_keybytes      ../../crypto/libcrypt_s.a(aead_chacha20poly1305.o)
psCrypto_aead_chacha20poly1305_ietf_npubbytes     ../../crypto/libcrypt_s.a(aead_chacha20poly1305.o)
psCrypto_aead_chacha20poly1305_ietf_nsecbytes     ../../crypto/libcrypt_s.a(aead_chacha20poly1305.o)
psCrypto_onetimeauth_poly1305                     ../../crypto/libcrypt_s.a(onetimeauth_poly1305.o)
psCrypto_onetimeauth_poly1305_bytes               ../../crypto/libcrypt_s.a(onetimeauth_poly1305.o)
psCrypto_onetimeauth_poly1305_donna_implementation ../../crypto/libcrypt_s.a(poly1305_donna.o)
                                                  ../../crypto/libcrypt_s.a(onetimeauth_poly1305.o)
psCrypto_onetimeauth_poly1305_final               ../../crypto/libcrypt_s.a(onetimeauth_poly1305.o)
                                                  ../../crypto/libcrypt_s.a(aead_chacha20poly1305.o)
psCrypto_onetimeauth_poly1305_init                ../../crypto/libcrypt_s.a(onetimeauth_poly1305.o)
                                                  ../../crypto/libcrypt_s.a(aead_chacha20poly1305.o)
psCrypto_onetimeauth_poly1305_keybytes            ../../crypto/libcrypt_s.a(onetimeauth_poly1305.o)
psCrypto_onetimeauth_poly1305_pick_best_implementation ../../crypto/libcrypt_s.a(onetimeauth_poly1305.o)
                                                  ../../crypto/libcrypt_s.a(ps_chacha20poly1305ietf.o)
psCrypto_onetimeauth_poly1305_sse2_implementation ../../crypto/libcrypt_s.a(poly1305_sse2.o)
                                                  ../../crypto/libcrypt_s.a(onetimeauth_poly1305.o)
psCrypto_onetimeauth_poly1305_statebytes          ../../crypto/libcrypt_s.a(onetimeauth_poly1305.o)
psCrypto_onetimeauth_poly1305_update              ../../crypto/libcrypt_s.a(onetimeauth_poly1305.o)
                                                  ../../crypto/libcrypt_s.a(aead_chacha20poly1305.o)
psCrypto_onetimeauth_poly1305_verify              ../../crypto/libcrypt_s.a(onetimeauth_poly1305.o)
psCrypto_stream_chacha20                          ../../crypto/libcrypt_s.a(stream_chacha20.o)
                                                  ../../crypto/libcrypt_s.a(aead_chacha20poly1305.o)
psCrypto_stream_chacha20_dolbeau_ssse3_implementation ../../crypto/libcrypt_s.a(chacha20_dolbeau-ssse3.o)
                                                  ../../crypto/libcrypt_s.a(stream_chacha20.o)
psCrypto_stream_chacha20_ietf                     ../../crypto/libcrypt_s.a(stream_chacha20.o)
                                                  ../../crypto/libcrypt_s.a(aead_chacha20poly1305.o)
psCrypto_stream_chacha20_ietf_keybytes            ../../crypto/libcrypt_s.a(stream_chacha20.o)
psCrypto_stream_chacha20_ietf_noncebytes          ../../crypto/libcrypt_s.a(stream_chacha20.o)
psCrypto_stream_chacha20_ietf_xor                 ../../crypto/libcrypt_s.a(stream_chacha20.o)
psCrypto_stream_chacha20_ietf_xor_ic              ../../crypto/libcrypt_s.a(stream_chacha20.o)
                                                  ../../crypto/libcrypt_s.a(aead_chacha20poly1305.o)
psCrypto_stream_chacha20_keybytes                 ../../crypto/libcrypt_s.a(stream_chacha20.o)
psCrypto_stream_chacha20_noncebytes               ../../crypto/libcrypt_s.a(stream_chacha20.o)
psCrypto_stream_chacha20_pick_best_implementation ../../crypto/libcrypt_s.a(stream_chacha20.o)
                                                  ../../crypto/libcrypt_s.a(ps_chacha20poly1305ietf.o)
psCrypto_stream_chacha20_ref_implementation       ../../crypto/libcrypt_s.a(chacha20_ref.o)
                                                  ../../crypto/libcrypt_s.a(stream_chacha20.o)
psCrypto_stream_chacha20_xor                      ../../crypto/libcrypt_s.a(stream_chacha20.o)
psCrypto_stream_chacha20_xor_ic                   ../../crypto/libcrypt_s.a(stream_chacha20.o)
                                                  ../../crypto/libcrypt_s.a(aead_chacha20poly1305.o)
psCrypto_verify_16                                ../../crypto/libcrypt_s.a(verify.o)
                                                  ../../crypto/libcrypt_s.a(poly1305_donna.o)
                                                  ../../crypto/libcrypt_s.a(poly1305_sse2.o)
                                                  ../../crypto/libcrypt_s.a(aead_chacha20poly1305.o)
psCrypto_verify_16_bytes                          ../../crypto/libcrypt_s.a(verify.o)
psCrypto_verify_32                                ../../crypto/libcrypt_s.a(verify.o)
                                                  ../../crypto/libcrypt_s.a(open.o)
psCrypto_verify_32_bytes                          ../../crypto/libcrypt_s.a(verify.o)
psCrypto_verify_64                                ../../crypto/libcrypt_s.a(verify.o)
psCrypto_verify_64_bytes                          ../../crypto/libcrypt_s.a(verify.o)
psDeletePubKey                                    ../../crypto/libcrypt_s.a(pubkey.o)
                                                  ../libssl_s.a(tls13EncodeExt.o)
                                                  ../libssl_s.a(matrixssl.o)
psDes3Clear                                       ../../crypto/libcrypt_s.a(des3.o)
psDes3Decrypt                                     ../../crypto/libcrypt_s.a(des3.o)
                                                  ../../crypto/libcrypt_s.a(pubkey_parse_file.o)
                                                  ../../crypto/libcrypt_s.a(pkcs.o)
                                                  ../../crypto/libcrypt_s.a(pem_decode_mem.o)
psDes3Encrypt                                     ../../crypto/libcrypt_s.a(des3.o)
psDes3Init                                        ../../crypto/libcrypt_s.a(des3.o)
                                                  ../../crypto/libcrypt_s.a(pubkey_parse_file.o)
                                                  ../../crypto/libcrypt_s.a(pkcs.o)
                                                  ../../crypto/libcrypt_s.a(pem_decode_mem.o)
psDestroyMutex                                    ../../core/libcore_s.a(osdep.o)
                                                  ../../core/libcore_s.a(corelib_main.o)
                                                  ../../crypto/libcrypt_s.a(crl.o)
                                                  ../../crypto/libcrypt_s.a(prng.o)
                                                  ../libssl_s.a(matrixsslKeys.o)
                                                  ../libssl_s.a(matrixssl.o)
psDhClearKey                                      ../../crypto/libcrypt_s.a(dh.o)
                                                  ../../crypto/libcrypt_s.a(pubkey.o)
                                                  ../libssl_s.a(hsDecode.o)
                                                  ../libssl_s.a(sslEncode.o)
                                                  ../libssl_s.a(matrixssl.o)
psDhExportParameters                              ../../crypto/libcrypt_s.a(dh_params.o)
                                                  ../libssl_s.a(tls13KeyAgree.o)
                                                  ../libssl_s.a(sslEncode.o)
psDhExportPubKey                                  ../../crypto/libcrypt_s.a(dh_export.o)
                                                  ../libssl_s.a(tls13KeyAgree.o)
                                                  ../libssl_s.a(sslEncode.o)
psDhGenKey                                        ../../crypto/libcrypt_s.a(dh_gen_key.o)
                                                  ../libssl_s.a(hsDecode.o)
psDhGenKeyInts                                    ../../crypto/libcrypt_s.a(dh_gen_key.o)
psDhGenKeyIntsSize                                ../../crypto/libcrypt_s.a(dh_gen_key.o)
psDhGenKeyParams                                  ../../crypto/libcrypt_s.a(dh_gen_key.o)
                                                  ../libssl_s.a(hsDecode.o)
                                                  ../libssl_s.a(tls13KeyAgree.o)
psDhGenSharedSecret                               ../../crypto/libcrypt_s.a(dh_gen_secret.o)
                                                  ../libssl_s.a(hsDecode.o)
                                                  ../libssl_s.a(tls13KeyAgree.o)
                                                  ../libssl_s.a(sslEncode.o)
psDhGenSharedSecretParams                         ../../crypto/libcrypt_s.a(dh_gen_secret.o)
psDhImportPubKey                                  ../../crypto/libcrypt_s.a(dh_import.o)
                                                  ../libssl_s.a(hsDecode.o)
                                                  ../libssl_s.a(tls13KeyAgree.o)
psDhSize                                          ../../crypto/libcrypt_s.a(dh.o)
psDhX25519GenKey                                  ../../crypto/libcrypt_s.a(ps_x25519.o)
                                                  ../libssl_s.a(tls13KeyAgree.o)
psDhX25519GenSharedSecret                         ../../crypto/libcrypt_s.a(ps_x25519.o)
                                                  ../libssl_s.a(tls13KeyAgree.o)
psDiffMsecs                                       ../../core/libcore_s.a(osdep.o)
                                                  ../libssl_s.a(tls13DecodeExt.o)
                                                  ../libssl_s.a(tls13EncodeExt.o)
                                                  ../libssl_s.a(matrixsslKeys.o)
                                                  ../libssl_s.a(matrixssl.o)
psDiffUsecs                                       ../../core/libcore_s.a(osdep.o)
psDynBufAppendAsBigEndianUint16                   ../../core/libcore_s.a(psbuf.o)
                                                  ../libssl_s.a(tls13Resume.o)
                                                  ../libssl_s.a(tls13EncodeExt.o)
                                                  ../libssl_s.a(tls13Encode.o)
psDynBufAppendAsBigEndianUint32                   ../../core/libcore_s.a(psbuf.o)
                                                  ../libssl_s.a(tls13Resume.o)
                                                  ../libssl_s.a(tls13EncodeExt.o)
                                                  ../libssl_s.a(tls13Encode.o)
psDynBufAppendAsn1TagGen                          ../../core/libcore_s.a(psbuf.o)
psDynBufAppendSize                                ../../core/libcore_s.a(psbuf.o)
                                                  ../../core/libcore_s.a(corelib_strings.o)
                                                  ../../crypto/libcrypt_s.a(hkdf.o)
                                                  ../libssl_s.a(tls13Resume.o)
                                                  ../libssl_s.a(tls13EncodeExt.o)
                                                  ../libssl_s.a(tls13Encode.o)
psDynBufAppendTlsVector                           ../../core/libcore_s.a(psbuf.o)
                                                  ../../crypto/libcrypt_s.a(hkdf.o)
                                                  ../libssl_s.a(tls13Resume.o)
                                                  ../libssl_s.a(tls13EncodeExt.o)
                                                  ../libssl_s.a(tls13Encode.o)
psDynBufAppendUtf16                               ../../core/libcore_s.a(psbuf.o)
                                                  ../../core/libcore_s.a(corelib_strings.o)
psDynBufAppendUtf32                               ../../core/libcore_s.a(psbuf.o)
                                                  ../../core/libcore_s.a(corelib_strings.o)
psDynBufAppendUtf8                                ../../core/libcore_s.a(psbuf.o)
                                                  ../../core/libcore_s.a(corelib_strings.o)
psDynBufBeginConstructedTag                       ../../core/libcore_s.a(psbuf.o)
psDynBufDetach                                    ../../core/libcore_s.a(psbuf.o)
                                                  ../../core/libcore_s.a(corelib_strings.o)
                                                  ../libssl_s.a(tls13Resume.o)
                                                  ../libssl_s.a(tls13EncodeExt.o)
                                                  ../libssl_s.a(tls13Encode.o)
psDynBufDetachPsSize                              ../../core/libcore_s.a(psbuf.o)
                                                  ../../crypto/libcrypt_s.a(hkdf.o)
                                                  ../libssl_s.a(tls13EncodeExt.o)
                                                  ../libssl_s.a(tls13Encode.o)
psDynBufEndConstructedTag                         ../../core/libcore_s.a(psbuf.o)
psDynBufInit                                      ../../core/libcore_s.a(psbuf.o)
                                                  ../../core/libcore_s.a(corelib_strings.o)
                                                  ../../crypto/libcrypt_s.a(hkdf.o)
                                                  ../libssl_s.a(tls13Resume.o)
                                                  ../libssl_s.a(tls13EncodeExt.o)
                                                  ../libssl_s.a(tls13Encode.o)
psDynBufPrependSize                               ../../core/libcore_s.a(psbuf.o)
psDynBufReservePrepend                            ../../core/libcore_s.a(psbuf.o)
psDynBufSubFinish                                 ../../core/libcore_s.a(psbuf.o)
psDynBufSubInit                                   ../../core/libcore_s.a(psbuf.o)
psDynBufSubInitAt                                 ../../core/libcore_s.a(psbuf.o)
psDynBufUninit                                    ../../core/libcore_s.a(psbuf.o)
                                                  ../../core/libcore_s.a(corelib_strings.o)
                                                  ../../crypto/libcrypt_s.a(x509.o)
                                                  ../../crypto/libcrypt_s.a(hkdf.o)
                                                  ../libssl_s.a(tls13EncodeExt.o)
                                                  ../libssl_s.a(tls13Encode.o)
psEccClearKey                                     ../../crypto/libcrypt_s.a(ecc.o)
                                                  ../../crypto/libcrypt_s.a(pubkey.o)
                                                  ../../crypto/libcrypt_s.a(ecc_import.o)
                                                  ../../crypto/libcrypt_s.a(ecc_parse_mem.o)
                                                  ../../crypto/libcrypt_s.a(ecc_keygen.o)
                                                  ../../crypto/libcrypt_s.a(ecc_priv.o)
                                                  ../../crypto/libcrypt_s.a(x509.o)
                                                  ../libssl_s.a(tls13KeyAgree.o)
                                                  ../libssl_s.a(matrixsslKeys.o)
psEccCopyKey                                      ../../crypto/libcrypt_s.a(ecc.o)
                                                  ../../crypto/libcrypt_s.a(ecc_parse_file.o)
                                                  ../libssl_s.a(matrixsslKeys.o)
psEccDeleteKey                                    ../../crypto/libcrypt_s.a(ecc.o)
                                                  ../libssl_s.a(hsDecode.o)
                                                  ../libssl_s.a(sslEncode.o)
                                                  ../libssl_s.a(matrixssl.o)
psEccDsaSign                                      ../../crypto/libcrypt_s.a(ecc_priv.o)
                                                  ../../crypto/libcrypt_s.a(pubkey_sign.o)
                                                  ../libssl_s.a(sslEncode.o)
psEccDsaSignCommon                                ../../crypto/libcrypt_s.a(ecc_priv.o)
psEccDsaVerify                                    ../../crypto/libcrypt_s.a(ecc_pub.o)
                                                  ../../crypto/libcrypt_s.a(pubkey_verify.o)
                                                  ../../crypto/libcrypt_s.a(x509.o)
                                                  ../libssl_s.a(hsDecode.o)
psEccGenKey                                       ../../crypto/libcrypt_s.a(ecc_keygen.o)
                                                  ../../crypto/libcrypt_s.a(ecc_priv.o)
                                                  ../libssl_s.a(matrixsslKeys.o)
psEccGenSharedSecret                              ../../crypto/libcrypt_s.a(ecc_gen_shared.o)
                                                  ../libssl_s.a(hsDecode.o)
                                                  ../libssl_s.a(tls13KeyAgree.o)
                                                  ../libssl_s.a(sslEncode.o)
psEccGenerateScalar                               ../../crypto/libcrypt_s.a(ecc_keygen.o)
                                                  ../../crypto/libcrypt_s.a(ecc_priv.o)
psEccInitKey                                      ../../crypto/libcrypt_s.a(ecc.o)
                                                  ../../crypto/libcrypt_s.a(ecc_parse_file.o)
                                                  ../../crypto/libcrypt_s.a(pubkey_parse_file.o)
                                                  ../../crypto/libcrypt_s.a(pubkey.o)
                                                  ../../crypto/libcrypt_s.a(ecc_import.o)
                                                  ../../crypto/libcrypt_s.a(ecc_parse_mem.o)
                                                  ../../crypto/libcrypt_s.a(ecc_keygen.o)
                                                  ../libssl_s.a(tls13KeyAgree.o)
psEccNewKey                                       ../../crypto/libcrypt_s.a(ecc.o)
                                                  ../libssl_s.a(hsDecode.o)
                                                  ../libssl_s.a(tls13KeyAgree.o)
                                                  ../libssl_s.a(sslEncode.o)
psEccParsePrivFile                                ../../crypto/libcrypt_s.a(ecc_parse_file.o)
                                                  ../../crypto/libcrypt_s.a(pubkey_parse_file.o)
psEccParsePrivKey                                 ../../crypto/libcrypt_s.a(ecc_parse_mem.o)
                                                  ../../crypto/libcrypt_s.a(pubkey_parse_mem.o)
                                                  ../../crypto/libcrypt_s.a(ecc_parse_file.o)
                                                  ../../crypto/libcrypt_s.a(pubkey_parse_file.o)
                                                  ../libssl_s.a(matrixsslKeys.o)
psEccSize                                         ../../crypto/libcrypt_s.a(ecc_curve.o)
                                                  ../../crypto/libcrypt_s.a(pubkey_parse_mem.o)
                                                  ../../crypto/libcrypt_s.a(pubkey_parse_file.o)
                                                  ../../crypto/libcrypt_s.a(x509.o)
                                                  ../libssl_s.a(matrixsslKeys.o)
psEccX963ExportKey                                ../../crypto/libcrypt_s.a(ecc_export.o)
                                                  ../libssl_s.a(tls13KeyAgree.o)
                                                  ../libssl_s.a(sslEncode.o)
psEccX963ImportKey                                ../../crypto/libcrypt_s.a(ecc_import.o)
                                                  ../../crypto/libcrypt_s.a(ecc_parse_mem.o)
                                                  ../libssl_s.a(hsDecode.o)
                                                  ../libssl_s.a(tls13KeyAgree.o)
psEd25519ParsePrivFile                            ../../crypto/libcrypt_s.a(ecc_parse_file.o)
                                                  ../../crypto/libcrypt_s.a(pubkey_parse_file.o)
psEd25519ParsePrivKey                             ../../crypto/libcrypt_s.a(ecc_parse_mem.o)
                                                  ../../crypto/libcrypt_s.a(pubkey_parse_mem.o)
                                                  ../../crypto/libcrypt_s.a(ecc_parse_file.o)
                                                  ../libssl_s.a(matrixsslKeys.o)
psEd25519ParsePubKey                              ../../crypto/libcrypt_s.a(ecc_parse_mem.o)
                                                  ../../crypto/libcrypt_s.a(x509.o)
psEd25519ParsePubKeyContent                       ../../crypto/libcrypt_s.a(ecc_parse_mem.o)
psEd25519Sign                                     ../../crypto/libcrypt_s.a(ps_ed25519.o)
                                                  ../../crypto/libcrypt_s.a(pubkey_sign.o)
psEd25519Verify                                   ../../crypto/libcrypt_s.a(ps_ed25519.o)
                                                  ../../crypto/libcrypt_s.a(pubkey_verify.o)
psEncodeVersion                                   ../libssl_s.a(hsNegotiateVersion.o)
psEncodeVersionMaj                                ../libssl_s.a(hsNegotiateVersion.o)
                                                  ../libssl_s.a(hsDecode.o)
                                                  ../libssl_s.a(tls.o)
                                                  ../libssl_s.a(tls13Resume.o)
                                                  ../libssl_s.a(tls13Decode.o)
                                                  ../libssl_s.a(tls13EncodeExt.o)
                                                  ../libssl_s.a(sslEncode.o)
                                                  ../libssl_s.a(matrixssl.o)
                                                  ../libssl_s.a(cipherSuite.o)
psEncodeVersionMin                                ../libssl_s.a(hsNegotiateVersion.o)
                                                  ../libssl_s.a(hsDecode.o)
                                                  ../libssl_s.a(tls.o)
                                                  ../libssl_s.a(tls13Resume.o)
                                                  ../libssl_s.a(tls13Decode.o)
                                                  ../libssl_s.a(tls13EncodeExt.o)
                                                  ../libssl_s.a(sslEncode.o)
                                                  ../libssl_s.a(matrixssl.o)
                                                  ../libssl_s.a(cipherSuite.o)
psFlagToVer                                       ../libssl_s.a(hsNegotiateVersion.o)
psFreeList                                        ../../core/libcore_s.a(corelib_list.o)
                                                  ../../crypto/libcrypt_s.a(x509.o)
                                                  ../../crypto/libcrypt_s.a(pem_decode_mem.o)
psGenerateServerRandom                            ../libssl_s.a(sslEncode.o)
                                                  ../libssl_s.a(tls13Encode.o)
psGetBrokenDownGMTime                             ../../core/libcore_s.a(corelib_date.o)
                                                  ../../crypto/libcrypt_s.a(crl.o)
                                                  ../../crypto/libcrypt_s.a(x509.o)
psGetDigestInfoPrefix                             ../../crypto/libcrypt_s.a(digest_info.o)
                                                  ../../crypto/libcrypt_s.a(rsa_pub.o)
psGetEccCurveIdList                               ../../crypto/libcrypt_s.a(ecc_curve.o)
                                                  ../libssl_s.a(sslEncode.o)
psGetEntropy                                      ../../core/libcore_s.a(osdep.o)
                                                  ../../crypto/libcrypt_s.a(prng.o)
psGetEpochTime                                    ../../core/libcore_s.a(corelib_date.o)
psGetFileBuf                                      ../../core/libcore_s.a(osdep.o)
                                                  ../../crypto/libcrypt_s.a(pem_decode_file.o)
                                                  ../../crypto/libcrypt_s.a(pubkey_parse_file.o)
                                                  ../../crypto/libcrypt_s.a(x509.o)
                                                  ../../crypto/libcrypt_s.a(pkcs.o)
                                                  ../libssl_s.a(matrixsslKeys.o)
psGetFileBufFp                                    ../../core/libcore_s.a(osdep.o)
psGetNamedGroupId                                 ../../crypto/libcrypt_s.a(alg_info.o)
psGetNamedSigAlgId                                ../../crypto/libcrypt_s.a(alg_info.o)
psGetOutputBlockLength                            ../../crypto/libcrypt_s.a(alg_info.o)
                                                  ../../crypto/libcrypt_s.a(hkdf.o)
                                                  ../libssl_s.a(tls13Resume.o)
                                                  ../libssl_s.a(tls13Psk.o)
                                                  ../libssl_s.a(tls13KeySchedule.o)
                                                  ../libssl_s.a(tls13DecodeExt.o)
                                                  ../libssl_s.a(tls13Decode.o)
                                                  ../libssl_s.a(tls13EncodeExt.o)
                                                  ../libssl_s.a(tls13Encode.o)
                                                  ../libssl_s.a(tls13CipherSuite.o)
                                                  ../libssl_s.a(cipherSuite.o)
psGetPrng                                         ../../crypto/libcrypt_s.a(prng.o)
                                                  ../../crypto/libcrypt_s.a(aes_aesni.o)
                                                  ../libssl_s.a(tls13Resume.o)
                                                  ../libssl_s.a(tls13Encode.o)
                                                  sslTest.o
psGetPrngLocked                                   ../../crypto/libcrypt_s.a(prng.o)
                                                  ../../crypto/libcrypt_s.a(ps_x25519.o)
                                                  ../../crypto/libcrypt_s.a(ecc_keygen.o)
                                                  ../../crypto/libcrypt_s.a(dh_gen_key.o)
                                                  ../../crypto/libcrypt_s.a(pkcs.o)
                                                  ../libssl_s.a(hsDecode.o)
                                                  ../libssl_s.a(tls13Encode.o)
                                                  ../libssl_s.a(sslEncode.o)
                                                  ../libssl_s.a(matrixssl.o)
                                                  ../libssl_s.a(dtls.o)
                                                  sslTest.o
psGetTime                                         ../../core/libcore_s.a(osdep.o)
                                                  ../libssl_s.a(tls13Resume.o)
                                                  ../libssl_s.a(tls13DecodeExt.o)
                                                  ../libssl_s.a(tls13Decode.o)
                                                  ../libssl_s.a(tls13EncodeExt.o)
                                                  ../libssl_s.a(matrixsslKeys.o)
                                                  ../libssl_s.a(matrixssl.o)
psHashDataAndVerifySig                            ../../crypto/libcrypt_s.a(pubkey_verify.o)
psHashLenToSigAlg                                 ../../crypto/libcrypt_s.a(alg_info.o)
                                                  ../../crypto/libcrypt_s.a(rsa_pub.o)
psHexToBinary                                     ../../core/libcore_s.a(corelib_strings.o)
                                                  ../../crypto/libcrypt_s.a(pem_decode_mem.o)
psHkdfExpand                                      ../../crypto/libcrypt_s.a(hkdf.o)
psHkdfExpandLabel                                 ../../crypto/libcrypt_s.a(hkdf.o)
                                                  ../libssl_s.a(tls13Resume.o)
                                                  ../libssl_s.a(tls13KeySchedule.o)
psHkdfExtract                                     ../../crypto/libcrypt_s.a(hkdf.o)
                                                  ../libssl_s.a(tls13KeySchedule.o)
psHmac                                            ../../crypto/libcrypt_s.a(hmac.o)
                                                  ../../crypto/libcrypt_s.a(hkdf.o)
psHmacFinal                                       ../../crypto/libcrypt_s.a(hmac.o)
                                                  ../libssl_s.a(tls.o)
psHmacInit                                        ../../crypto/libcrypt_s.a(hmac.o)
                                                  ../libssl_s.a(tls.o)
psHmacMd5                                         ../../crypto/libcrypt_s.a(hmac.o)
                                                  ../libssl_s.a(prf.o)
psHmacMd5Final                                    ../../crypto/libcrypt_s.a(hmac.o)
                                                  ../libssl_s.a(prf.o)
psHmacMd5Init                                     ../../crypto/libcrypt_s.a(hmac.o)
                                                  ../libssl_s.a(prf.o)
psHmacMd5Update                                   ../../crypto/libcrypt_s.a(hmac.o)
                                                  ../libssl_s.a(prf.o)
psHmacSha1                                        ../../crypto/libcrypt_s.a(hmac.o)
                                                  ../libssl_s.a(prf.o)
psHmacSha1Final                                   ../../crypto/libcrypt_s.a(hmac.o)
                                                  ../../crypto/libcrypt_s.a(pkcs.o)
                                                  ../libssl_s.a(tls.o)
                                                  ../libssl_s.a(prf.o)
psHmacSha1Init                                    ../../crypto/libcrypt_s.a(hmac.o)
                                                  ../../crypto/libcrypt_s.a(pkcs.o)
                                                  ../libssl_s.a(tls.o)
                                                  ../libssl_s.a(prf.o)
psHmacSha1Update                                  ../../crypto/libcrypt_s.a(hmac.o)
                                                  ../../crypto/libcrypt_s.a(pkcs.o)
                                                  ../libssl_s.a(tls.o)
                                                  ../libssl_s.a(prf.o)
psHmacSha256                                      ../../crypto/libcrypt_s.a(hmac.o)
                                                  ../libssl_s.a(prf.o)
                                                  ../libssl_s.a(dtls.o)
psHmacSha256Final                                 ../../crypto/libcrypt_s.a(hmac.o)
                                                  ../libssl_s.a(prf.o)
                                                  ../libssl_s.a(matrixssl.o)
psHmacSha256Init                                  ../../crypto/libcrypt_s.a(hmac.o)
                                                  ../libssl_s.a(prf.o)
                                                  ../libssl_s.a(matrixssl.o)
psHmacSha256Update                                ../../crypto/libcrypt_s.a(hmac.o)
                                                  ../libssl_s.a(prf.o)
                                                  ../libssl_s.a(matrixssl.o)
psHmacSha384                                      ../../crypto/libcrypt_s.a(hmac.o)
                                                  ../libssl_s.a(prf.o)
psHmacSha384Final                                 ../../crypto/libcrypt_s.a(hmac.o)
                                                  ../libssl_s.a(prf.o)
psHmacSha384Init                                  ../../crypto/libcrypt_s.a(hmac.o)
                                                  ../libssl_s.a(prf.o)
psHmacSha384Update                                ../../crypto/libcrypt_s.a(hmac.o)
                                                  ../libssl_s.a(prf.o)
psHmacSingle                                      ../../crypto/libcrypt_s.a(hmac.o)
                                                  ../libssl_s.a(tls13DecodeExt.o)
                                                  ../libssl_s.a(tls13Decode.o)
                                                  ../libssl_s.a(tls13EncodeExt.o)
                                                  ../libssl_s.a(tls13Encode.o)
psHmacUpdate                                      ../../crypto/libcrypt_s.a(hmac.o)
                                                  ../libssl_s.a(tls.o)
psInitPrng                                        ../../crypto/libcrypt_s.a(prng.o)
psInitPubKey                                      ../../crypto/libcrypt_s.a(pubkey.o)
                                                  ../../crypto/libcrypt_s.a(x509.o)
                                                  ../libssl_s.a(matrixsslKeys.o)
psIsEcdheGroup                                    ../../crypto/libcrypt_s.a(alg_info.o)
                                                  ../libssl_s.a(tls13KeyAgree.o)
psIsGroupSupported                                ../../crypto/libcrypt_s.a(alg_info.o)
                                                  ../libssl_s.a(tls13KeyAgree.o)
                                                  ../libssl_s.a(matrixssl.o)
psIsInsecureSigAlg                                ../../crypto/libcrypt_s.a(alg_info.o)
                                                  ../libssl_s.a(tlsSigVer.o)
psIsSigAlgSupported                               ../../crypto/libcrypt_s.a(alg_info.o)
                                                  ../libssl_s.a(tlsDefaults.o)
                                                  ../libssl_s.a(matrixssl.o)
psIsValidHashLenSigAlgCombination                 ../../crypto/libcrypt_s.a(alg_info.o)
                                                  ../../crypto/libcrypt_s.a(rsa_pub.o)
psLockMutex                                       ../../core/libcore_s.a(osdep.o)
                                                  ../../core/libcore_s.a(corelib_main.o)
                                                  ../../crypto/libcrypt_s.a(crl.o)
                                                  ../../crypto/libcrypt_s.a(prng.o)
                                                  ../libssl_s.a(matrixsslKeys.o)
                                                  ../libssl_s.a(matrixssl.o)
psMd5Final                                        ../../crypto/libcrypt_s.a(md5.o)
                                                  ../../crypto/libcrypt_s.a(pkcs.o)
                                                  ../../crypto/libcrypt_s.a(hmac.o)
                                                  ../../crypto/libcrypt_s.a(md5sha1.o)
psMd5Init                                         ../../crypto/libcrypt_s.a(md5.o)
                                                  ../../crypto/libcrypt_s.a(pkcs.o)
                                                  ../../crypto/libcrypt_s.a(hmac.o)
                                                  ../../crypto/libcrypt_s.a(md5sha1.o)
psMd5Sha1Final                                    ../../crypto/libcrypt_s.a(md5sha1.o)
                                                  ../libssl_s.a(tlsSigVer.o)
                                                  ../libssl_s.a(hsHash.o)
psMd5Sha1Init                                     ../../crypto/libcrypt_s.a(md5sha1.o)
                                                  ../libssl_s.a(tlsSigVer.o)
                                                  ../libssl_s.a(hsHash.o)
psMd5Sha1Update                                   ../../crypto/libcrypt_s.a(md5sha1.o)
                                                  ../libssl_s.a(tlsSigVer.o)
                                                  ../libssl_s.a(hsHash.o)
psMd5Update                                       ../../crypto/libcrypt_s.a(md5.o)
                                                  ../../crypto/libcrypt_s.a(pkcs.o)
                                                  ../../crypto/libcrypt_s.a(hmac.o)
                                                  ../../crypto/libcrypt_s.a(md5sha1.o)
psMem2Str                                         ../../core/libcore_s.a(corelib_strings.o)
                                                  ../../core/libcore_s.a(corelib_trace.o)
psNewPubKey                                       ../../crypto/libcrypt_s.a(pubkey.o)
                                                  ../libssl_s.a(tls13KeyAgree.o)
psOcspParseResponse                               ../../crypto/libcrypt_s.a(x509.o)
                                                  ../libssl_s.a(hsDecode.o)
                                                  ../libssl_s.a(tls13DecodeExt.o)
psOcspResponseCheckDates                          ../../crypto/libcrypt_s.a(x509.o)
psOcspResponseGetStatus                           ../../crypto/libcrypt_s.a(x509.o)
psOcspResponseUninit                              ../../crypto/libcrypt_s.a(x509.o)
psOcspResponseValidate                            ../../crypto/libcrypt_s.a(x509.o)
psOcspResponseValidateOld                         ../../crypto/libcrypt_s.a(x509.o)
                                                  ../libssl_s.a(hsDecode.o)
                                                  ../libssl_s.a(tls13DecodeExt.o)
psOpenPrng                                        ../../crypto/libcrypt_s.a(prng.o)
                                                  ../../crypto/libcrypt_s.a(matrix.o)
psParseBufCanGetTag                               ../../core/libcore_s.a(psbuf.o)
psParseBufCanReadUtf8                             ../../core/libcore_s.a(psbuf.o)
                                                  ../../core/libcore_s.a(corelib_strings.o)
psParseBufCancel                                  ../../core/libcore_s.a(psbuf.o)
psParseBufCheckState                              ../../core/libcore_s.a(psbuf.o)
psParseBufCopyAll                                 ../../core/libcore_s.a(psbuf.o)
psParseBufCopyN                                   ../../core/libcore_s.a(psbuf.o)
                                                  ../../crypto/libcrypt_s.a(ecc_parse_mem.o)
                                                  ../libssl_s.a(tls13Resume.o)
                                                  ../libssl_s.a(tls13DecodeExt.o)
                                                  ../libssl_s.a(tls13Decode.o)
psParseBufCopyUntilByte                           ../../core/libcore_s.a(psbuf.o)
psParseBufEq                                      ../../core/libcore_s.a(psbuf.o)
psParseBufFinish                                  ../../core/libcore_s.a(psbuf.o)
                                                  ../../crypto/libcrypt_s.a(x509.o)
psParseBufFromStaticData                          ../../core/libcore_s.a(psbuf.o)
                                                  ../../core/libcore_s.a(corelib_strings.o)
                                                  ../../crypto/libcrypt_s.a(ecc_parse_mem.o)
                                                  ../../crypto/libcrypt_s.a(x509.o)
                                                  ../libssl_s.a(extDecode.o)
                                                  ../libssl_s.a(tls13Resume.o)
                                                  ../libssl_s.a(tls13DecodeExt.o)
                                                  ../libssl_s.a(tls13Decode.o)
psParseBufGetTagLen                               ../../core/libcore_s.a(psbuf.o)
psParseBufReadTagRef                              ../../core/libcore_s.a(psbuf.o)
                                                  ../../crypto/libcrypt_s.a(x509.o)
psParseBufReadTagSub                              ../../core/libcore_s.a(psbuf.o)
                                                  ../../crypto/libcrypt_s.a(x509.o)
psParseBufReadUtf8                                ../../core/libcore_s.a(psbuf.o)
                                                  ../../core/libcore_s.a(corelib_strings.o)
psParseBufSkipBytes                               ../../core/libcore_s.a(psbuf.o)
                                                  ../../core/libcore_s.a(corelib_strings.o)
psParseBufSkipTag                                 ../../core/libcore_s.a(psbuf.o)
psParseBufTryReadTagSub                           ../../core/libcore_s.a(psbuf.o)
                                                  ../../crypto/libcrypt_s.a(ecc_parse_mem.o)
                                                  ../../crypto/libcrypt_s.a(x509.o)
psParseBufTrySkipBytes                            ../../core/libcore_s.a(psbuf.o)
                                                  ../../crypto/libcrypt_s.a(ecc_parse_mem.o)
                                                  ../../crypto/libcrypt_s.a(x509.o)
psParseBufTrySkipTag                              ../../core/libcore_s.a(psbuf.o)
                                                  ../../crypto/libcrypt_s.a(x509.o)
psParseList                                       ../../core/libcore_s.a(corelib_list.o)
                                                  ../../crypto/libcrypt_s.a(x509.o)
psParseSubjectPublicKeyInfo                       ../../crypto/libcrypt_s.a(pubkey_parse_mem.o)
                                                  ../../crypto/libcrypt_s.a(rsa_parse_file.o)
                                                  ../../crypto/libcrypt_s.a(rsa_parse_mem.o)
psParseTlsVariableLengthVec                       ../../core/libcore_s.a(psbuf.o)
                                                  ../libssl_s.a(extDecode.o)
                                                  ../libssl_s.a(tls13Resume.o)
                                                  ../libssl_s.a(tls13DecodeExt.o)
                                                  ../libssl_s.a(tls13Decode.o)
psParseUnknownPrivKey                             ../../crypto/libcrypt_s.a(pubkey_parse_file.o)
psParseUnknownPrivKeyMem                          ../../crypto/libcrypt_s.a(pubkey_parse_mem.o)
                                                  ../../crypto/libcrypt_s.a(pubkey_parse_file.o)
psParseUnknownPubKey                              ../../crypto/libcrypt_s.a(pubkey_parse_file.o)
psParseUnknownPubKeyMem                           ../../crypto/libcrypt_s.a(pubkey_parse_mem.o)
psPemCertBufToList                                ../../crypto/libcrypt_s.a(pem_decode_mem.o)
                                                  ../../crypto/libcrypt_s.a(x509.o)
psPemCheckOk                                      ../../crypto/libcrypt_s.a(pem_decode_mem.o)
                                                  ../../crypto/libcrypt_s.a(pem_decode_file.o)
psPemDecode                                       ../../crypto/libcrypt_s.a(pem_decode_mem.o)
                                                  ../../crypto/libcrypt_s.a(pem_decode_file.o)
psPemFileToDer                                    ../../crypto/libcrypt_s.a(pem_decode_file.o)
                                                  ../../crypto/libcrypt_s.a(rsa_parse_file.o)
                                                  ../../crypto/libcrypt_s.a(pubkey_parse_file.o)
psPemTryDecode                                    ../../crypto/libcrypt_s.a(pem_decode_mem.o)
                                                  ../../crypto/libcrypt_s.a(pubkey_parse_mem.o)
                                                  ../../crypto/libcrypt_s.a(rsa_parse_mem.o)
                                                  ../libssl_s.a(matrixsslKeys.o)
psPkcs12Parse                                     ../../crypto/libcrypt_s.a(pkcs.o)
                                                  ../libssl_s.a(matrixsslKeys.o)
psPkcs12ParseMem                                  ../../crypto/libcrypt_s.a(pkcs.o)
                                                  ../libssl_s.a(matrixsslKeys.o)
psPkcs1DecodePrivFile                             ../../crypto/libcrypt_s.a(pubkey_parse_file.o)
                                                  ../../crypto/libcrypt_s.a(ecc_parse_file.o)
                                                  ../../crypto/libcrypt_s.a(rsa_parse_file.o)
psPkcs1OaepDecode                                 ../../crypto/libcrypt_s.a(pkcs.o)
psPkcs1OaepEncode                                 ../../crypto/libcrypt_s.a(pkcs.o)
psPkcs1ParsePrivFile                              ../../crypto/libcrypt_s.a(rsa_parse_file.o)
                                                  ../../crypto/libcrypt_s.a(pubkey_parse_file.o)
psPkcs1ParsePubFile                               ../../crypto/libcrypt_s.a(rsa_parse_file.o)
                                                  ../../crypto/libcrypt_s.a(pubkey_parse_file.o)
psPkcs1PssDecode                                  ../../crypto/libcrypt_s.a(pkcs.o)
                                                  ../../crypto/libcrypt_s.a(rsa_pub.o)
psPkcs1PssEncode                                  ../../crypto/libcrypt_s.a(pkcs.o)
                                                  ../../crypto/libcrypt_s.a(rsa_priv.o)
psPkcs3ClearDhParams                              ../../crypto/libcrypt_s.a(dh_params.o)
                                                  ../libssl_s.a(tls13KeyAgree.o)
                                                  ../libssl_s.a(matrixsslKeys.o)
psPkcs3ParseDhParamBin                            ../../crypto/libcrypt_s.a(dh_params.o)
                                                  ../../crypto/libcrypt_s.a(pkcs.o)
                                                  ../libssl_s.a(tls13KeyAgree.o)
                                                  ../libssl_s.a(matrixsslKeys.o)
psPkcs3ParseDhParamFile                           ../../crypto/libcrypt_s.a(pkcs.o)
                                                  ../libssl_s.a(matrixsslKeys.o)
psPkcs5Pbkdf1                                     ../../crypto/libcrypt_s.a(pkcs.o)
                                                  ../../crypto/libcrypt_s.a(pem_decode_mem.o)
psPkcs5Pbkdf2                                     ../../crypto/libcrypt_s.a(pkcs.o)
                                                  ../../crypto/libcrypt_s.a(pubkey_parse_file.o)
psPkcs8ParsePrivBin                               ../../crypto/libcrypt_s.a(pubkey_parse_file.o)
                                                  ../../crypto/libcrypt_s.a(pubkey_parse_mem.o)
                                                  ../../crypto/libcrypt_s.a(ecc_parse_file.o)
                                                  ../../crypto/libcrypt_s.a(rsa_parse_file.o)
                                                  ../../crypto/libcrypt_s.a(pkcs.o)
                                                  ../libssl_s.a(matrixsslKeys.o)
psPssHashAlgToHashLen                             ../../crypto/libcrypt_s.a(alg_info.o)
                                                  ../../crypto/libcrypt_s.a(x509.o)
psRsaClearKey                                     ../../crypto/libcrypt_s.a(rsa.o)
                                                  ../../crypto/libcrypt_s.a(rsa_parse_mem.o)
                                                  ../../crypto/libcrypt_s.a(pubkey_parse_file.o)
                                                  ../../crypto/libcrypt_s.a(pubkey.o)
                                                  ../../crypto/libcrypt_s.a(x509.o)
psRsaCmpPubKey                                    ../../crypto/libcrypt_s.a(rsa.o)
                                                  ../libssl_s.a(matrixsslKeys.o)
psRsaCopyKey                                      ../../crypto/libcrypt_s.a(rsa.o)
                                                  ../../crypto/libcrypt_s.a(rsa_parse_file.o)
psRsaCrypt                                        ../../crypto/libcrypt_s.a(rsa.o)
                                                  ../../crypto/libcrypt_s.a(rsa_pub.o)
                                                  ../../crypto/libcrypt_s.a(rsa_priv.o)
psRsaDecryptPriv                                  ../../crypto/libcrypt_s.a(rsa_priv.o)
                                                  ../libssl_s.a(hsDecode.o)
psRsaDecryptPub                                   ../../crypto/libcrypt_s.a(rsa_pub.o)
                                                  ../../crypto/libcrypt_s.a(rsa_priv.o)
                                                  ../../crypto/libcrypt_s.a(pubkey_verify.o)
                                                  ../libssl_s.a(hsDecode.o)
psRsaEncryptPriv                                  ../../crypto/libcrypt_s.a(rsa_priv.o)
                                                  ../../crypto/libcrypt_s.a(pubkey_sign.o)
                                                  ../libssl_s.a(sslEncode.o)
psRsaEncryptPub                                   ../../crypto/libcrypt_s.a(rsa_pub.o)
                                                  ../libssl_s.a(sslEncode.o)
psRsaInitKey                                      ../../crypto/libcrypt_s.a(rsa.o)
                                                  ../../crypto/libcrypt_s.a(rsa_parse_mem.o)
                                                  ../../crypto/libcrypt_s.a(pubkey_parse_file.o)
                                                  ../../crypto/libcrypt_s.a(pubkey.o)
psRsaParseAsnPubKey                               ../../crypto/libcrypt_s.a(rsa_parse_mem.o)
                                                  ../../crypto/libcrypt_s.a(pubkey_parse_mem.o)
                                                  ../../crypto/libcrypt_s.a(rsa_parse_file.o)
                                                  ../../crypto/libcrypt_s.a(x509.o)
psRsaParsePkcs1PrivKey                            ../../crypto/libcrypt_s.a(rsa_parse_mem.o)
                                                  ../../crypto/libcrypt_s.a(pubkey_parse_mem.o)
                                                  ../../crypto/libcrypt_s.a(rsa_parse_file.o)
                                                  ../../crypto/libcrypt_s.a(pubkey_parse_file.o)
                                                  ../libssl_s.a(matrixsslKeys.o)
psRsaParsePubKeyMem                               ../../crypto/libcrypt_s.a(rsa_parse_mem.o)
psRsaPssSignHash                                  ../../crypto/libcrypt_s.a(rsa_priv.o)
                                                  ../../crypto/libcrypt_s.a(pubkey_sign.o)
psRsaPssVerify                                    ../../crypto/libcrypt_s.a(rsa_pub.o)
                                                  ../../crypto/libcrypt_s.a(pubkey_verify.o)
psRsaSize                                         ../../crypto/libcrypt_s.a(rsa.o)
                                                  ../../crypto/libcrypt_s.a(pubkey_parse_mem.o)
                                                  ../../crypto/libcrypt_s.a(pubkey_parse_file.o)
                                                  ../../crypto/libcrypt_s.a(x509.o)
                                                  ../libssl_s.a(matrixsslKeys.o)
psSha1Final                                       ../../crypto/libcrypt_s.a(sha1.o)
                                                  ../../crypto/libcrypt_s.a(rsa_parse_mem.o)
                                                  ../../crypto/libcrypt_s.a(pubkey_sign.o)
                                                  ../../crypto/libcrypt_s.a(ecc_parse_mem.o)
                                                  ../../crypto/libcrypt_s.a(x509.o)
                                                  ../../crypto/libcrypt_s.a(pkcs.o)
                                                  ../../crypto/libcrypt_s.a(hmac.o)
                                                  ../../crypto/libcrypt_s.a(md5sha1.o)
                                                  ../libssl_s.a(tlsSigVer.o)
                                                  ../libssl_s.a(sslDecode.o)
                                                  ../libssl_s.a(hsHash.o)
psSha1Init                                        ../../crypto/libcrypt_s.a(sha1.o)
                                                  ../../crypto/libcrypt_s.a(rsa_parse_mem.o)
                                                  ../../crypto/libcrypt_s.a(pubkey_sign.o)
                                                  ../../crypto/libcrypt_s.a(ecc_parse_mem.o)
                                                  ../../crypto/libcrypt_s.a(x509.o)
                                                  ../../crypto/libcrypt_s.a(pkcs.o)
                                                  ../../crypto/libcrypt_s.a(hmac.o)
                                                  ../../crypto/libcrypt_s.a(md5sha1.o)
                                                  ../libssl_s.a(tlsSigVer.o)
                                                  ../libssl_s.a(sslDecode.o)
                                                  ../libssl_s.a(hsHash.o)
psSha1Update                                      ../../crypto/libcrypt_s.a(sha1.o)
                                                  ../../crypto/libcrypt_s.a(rsa_parse_mem.o)
                                                  ../../crypto/libcrypt_s.a(pubkey_sign.o)
                                                  ../../crypto/libcrypt_s.a(ecc_parse_mem.o)
                                                  ../../crypto/libcrypt_s.a(x509.o)
                                                  ../../crypto/libcrypt_s.a(pkcs.o)
                                                  ../../crypto/libcrypt_s.a(hmac.o)
                                                  ../../crypto/libcrypt_s.a(md5sha1.o)
                                                  ../libssl_s.a(tlsSigVer.o)
                                                  ../libssl_s.a(hsHash.o)
psSha256Final                                     ../../crypto/libcrypt_s.a(sha256.o)
                                                  ../../crypto/libcrypt_s.a(pubkey_sign.o)
                                                  ../../crypto/libcrypt_s.a(x509.o)
                                                  ../../crypto/libcrypt_s.a(pkcs.o)
                                                  ../../crypto/libcrypt_s.a(hmac.o)
                                                  ../libssl_s.a(tls13TrHash.o)
                                                  ../libssl_s.a(tlsSigVer.o)
                                                  ../libssl_s.a(sslDecode.o)
                                                  ../libssl_s.a(hsHash.o)
psSha256Init                                      ../../crypto/libcrypt_s.a(sha256.o)
                                                  ../../crypto/libcrypt_s.a(pubkey_sign.o)
                                                  ../../crypto/libcrypt_s.a(x509.o)
                                                  ../../crypto/libcrypt_s.a(pkcs.o)
                                                  ../../crypto/libcrypt_s.a(hmac.o)
                                                  ../libssl_s.a(tls13TrHash.o)
                                                  ../libssl_s.a(tlsSigVer.o)
                                                  ../libssl_s.a(sslDecode.o)
                                                  ../libssl_s.a(hsHash.o)
psSha256Update                                    ../../crypto/libcrypt_s.a(sha256.o)
                                                  ../../crypto/libcrypt_s.a(pubkey_sign.o)
                                                  ../../crypto/libcrypt_s.a(x509.o)
                                                  ../../crypto/libcrypt_s.a(pkcs.o)
                                                  ../../crypto/libcrypt_s.a(hmac.o)
                                                  ../libssl_s.a(tls13TrHash.o)
                                                  ../libssl_s.a(tlsSigVer.o)
                                                  ../libssl_s.a(hsHash.o)
psSha384Final                                     ../../crypto/libcrypt_s.a(sha512.o)
                                                  ../../crypto/libcrypt_s.a(pubkey_sign.o)
                                                  ../../crypto/libcrypt_s.a(x509.o)
                                                  ../../crypto/libcrypt_s.a(pkcs.o)
                                                  ../../crypto/libcrypt_s.a(hmac.o)
                                                  ../libssl_s.a(tls13TrHash.o)
                                                  ../libssl_s.a(tlsSigVer.o)
                                                  ../libssl_s.a(sslDecode.o)
                                                  ../libssl_s.a(hsHash.o)
psSha384Init                                      ../../crypto/libcrypt_s.a(sha512.o)
                                                  ../../crypto/libcrypt_s.a(pubkey_sign.o)
                                                  ../../crypto/libcrypt_s.a(x509.o)
                                                  ../../crypto/libcrypt_s.a(pkcs.o)
                                                  ../../crypto/libcrypt_s.a(hmac.o)
                                                  ../libssl_s.a(tls13TrHash.o)
                                                  ../libssl_s.a(tlsSigVer.o)
                                                  ../libssl_s.a(sslDecode.o)
                                                  ../libssl_s.a(hsHash.o)
psSha384Update                                    ../../crypto/libcrypt_s.a(sha512.o)
                                                  ../../crypto/libcrypt_s.a(pubkey_sign.o)
                                                  ../../crypto/libcrypt_s.a(x509.o)
                                                  ../../crypto/libcrypt_s.a(pkcs.o)
                                                  ../../crypto/libcrypt_s.a(hmac.o)
                                                  ../libssl_s.a(tls13TrHash.o)
                                                  ../libssl_s.a(tlsSigVer.o)
                                                  ../libssl_s.a(hsHash.o)
psSha512Final                                     ../../crypto/libcrypt_s.a(sha512.o)
                                                  ../../crypto/libcrypt_s.a(open.o)
                                                  ../../crypto/libcrypt_s.a(sign.o)
                                                  ../../crypto/libcrypt_s.a(pubkey_sign.o)
                                                  ../../crypto/libcrypt_s.a(x509.o)
                                                  ../../crypto/libcrypt_s.a(pkcs.o)
                                                  ../libssl_s.a(tlsSigVer.o)
                                                  ../libssl_s.a(hsHash.o)
psSha512Init                                      ../../crypto/libcrypt_s.a(sha512.o)
                                                  ../../crypto/libcrypt_s.a(open.o)
                                                  ../../crypto/libcrypt_s.a(sign.o)
                                                  ../../crypto/libcrypt_s.a(pubkey_sign.o)
                                                  ../../crypto/libcrypt_s.a(x509.o)
                                                  ../../crypto/libcrypt_s.a(pkcs.o)
                                                  ../libssl_s.a(tlsSigVer.o)
                                                  ../libssl_s.a(hsHash.o)
psSha512Single                                    ../../crypto/libcrypt_s.a(sha512.o)
                                                  ../../crypto/libcrypt_s.a(sign.o)
psSha512Update                                    ../../crypto/libcrypt_s.a(sha512.o)
                                                  ../../crypto/libcrypt_s.a(open.o)
                                                  ../../crypto/libcrypt_s.a(sign.o)
                                                  ../../crypto/libcrypt_s.a(pubkey_sign.o)
                                                  ../../crypto/libcrypt_s.a(x509.o)
                                                  ../../crypto/libcrypt_s.a(pkcs.o)
                                                  ../libssl_s.a(tlsSigVer.o)
                                                  ../libssl_s.a(hsHash.o)
psSigAlgToHashLen                                 ../../crypto/libcrypt_s.a(alg_info.o)
                                                  ../../crypto/libcrypt_s.a(x509.o)
                                                  ../libssl_s.a(tlsSigVer.o)
psSign                                            ../../crypto/libcrypt_s.a(pubkey_sign.o)
                                                  ../libssl_s.a(tls13SigVer.o)
psSignHash                                        ../../crypto/libcrypt_s.a(pubkey_sign.o)
                                                  ../libssl_s.a(tlsSigVer.o)
psSignHashRsa                                     ../../crypto/libcrypt_s.a(pubkey_sign.o)
psSodium_add                                      ../../crypto/libcrypt_s.a(utils.o)
psSodium_bin2hex                                  ../../crypto/libcrypt_s.a(utils.o)
psSodium_compare                                  ../../crypto/libcrypt_s.a(utils.o)
psSodium_crypto_scalarmult                        ../../crypto/libcrypt_s.a(crypto_scalarmult.o)
                                                  ../../crypto/libcrypt_s.a(ps_x25519.o)
psSodium_crypto_scalarmult_base                   ../../crypto/libcrypt_s.a(crypto_scalarmult.o)
psSodium_crypto_scalarmult_bytes                  ../../crypto/libcrypt_s.a(crypto_scalarmult.o)
psSodium_crypto_scalarmult_curve25519             ../../crypto/libcrypt_s.a(scalarmult_curve25519.o)
                                                  ../../crypto/libcrypt_s.a(crypto_scalarmult.o)
psSodium_crypto_scalarmult_curve25519_base        ../../crypto/libcrypt_s.a(scalarmult_curve25519.o)
                                                  ../../crypto/libcrypt_s.a(crypto_scalarmult.o)
psSodium_crypto_scalarmult_curve25519_bytes       ../../crypto/libcrypt_s.a(scalarmult_curve25519.o)
psSodium_crypto_scalarmult_curve25519_ref10_implementation ../../crypto/libcrypt_s.a(x25519_ref10.o)
                                                  ../../crypto/libcrypt_s.a(scalarmult_curve25519.o)
psSodium_crypto_scalarmult_curve25519_scalarbytes ../../crypto/libcrypt_s.a(scalarmult_curve25519.o)
psSodium_crypto_scalarmult_primitive              ../../crypto/libcrypt_s.a(crypto_scalarmult.o)
psSodium_crypto_scalarmult_scalarbytes            ../../crypto/libcrypt_s.a(crypto_scalarmult.o)
psSodium_crypto_sign_ed25519                      ../../crypto/libcrypt_s.a(sign.o)
psSodium_crypto_sign_ed25519_detached             ../../crypto/libcrypt_s.a(sign.o)
                                                  ../../crypto/libcrypt_s.a(ps_ed25519.o)
psSodium_crypto_sign_ed25519_open                 ../../crypto/libcrypt_s.a(open.o)
psSodium_crypto_sign_ed25519_verify_detached      ../../crypto/libcrypt_s.a(open.o)
                                                  ../../crypto/libcrypt_s.a(ps_ed25519.o)
psSodium_dummy_symbol_to_prevent_compare_lto      ../../crypto/libcrypt_s.a(utils.o)
psSodium_dummy_symbol_to_prevent_memcmp_lto       ../../crypto/libcrypt_s.a(utils.o)
psSodium_fe25519_frombytes                        ../../crypto/libcrypt_s.a(ed25519_ref10.o)
                                                  ../../crypto/libcrypt_s.a(x25519_ref10.o)
psSodium_fe25519_invert                           ../../crypto/libcrypt_s.a(ed25519_ref10.o)
                                                  ../../crypto/libcrypt_s.a(x25519_ref10.o)
psSodium_fe25519_tobytes                          ../../crypto/libcrypt_s.a(ed25519_ref10.o)
                                                  ../../crypto/libcrypt_s.a(x25519_ref10.o)
psSodium_ge25519_add                              ../../crypto/libcrypt_s.a(ed25519_ref10.o)
psSodium_ge25519_double_scalarmult_vartime        ../../crypto/libcrypt_s.a(ed25519_ref10.o)
                                                  ../../crypto/libcrypt_s.a(open.o)
psSodium_ge25519_from_uniform                     ../../crypto/libcrypt_s.a(ed25519_ref10.o)
psSodium_ge25519_frombytes                        ../../crypto/libcrypt_s.a(ed25519_ref10.o)
psSodium_ge25519_frombytes_negate_vartime         ../../crypto/libcrypt_s.a(ed25519_ref10.o)
                                                  ../../crypto/libcrypt_s.a(open.o)
psSodium_ge25519_has_small_order                  ../../crypto/libcrypt_s.a(ed25519_ref10.o)
                                                  ../../crypto/libcrypt_s.a(open.o)
psSodium_ge25519_is_canonical                     ../../crypto/libcrypt_s.a(ed25519_ref10.o)
psSodium_ge25519_is_on_curve                      ../../crypto/libcrypt_s.a(ed25519_ref10.o)
psSodium_ge25519_is_on_main_subgroup              ../../crypto/libcrypt_s.a(ed25519_ref10.o)
psSodium_ge25519_p1p1_to_p2                       ../../crypto/libcrypt_s.a(ed25519_ref10.o)
psSodium_ge25519_p1p1_to_p3                       ../../crypto/libcrypt_s.a(ed25519_ref10.o)
psSodium_ge25519_p3_to_cached                     ../../crypto/libcrypt_s.a(ed25519_ref10.o)
psSodium_ge25519_p3_tobytes                       ../../crypto/libcrypt_s.a(ed25519_ref10.o)
                                                  ../../crypto/libcrypt_s.a(sign.o)
psSodium_ge25519_scalarmult                       ../../crypto/libcrypt_s.a(ed25519_ref10.o)
psSodium_ge25519_scalarmult_base                  ../../crypto/libcrypt_s.a(ed25519_ref10.o)
                                                  ../../crypto/libcrypt_s.a(x25519_ref10.o)
                                                  ../../crypto/libcrypt_s.a(sign.o)
psSodium_ge25519_sub                              ../../crypto/libcrypt_s.a(ed25519_ref10.o)
psSodium_ge25519_tobytes                          ../../crypto/libcrypt_s.a(ed25519_ref10.o)
                                                  ../../crypto/libcrypt_s.a(open.o)
psSodium_hex2bin                                  ../../crypto/libcrypt_s.a(utils.o)
psSodium_increment                                ../../crypto/libcrypt_s.a(utils.o)
psSodium_is_zero                                  ../../crypto/libcrypt_s.a(utils.o)
                                                  ../../crypto/libcrypt_s.a(ed25519_ref10.o)
psSodium_memcmp                                   ../../crypto/libcrypt_s.a(utils.o)
                                                  ../../crypto/libcrypt_s.a(open.o)
psSodium_memzero                                  ../../crypto/libcrypt_s.a(utils.o)
                                                  ../../crypto/libcrypt_s.a(chacha20_ref.o)
                                                  ../../crypto/libcrypt_s.a(chacha20_dolbeau-ssse3.o)
                                                  ../../crypto/libcrypt_s.a(poly1305_donna.o)
                                                  ../../crypto/libcrypt_s.a(poly1305_sse2.o)
                                                  ../../crypto/libcrypt_s.a(sign.o)
                                                  ../../crypto/libcrypt_s.a(aead_chacha20poly1305.o)
psSodium_memzero_as_a_weak_symbol_to_prevent_lto  ../../crypto/libcrypt_s.a(utils.o)
psSodium_mlock                                    ../../crypto/libcrypt_s.a(utils.o)
psSodium_mprotect_noaccess                        ../../crypto/libcrypt_s.a(utils.o)
psSodium_mprotect_readonly                        ../../crypto/libcrypt_s.a(utils.o)
psSodium_mprotect_readwrite                       ../../crypto/libcrypt_s.a(utils.o)
psSodium_munlock                                  ../../crypto/libcrypt_s.a(utils.o)
psSodium_runtime_get_cpu_features                 ../../crypto/libcrypt_s.a(runtime.o)
                                                  ../../crypto/libcrypt_s.a(ps_chacha20poly1305ietf.o)
psSodium_runtime_has_aesni                        ../../crypto/libcrypt_s.a(runtime.o)
psSodium_runtime_has_avx                          ../../crypto/libcrypt_s.a(runtime.o)
psSodium_runtime_has_avx2                         ../../crypto/libcrypt_s.a(runtime.o)
psSodium_runtime_has_neon                         ../../crypto/libcrypt_s.a(runtime.o)
psSodium_runtime_has_pclmul                       ../../crypto/libcrypt_s.a(runtime.o)
psSodium_runtime_has_sse2                         ../../crypto/libcrypt_s.a(runtime.o)
                                                  ../../crypto/libcrypt_s.a(onetimeauth_poly1305.o)
psSodium_runtime_has_sse3                         ../../crypto/libcrypt_s.a(runtime.o)
psSodium_runtime_has_sse41                        ../../crypto/libcrypt_s.a(runtime.o)
psSodium_runtime_has_ssse3                        ../../crypto/libcrypt_s.a(runtime.o)
                                                  ../../crypto/libcrypt_s.a(stream_chacha20.o)
psSodium_sc25519_is_canonical                     ../../crypto/libcrypt_s.a(ed25519_ref10.o)
psSodium_sc25519_muladd                           ../../crypto/libcrypt_s.a(ed25519_ref10.o)
                                                  ../../crypto/libcrypt_s.a(sign.o)
psSodium_sc25519_reduce                           ../../crypto/libcrypt_s.a(ed25519_ref10.o)
                                                  ../../crypto/libcrypt_s.a(open.o)
                                                  ../../crypto/libcrypt_s.a(sign.o)
psStatCompByteSeq                                 ../../core/libcore_s.a(psStat.o)
                                                  sslTest.o
psStatPrintCompByteSeqResult                      ../../core/libcore_s.a(psStat.o)
                                                  sslTest.o
psStatPrintHexSimple                              ../../core/libcore_s.a(psStat.o)
psStaticAllocationsPool                           ../../core/libcore_s.a(psbuf.o)
psStrCaseCmp                                      ../../core/libcore_s.a(corelib_strings.o)
psTestUserEc                                      ../libssl_s.a(matrixsslKeys.o)
                                                  ../libssl_s.a(matrixssl.o)
psTestUserEcID                                    ../libssl_s.a(matrixsslKeys.o)
                                                  ../libssl_s.a(extDecode.o)
                                                  ../libssl_s.a(cipherSuite.o)
psToUtf16String                                   ../../core/libcore_s.a(corelib_strings.o)
psToUtf32String                                   ../../core/libcore_s.a(corelib_strings.o)
psToUtf8String                                    ../../core/libcore_s.a(corelib_strings.o)
                                                  ../../crypto/libcrypt_s.a(x509.o)
psTraceBytes                                      ../../core/libcore_s.a(corelib_trace.o)
                                                  ../../core/libcore_s.a(psStat.o)
                                                  ../libssl_s.a(tls13DecodeExt.o)
                                                  ../libssl_s.a(tls13EncodeExt.o)
psUnlockMutex                                     ../../core/libcore_s.a(osdep.o)
                                                  ../../core/libcore_s.a(corelib_main.o)
                                                  ../../crypto/libcrypt_s.a(crl.o)
                                                  ../../crypto/libcrypt_s.a(prng.o)
                                                  ../libssl_s.a(matrixsslKeys.o)
                                                  ../libssl_s.a(matrixssl.o)
psVerFromEncoding                                 ../libssl_s.a(hsNegotiateVersion.o)
                                                  ../libssl_s.a(tls13Decode.o)
psVerFromEncodingMajMin                           ../libssl_s.a(hsNegotiateVersion.o)
                                                  ../libssl_s.a(hsDecode.o)
                                                  ../libssl_s.a(tls13Resume.o)
                                                  ../libssl_s.a(tls13DecodeExt.o)
                                                  ../libssl_s.a(sslDecode.o)
psVerGetHighest                                   ../libssl_s.a(hsNegotiateVersion.o)
psVerGetHighestTls                                ../libssl_s.a(hsNegotiateVersion.o)
                                                  ../libssl_s.a(hsDecode.o)
                                                  ../libssl_s.a(sslEncode.o)
                                                  ../libssl_s.a(matrixsslInitVer.o)
psVerGetLowest                                    ../libssl_s.a(hsNegotiateVersion.o)
psVerGetLowestTls                                 ../libssl_s.a(hsNegotiateVersion.o)
psVerToFlag                                       ../libssl_s.a(hsNegotiateVersion.o)
                                                  ../libssl_s.a(matrixsslInitVer.o)
psVerify                                          ../../crypto/libcrypt_s.a(pubkey_verify.o)
                                                  ../libssl_s.a(tls13SigVer.o)
psVerifySig                                       ../../crypto/libcrypt_s.a(pubkey_verify.o)
                                                  ../../crypto/libcrypt_s.a(crl.o)
                                                  ../../crypto/libcrypt_s.a(x509.o)
                                                  ../libssl_s.a(tlsSigVer.o)
psWriteHandshakeHeader                            ../libssl_s.a(sslEncode.o)
                                                  ../libssl_s.a(dtls.o)
psWriteRecordInfo                                 ../libssl_s.a(sslEncode.o)
                                                  ../libssl_s.a(dtls.o)
psX509AuthenticateCRL                             ../../crypto/libcrypt_s.a(crl.o)
psX509AuthenticateCert                            ../../crypto/libcrypt_s.a(x509.o)
                                                  ../libssl_s.a(matrixsslKeys.o)
                                                  ../libssl_s.a(matrixssl.o)
psX509FreeCRL                                     ../../crypto/libcrypt_s.a(crl.o)
psX509FreeCert                                    ../../crypto/libcrypt_s.a(x509.o)
                                                  ../../crypto/libcrypt_s.a(pkcs.o)
                                                  ../libssl_s.a(hsDecode.o)
                                                  ../libssl_s.a(tls13DecodeExt.o)
                                                  ../libssl_s.a(tls13Decode.o)
                                                  ../libssl_s.a(sslEncode.o)
                                                  ../libssl_s.a(matrixsslKeys.o)
                                                  ../libssl_s.a(matrixssl.o)
psX509FreeDNStruct                                ../../crypto/libcrypt_s.a(x509.o)
                                                  ../../crypto/libcrypt_s.a(crl.o)
psX509GetCRLVersion                               ../../crypto/libcrypt_s.a(crl.o)
psX509GetCRLdistURL                               ../../crypto/libcrypt_s.a(crl.o)
psX509GetCertPublicKeyDer                         ../../crypto/libcrypt_s.a(x509.o)
psX509GetConcatenatedDomainComponent              ../../crypto/libcrypt_s.a(x509.o)
psX509GetDNAttributes                             ../../crypto/libcrypt_s.a(x509.o)
                                                  ../../crypto/libcrypt_s.a(crl.o)
psX509GetDomainComponent                          ../../crypto/libcrypt_s.a(x509.o)
psX509GetNumDomainComponents                      ../../crypto/libcrypt_s.a(x509.o)
psX509GetNumOrganizationalUnits                   ../../crypto/libcrypt_s.a(x509.o)
psX509GetOnelineDN                                ../../crypto/libcrypt_s.a(x509.o)
psX509GetOrganizationalUnit                       ../../crypto/libcrypt_s.a(x509.o)
psX509GetSignature                                ../../crypto/libcrypt_s.a(x509.o)
                                                  ../../crypto/libcrypt_s.a(crl.o)
psX509ParseCRL                                    ../../crypto/libcrypt_s.a(crl.o)
psX509ParseCert                                   ../../crypto/libcrypt_s.a(x509.o)
                                                  ../../crypto/libcrypt_s.a(pkcs.o)
                                                  ../libssl_s.a(hsDecode.o)
                                                  ../libssl_s.a(tls13Decode.o)
psX509ParseCertData                               ../../crypto/libcrypt_s.a(x509.o)
                                                  ../libssl_s.a(matrixsslKeys.o)
psX509ParseCertFile                               ../../crypto/libcrypt_s.a(x509.o)
                                                  ../libssl_s.a(matrixsslKeys.o)
psX509ValidateGeneralName                         ../../crypto/libcrypt_s.a(x509.o)
                                                  ../libssl_s.a(matrixsslApi.o)
                                                  ../libssl_s.a(matrixssl.o)
pselect                                           /lib/x86_64-linux-gnu/libc.so.6
pselect@@GLIBC_2.2.5                              /lib/x86_64-linux-gnu/libc.so.6
pselect@GLIBC_2.2.5                               /lib/x86_64-linux-gnu/libc.so.6
pstm_2expt                                        ../../crypto/libcrypt_s.a(pstm.o)
pstm_abs                                          ../../crypto/libcrypt_s.a(pstm.o)
pstm_add                                          ../../crypto/libcrypt_s.a(pstm.o)
                                                  ../../crypto/libcrypt_s.a(ecc_math.o)
                                                  ../../crypto/libcrypt_s.a(rsa.o)
                                                  ../../crypto/libcrypt_s.a(ecc_priv.o)
                                                  ../../crypto/libcrypt_s.a(pkcs.o)
pstm_add_d                                        ../../crypto/libcrypt_s.a(pstm.o)
                                                  ../../crypto/libcrypt_s.a(dh_gen_secret.o)
pstm_clamp                                        ../../crypto/libcrypt_s.a(pstm.o)
                                                  ../../crypto/libcrypt_s.a(pstm_montgomery_reduce.o)
                                                  ../../crypto/libcrypt_s.a(pstm_sqr_comba.o)
                                                  ../../crypto/libcrypt_s.a(pstm_mul_comba.o)
pstm_clear                                        ../../crypto/libcrypt_s.a(pstm.o)
                                                  ../../crypto/libcrypt_s.a(ecc_math.o)
                                                  ../../crypto/libcrypt_s.a(rsa.o)
                                                  ../../crypto/libcrypt_s.a(ecc_import.o)
                                                  ../../crypto/libcrypt_s.a(ecc_gen_shared.o)
                                                  ../../crypto/libcrypt_s.a(ecc_keygen.o)
                                                  ../../crypto/libcrypt_s.a(ecc_pub.o)
                                                  ../../crypto/libcrypt_s.a(ecc_priv.o)
                                                  ../../crypto/libcrypt_s.a(ecc.o)
                                                  ../../crypto/libcrypt_s.a(dh_gen_secret.o)
                                                  ../../crypto/libcrypt_s.a(dh_gen_key.o)
                                                  ../../crypto/libcrypt_s.a(dh_import.o)
                                                  ../../crypto/libcrypt_s.a(dh_params.o)
                                                  ../../crypto/libcrypt_s.a(dh.o)
                                                  ../../crypto/libcrypt_s.a(pkcs.o)
pstm_clear_multi                                  ../../crypto/libcrypt_s.a(pstm.o)
                                                  ../../crypto/libcrypt_s.a(ecc_math.o)
                                                  ../../crypto/libcrypt_s.a(rsa.o)
                                                  ../../crypto/libcrypt_s.a(ecc.o)
pstm_cmp                                          ../../crypto/libcrypt_s.a(pstm.o)
                                                  ../../crypto/libcrypt_s.a(ecc_math.o)
                                                  ../../crypto/libcrypt_s.a(rsa.o)
                                                  ../../crypto/libcrypt_s.a(ecc_keygen.o)
                                                  ../../crypto/libcrypt_s.a(ecc_pub.o)
                                                  ../../crypto/libcrypt_s.a(dh_gen_secret.o)
                                                  ../../crypto/libcrypt_s.a(dh_gen_key.o)
pstm_cmp_d                                        ../../crypto/libcrypt_s.a(pstm.o)
                                                  ../../crypto/libcrypt_s.a(ecc_math.o)
                                                  ../../crypto/libcrypt_s.a(ecc_keygen.o)
                                                  ../../crypto/libcrypt_s.a(dh_gen_key.o)
                                                  ../../crypto/libcrypt_s.a(dh_params.o)
pstm_cmp_mag                                      ../../crypto/libcrypt_s.a(pstm.o)
                                                  ../../crypto/libcrypt_s.a(pstm_montgomery_reduce.o)
pstm_copy                                         ../../crypto/libcrypt_s.a(pstm.o)
                                                  ../../crypto/libcrypt_s.a(ecc_math.o)
                                                  ../../crypto/libcrypt_s.a(ecc_pub.o)
pstm_count_bits                                   ../../crypto/libcrypt_s.a(pstm.o)
                                                  ../../crypto/libcrypt_s.a(ecc_priv.o)
                                                  ../../crypto/libcrypt_s.a(dh_gen_secret.o)
                                                  ../../crypto/libcrypt_s.a(dh_gen_key.o)
pstm_div                                          ../../crypto/libcrypt_s.a(pstm.o)
pstm_div_2                                        ../../crypto/libcrypt_s.a(pstm.o)
                                                  ../../crypto/libcrypt_s.a(ecc_math.o)
pstm_div_2d                                       ../../crypto/libcrypt_s.a(pstm.o)
pstm_exch                                         ../../crypto/libcrypt_s.a(pstm.o)
pstm_exptmod                                      ../../crypto/libcrypt_s.a(pstm.o)
                                                  ../../crypto/libcrypt_s.a(rsa.o)
                                                  ../../crypto/libcrypt_s.a(dh_gen_secret.o)
                                                  ../../crypto/libcrypt_s.a(dh_gen_key.o)
pstm_grow                                         ../../crypto/libcrypt_s.a(pstm.o)
                                                  ../../crypto/libcrypt_s.a(pstm_sqr_comba.o)
                                                  ../../crypto/libcrypt_s.a(pstm_mul_comba.o)
pstm_init                                         ../../crypto/libcrypt_s.a(pstm.o)
                                                  ../../crypto/libcrypt_s.a(ecc_math.o)
                                                  ../../crypto/libcrypt_s.a(dh_gen_secret.o)
pstm_init_copy                                    ../../crypto/libcrypt_s.a(pstm.o)
                                                  ../../crypto/libcrypt_s.a(rsa.o)
                                                  ../../crypto/libcrypt_s.a(ecc.o)
pstm_init_for_read_unsigned_bin                   ../../crypto/libcrypt_s.a(pstm.o)
                                                  ../../crypto/libcrypt_s.a(rsa.o)
                                                  ../../crypto/libcrypt_s.a(ecc_import.o)
                                                  ../../crypto/libcrypt_s.a(ecc_parse_mem.o)
                                                  ../../crypto/libcrypt_s.a(ecc_gen_shared.o)
                                                  ../../crypto/libcrypt_s.a(ecc_keygen.o)
                                                  ../../crypto/libcrypt_s.a(ecc_pub.o)
                                                  ../../crypto/libcrypt_s.a(ecc_priv.o)
                                                  ../../crypto/libcrypt_s.a(dh_gen_secret.o)
                                                  ../../crypto/libcrypt_s.a(dh_gen_key.o)
                                                  ../../crypto/libcrypt_s.a(dh_import.o)
                                                  ../../crypto/libcrypt_s.a(pkcs.o)
pstm_init_size                                    ../../crypto/libcrypt_s.a(pstm.o)
                                                  ../../crypto/libcrypt_s.a(ecc_math.o)
                                                  ../../crypto/libcrypt_s.a(rsa.o)
                                                  ../../crypto/libcrypt_s.a(ecc_import.o)
                                                  ../../crypto/libcrypt_s.a(ecc_keygen.o)
                                                  ../../crypto/libcrypt_s.a(ecc_pub.o)
                                                  ../../crypto/libcrypt_s.a(ecc_priv.o)
                                                  ../../crypto/libcrypt_s.a(dh_gen_key.o)
                                                  ../../crypto/libcrypt_s.a(dh_params.o)
pstm_invmod                                       ../../crypto/libcrypt_s.a(pstm.o)
                                                  ../../crypto/libcrypt_s.a(ecc_math.o)
                                                  ../../crypto/libcrypt_s.a(ecc_pub.o)
                                                  ../../crypto/libcrypt_s.a(ecc_priv.o)
pstm_lshd                                         ../../crypto/libcrypt_s.a(pstm.o)
pstm_mod                                          ../../crypto/libcrypt_s.a(pstm.o)
                                                  ../../crypto/libcrypt_s.a(ecc_math.o)
                                                  ../../crypto/libcrypt_s.a(ecc_pub.o)
                                                  ../../crypto/libcrypt_s.a(ecc_priv.o)
pstm_montgomery_calc_normalization                ../../crypto/libcrypt_s.a(pstm.o)
                                                  ../../crypto/libcrypt_s.a(ecc_math.o)
pstm_montgomery_reduce                            ../../crypto/libcrypt_s.a(pstm_montgomery_reduce.o)
                                                  ../../crypto/libcrypt_s.a(ecc_math.o)
pstm_montgomery_setup                             ../../crypto/libcrypt_s.a(pstm.o)
                                                  ../../crypto/libcrypt_s.a(ecc_math.o)
                                                  ../../crypto/libcrypt_s.a(ecc_pub.o)
pstm_mul_2                                        ../../crypto/libcrypt_s.a(pstm.o)
pstm_mul_comba                                    ../../crypto/libcrypt_s.a(pstm_mul_comba.o)
                                                  ../../crypto/libcrypt_s.a(ecc_math.o)
                                                  ../../crypto/libcrypt_s.a(rsa.o)
                                                  ../../crypto/libcrypt_s.a(pstmnt.o)
                                                  ../../crypto/libcrypt_s.a(pstm.o)
pstm_mul_d                                        ../../crypto/libcrypt_s.a(pstm.o)
pstm_mulmod                                       ../../crypto/libcrypt_s.a(pstm.o)
                                                  ../../crypto/libcrypt_s.a(ecc_math.o)
                                                  ../../crypto/libcrypt_s.a(rsa.o)
                                                  ../../crypto/libcrypt_s.a(ecc_pub.o)
                                                  ../../crypto/libcrypt_s.a(ecc_priv.o)
pstm_read_asn                                     ../../crypto/libcrypt_s.a(pstm.o)
                                                  ../../crypto/libcrypt_s.a(rsa_parse_mem.o)
                                                  ../../crypto/libcrypt_s.a(ecc_pub.o)
                                                  ../../crypto/libcrypt_s.a(dh_params.o)
pstm_read_radix                                   ../../crypto/libcrypt_s.a(pstm.o)
                                                  ../../crypto/libcrypt_s.a(ecc_import.o)
                                                  ../../crypto/libcrypt_s.a(ecc_gen_shared.o)
                                                  ../../crypto/libcrypt_s.a(ecc_keygen.o)
                                                  ../../crypto/libcrypt_s.a(ecc_pub.o)
                                                  ../../crypto/libcrypt_s.a(ecc_priv.o)
pstm_read_unsigned_bin                            ../../crypto/libcrypt_s.a(pstm.o)
                                                  ../../crypto/libcrypt_s.a(rsa.o)
                                                  ../../crypto/libcrypt_s.a(ecc_import.o)
                                                  ../../crypto/libcrypt_s.a(ecc_parse_mem.o)
                                                  ../../crypto/libcrypt_s.a(ecc_keygen.o)
                                                  ../../crypto/libcrypt_s.a(ecc_pub.o)
                                                  ../../crypto/libcrypt_s.a(ecc_priv.o)
                                                  ../../crypto/libcrypt_s.a(dh_gen_secret.o)
                                                  ../../crypto/libcrypt_s.a(dh_gen_key.o)
                                                  ../../crypto/libcrypt_s.a(dh_import.o)
                                                  ../../crypto/libcrypt_s.a(pkcs.o)
pstm_rshd                                         ../../crypto/libcrypt_s.a(pstm.o)
pstm_set                                          ../../crypto/libcrypt_s.a(pstm.o)
                                                  ../../crypto/libcrypt_s.a(ecc_math.o)
                                                  ../../crypto/libcrypt_s.a(ecc_import.o)
                                                  ../../crypto/libcrypt_s.a(ecc_keygen.o)
                                                  ../../crypto/libcrypt_s.a(ecc_pub.o)
                                                  ../../crypto/libcrypt_s.a(pkcs.o)
pstm_sqr_comba                                    ../../crypto/libcrypt_s.a(pstm_sqr_comba.o)
                                                  ../../crypto/libcrypt_s.a(ecc_math.o)
                                                  ../../crypto/libcrypt_s.a(pstmnt.o)
pstm_sub                                          ../../crypto/libcrypt_s.a(pstm.o)
                                                  ../../crypto/libcrypt_s.a(ecc_math.o)
                                                  ../../crypto/libcrypt_s.a(rsa.o)
pstm_sub_d                                        ../../crypto/libcrypt_s.a(pstm.o)
pstm_sub_s                                        ../../crypto/libcrypt_s.a(pstm.o)
                                                  ../../crypto/libcrypt_s.a(pstm_montgomery_reduce.o)
pstm_to_unsigned_bin                              ../../crypto/libcrypt_s.a(pstm.o)
                                                  ../../crypto/libcrypt_s.a(rsa.o)
                                                  ../../crypto/libcrypt_s.a(ecc_export.o)
                                                  ../../crypto/libcrypt_s.a(ecc_gen_shared.o)
                                                  ../../crypto/libcrypt_s.a(ecc_priv.o)
                                                  ../../crypto/libcrypt_s.a(dh_gen_secret.o)
                                                  ../../crypto/libcrypt_s.a(dh_export.o)
                                                  ../../crypto/libcrypt_s.a(dh_params.o)
                                                  ../../crypto/libcrypt_s.a(pkcs.o)
pstm_to_unsigned_bin_alloc                        ../../crypto/libcrypt_s.a(pstm.o)
                                                  ../../crypto/libcrypt_s.a(dh_gen_secret.o)
pstm_to_unsigned_bin_nr                           ../../crypto/libcrypt_s.a(pstm.o)
pstm_unsigned_bin_size                            ../../crypto/libcrypt_s.a(pstm.o)
                                                  ../../crypto/libcrypt_s.a(rsa_parse_mem.o)
                                                  ../../crypto/libcrypt_s.a(rsa.o)
                                                  ../../crypto/libcrypt_s.a(ecc_export.o)
                                                  ../../crypto/libcrypt_s.a(ecc_gen_shared.o)
                                                  ../../crypto/libcrypt_s.a(ecc_priv.o)
                                                  ../../crypto/libcrypt_s.a(dh_gen_secret.o)
                                                  ../../crypto/libcrypt_s.a(dh_export.o)
                                                  ../../crypto/libcrypt_s.a(dh_params.o)
                                                  ../../crypto/libcrypt_s.a(pkcs.o)
pstm_unsigned_bin_size_nullsafe                   ../../crypto/libcrypt_s.a(pstm.o)
pstm_zero                                         ../../crypto/libcrypt_s.a(pstm.o)
pstmnt_add                                        ../../crypto/libcrypt_s.a(pstmnt.o)
pstmnt_add_mask                                   ../../crypto/libcrypt_s.a(pstmnt.o)
pstmnt_cmp_sub_mod_carry                          ../../crypto/libcrypt_s.a(pstmnt.o)
pstmnt_mod_exp_montgomery_skip                    ../../crypto/libcrypt_s.a(pstmnt.o)
                                                  ../../crypto/libcrypt_s.a(pstm.o)
pstmnt_mod_exp_montgomery_skipF                   ../../crypto/libcrypt_s.a(pstmnt.o)
pstmnt_montgomery_input                           ../../crypto/libcrypt_s.a(pstmnt.o)
                                                  ../../crypto/libcrypt_s.a(pstm.o)
pstmnt_montgomery_output                          ../../crypto/libcrypt_s.a(pstmnt.o)
                                                  ../../crypto/libcrypt_s.a(pstm.o)
pstmnt_montgomery_reduce                          ../../crypto/libcrypt_s.a(pstmnt.o)
pstmnt_montgomery_reduce_d                        ../../crypto/libcrypt_s.a(pstmnt.o)
pstmnt_montgomery_step                            ../../crypto/libcrypt_s.a(pstmnt.o)
pstmnt_mult                                       ../../crypto/libcrypt_s.a(pstmnt.o)
pstmnt_mult_d                                     ../../crypto/libcrypt_s.a(pstmnt.o)
pstmnt_neg_small_inv                              ../../crypto/libcrypt_s.a(pstmnt.o)
                                                  ../../crypto/libcrypt_s.a(pstm.o)
pstmnt_select_mask                                ../../crypto/libcrypt_s.a(pstmnt.o)
pstmnt_square                                     ../../crypto/libcrypt_s.a(pstmnt.o)
pstmnt_square_d                                   ../../crypto/libcrypt_s.a(pstmnt.o)
pstmnt_sub                                        ../../crypto/libcrypt_s.a(pstmnt.o)
pstmnt_sub_mask                                   ../../crypto/libcrypt_s.a(pstmnt.o)
pthread_barrier_init                              /usr/lib/gcc/x86_64-linux-gnu/11/../../../x86_64-linux-gnu/libpthread.so
pthread_barrier_init@@GLIBC_2.2.5                 /usr/lib/gcc/x86_64-linux-gnu/11/../../../x86_64-linux-gnu/libpthread.so
pthread_barrier_init@GLIBC_2.2.5                  /usr/lib/gcc/x86_64-linux-gnu/11/../../../x86_64-linux-gnu/libpthread.so
pthread_barrier_wait                              /usr/lib/gcc/x86_64-linux-gnu/11/../../../x86_64-linux-gnu/libpthread.so
pthread_barrier_wait@@GLIBC_2.2.5                 /usr/lib/gcc/x86_64-linux-gnu/11/../../../x86_64-linux-gnu/libpthread.so
pthread_barrier_wait@GLIBC_2.2.5                  /usr/lib/gcc/x86_64-linux-gnu/11/../../../x86_64-linux-gnu/libpthread.so
pthread_cancel                                    /usr/lib/gcc/x86_64-linux-gnu/11/../../../x86_64-linux-gnu/libpthread.so
pthread_cancel@@GLIBC_2.2.5                       /usr/lib/gcc/x86_64-linux-gnu/11/../../../x86_64-linux-gnu/libpthread.so
pthread_cancel@GLIBC_2.2.5                        /usr/lib/gcc/x86_64-linux-gnu/11/../../../x86_64-linux-gnu/libpthread.so
pthread_clockjoin_np                              /usr/lib/gcc/x86_64-linux-gnu/11/../../../x86_64-linux-gnu/libpthread.so
pthread_clockjoin_np@@GLIBC_2.31                  /usr/lib/gcc/x86_64-linux-gnu/11/../../../x86_64-linux-gnu/libpthread.so
pthread_clockjoin_np@GLIBC_2.31                   /usr/lib/gcc/x86_64-linux-gnu/11/../../../x86_64-linux-gnu/libpthread.so
pthread_cond_clockwait                            /usr/lib/gcc/x86_64-linux-gnu/11/../../../x86_64-linux-gnu/libpthread.so
pthread_cond_clockwait@@GLIBC_2.30                /usr/lib/gcc/x86_64-linux-gnu/11/../../../x86_64-linux-gnu/libpthread.so
pthread_cond_clockwait@GLIBC_2.30                 /usr/lib/gcc/x86_64-linux-gnu/11/../../../x86_64-linux-gnu/libpthread.so
pthread_create                                    /usr/lib/gcc/x86_64-linux-gnu/11/../../../x86_64-linux-gnu/libpthread.so
                                                  sslTest.o
pthread_create@@GLIBC_2.2.5                       /usr/lib/gcc/x86_64-linux-gnu/11/../../../x86_64-linux-gnu/libpthread.so
pthread_create@GLIBC_2.2.5                        /usr/lib/gcc/x86_64-linux-gnu/11/../../../x86_64-linux-gnu/libpthread.so
pthread_detach                                    /usr/lib/gcc/x86_64-linux-gnu/11/../../../x86_64-linux-gnu/libpthread.so
pthread_detach@@GLIBC_2.2.5                       /usr/lib/gcc/x86_64-linux-gnu/11/../../../x86_64-linux-gnu/libpthread.so
pthread_detach@GLIBC_2.2.5                        /usr/lib/gcc/x86_64-linux-gnu/11/../../../x86_64-linux-gnu/libpthread.so
pthread_equal                                     /lib/x86_64-linux-gnu/libc.so.6
pthread_equal@@GLIBC_2.2.5                        /lib/x86_64-linux-gnu/libc.so.6
pthread_equal@GLIBC_2.2.5                         /lib/x86_64-linux-gnu/libc.so.6
pthread_exit                                      /usr/lib/gcc/x86_64-linux-gnu/11/../../../x86_64-linux-gnu/libpthread.so
pthread_exit@@GLIBC_2.2.5                         /usr/lib/gcc/x86_64-linux-gnu/11/../../../x86_64-linux-gnu/libpthread.so
                                                  /lib/x86_64-linux-gnu/libc.so.6
pthread_exit@GLIBC_2.2.5                          /usr/lib/gcc/x86_64-linux-gnu/11/../../../x86_64-linux-gnu/libpthread.so
pthread_getspecific                               /usr/lib/gcc/x86_64-linux-gnu/11/../../../x86_64-linux-gnu/libpthread.so
pthread_getspecific@@GLIBC_2.2.5                  /usr/lib/gcc/x86_64-linux-gnu/11/../../../x86_64-linux-gnu/libpthread.so
pthread_getspecific@GLIBC_2.2.5                   /usr/lib/gcc/x86_64-linux-gnu/11/../../../x86_64-linux-gnu/libpthread.so
pthread_join                                      /usr/lib/gcc/x86_64-linux-gnu/11/../../../x86_64-linux-gnu/libpthread.so
                                                  sslTest.o
pthread_join@@GLIBC_2.2.5                         /usr/lib/gcc/x86_64-linux-gnu/11/../../../x86_64-linux-gnu/libpthread.so
pthread_join@GLIBC_2.2.5                          /usr/lib/gcc/x86_64-linux-gnu/11/../../../x86_64-linux-gnu/libpthread.so
pthread_key_create                                /usr/lib/gcc/x86_64-linux-gnu/11/../../../x86_64-linux-gnu/libpthread.so
pthread_key_create@@GLIBC_2.2.5                   /usr/lib/gcc/x86_64-linux-gnu/11/../../../x86_64-linux-gnu/libpthread.so
pthread_key_create@GLIBC_2.2.5                    /usr/lib/gcc/x86_64-linux-gnu/11/../../../x86_64-linux-gnu/libpthread.so
pthread_key_delete                                /usr/lib/gcc/x86_64-linux-gnu/11/../../../x86_64-linux-gnu/libpthread.so
pthread_key_delete@@GLIBC_2.2.5                   /usr/lib/gcc/x86_64-linux-gnu/11/../../../x86_64-linux-gnu/libpthread.so
pthread_key_delete@GLIBC_2.2.5                    /usr/lib/gcc/x86_64-linux-gnu/11/../../../x86_64-linux-gnu/libpthread.so
pthread_mutex_clocklock                           /usr/lib/gcc/x86_64-linux-gnu/11/../../../x86_64-linux-gnu/libpthread.so
pthread_mutex_clocklock@@GLIBC_2.30               /usr/lib/gcc/x86_64-linux-gnu/11/../../../x86_64-linux-gnu/libpthread.so
pthread_mutex_clocklock@GLIBC_2.30                /usr/lib/gcc/x86_64-linux-gnu/11/../../../x86_64-linux-gnu/libpthread.so
pthread_mutex_consistent_np                       /usr/lib/gcc/x86_64-linux-gnu/11/../../../x86_64-linux-gnu/libpthread.so
pthread_mutex_consistent_np@@GLIBC_2.4            /usr/lib/gcc/x86_64-linux-gnu/11/../../../x86_64-linux-gnu/libpthread.so
pthread_mutex_consistent_np@GLIBC_2.4             /usr/lib/gcc/x86_64-linux-gnu/11/../../../x86_64-linux-gnu/libpthread.so
pthread_mutex_destroy                             /usr/lib/gcc/x86_64-linux-gnu/11/../../../x86_64-linux-gnu/libpthread.so
                                                  ../../core/libcore_s.a(osdep.o)
pthread_mutex_destroy@@GLIBC_2.2.5                /usr/lib/gcc/x86_64-linux-gnu/11/../../../x86_64-linux-gnu/libpthread.so
                                                  /lib/x86_64-linux-gnu/libc.so.6
pthread_mutex_destroy@GLIBC_2.2.5                 /usr/lib/gcc/x86_64-linux-gnu/11/../../../x86_64-linux-gnu/libpthread.so
pthread_mutex_init                                /usr/lib/gcc/x86_64-linux-gnu/11/../../../x86_64-linux-gnu/libpthread.so
                                                  ../../core/libcore_s.a(osdep.o)
pthread_mutex_init@@GLIBC_2.2.5                   /usr/lib/gcc/x86_64-linux-gnu/11/../../../x86_64-linux-gnu/libpthread.so
                                                  /lib/x86_64-linux-gnu/libc.so.6
pthread_mutex_init@GLIBC_2.2.5                    /usr/lib/gcc/x86_64-linux-gnu/11/../../../x86_64-linux-gnu/libpthread.so
pthread_mutex_lock                                /usr/lib/gcc/x86_64-linux-gnu/11/../../../x86_64-linux-gnu/libpthread.so
                                                  ../../core/libcore_s.a(osdep.o)
pthread_mutex_lock@@GLIBC_2.2.5                   /usr/lib/gcc/x86_64-linux-gnu/11/../../../x86_64-linux-gnu/libpthread.so
                                                  /lib/x86_64-linux-gnu/libc.so.6
pthread_mutex_lock@GLIBC_2.2.5                    /usr/lib/gcc/x86_64-linux-gnu/11/../../../x86_64-linux-gnu/libpthread.so
pthread_mutex_timedlock                           /usr/lib/gcc/x86_64-linux-gnu/11/../../../x86_64-linux-gnu/libpthread.so
pthread_mutex_timedlock@@GLIBC_2.2.5              /usr/lib/gcc/x86_64-linux-gnu/11/../../../x86_64-linux-gnu/libpthread.so
pthread_mutex_timedlock@GLIBC_2.2.5               /usr/lib/gcc/x86_64-linux-gnu/11/../../../x86_64-linux-gnu/libpthread.so
pthread_mutex_trylock                             /usr/lib/gcc/x86_64-linux-gnu/11/../../../x86_64-linux-gnu/libpthread.so
pthread_mutex_trylock@@GLIBC_2.2.5                /usr/lib/gcc/x86_64-linux-gnu/11/../../../x86_64-linux-gnu/libpthread.so
pthread_mutex_trylock@GLIBC_2.2.5                 /usr/lib/gcc/x86_64-linux-gnu/11/../../../x86_64-linux-gnu/libpthread.so
pthread_mutex_unlock                              /usr/lib/gcc/x86_64-linux-gnu/11/../../../x86_64-linux-gnu/libpthread.so
                                                  ../../core/libcore_s.a(osdep.o)
pthread_mutex_unlock@@GLIBC_2.2.5                 /usr/lib/gcc/x86_64-linux-gnu/11/../../../x86_64-linux-gnu/libpthread.so
                                                  /lib/x86_64-linux-gnu/libc.so.6
pthread_mutex_unlock@GLIBC_2.2.5                  /usr/lib/gcc/x86_64-linux-gnu/11/../../../x86_64-linux-gnu/libpthread.so
pthread_mutexattr_destroy                         /usr/lib/gcc/x86_64-linux-gnu/11/../../../x86_64-linux-gnu/libpthread.so
                                                  ../../core/libcore_s.a(osdep.o)
pthread_mutexattr_destroy@@GLIBC_2.2.5            /usr/lib/gcc/x86_64-linux-gnu/11/../../../x86_64-linux-gnu/libpthread.so
pthread_mutexattr_destroy@GLIBC_2.2.5             /usr/lib/gcc/x86_64-linux-gnu/11/../../../x86_64-linux-gnu/libpthread.so
pthread_mutexattr_getkind_np                      /usr/lib/gcc/x86_64-linux-gnu/11/../../../x86_64-linux-gnu/libpthread.so
pthread_mutexattr_getkind_np@@GLIBC_2.2.5         /usr/lib/gcc/x86_64-linux-gnu/11/../../../x86_64-linux-gnu/libpthread.so
pthread_mutexattr_getkind_np@GLIBC_2.2.5          /usr/lib/gcc/x86_64-linux-gnu/11/../../../x86_64-linux-gnu/libpthread.so
pthread_mutexattr_getrobust_np                    /usr/lib/gcc/x86_64-linux-gnu/11/../../../x86_64-linux-gnu/libpthread.so
pthread_mutexattr_getrobust_np@@GLIBC_2.4         /usr/lib/gcc/x86_64-linux-gnu/11/../../../x86_64-linux-gnu/libpthread.so
pthread_mutexattr_getrobust_np@GLIBC_2.4          /usr/lib/gcc/x86_64-linux-gnu/11/../../../x86_64-linux-gnu/libpthread.so
pthread_mutexattr_init                            /usr/lib/gcc/x86_64-linux-gnu/11/../../../x86_64-linux-gnu/libpthread.so
                                                  ../../core/libcore_s.a(osdep.o)
pthread_mutexattr_init@@GLIBC_2.2.5               /usr/lib/gcc/x86_64-linux-gnu/11/../../../x86_64-linux-gnu/libpthread.so
pthread_mutexattr_init@GLIBC_2.2.5                /usr/lib/gcc/x86_64-linux-gnu/11/../../../x86_64-linux-gnu/libpthread.so
pthread_mutexattr_setkind_np                      /usr/lib/gcc/x86_64-linux-gnu/11/../../../x86_64-linux-gnu/libpthread.so
pthread_mutexattr_setkind_np@@GLIBC_2.2.5         /usr/lib/gcc/x86_64-linux-gnu/11/../../../x86_64-linux-gnu/libpthread.so
pthread_mutexattr_setkind_np@GLIBC_2.2.5          /usr/lib/gcc/x86_64-linux-gnu/11/../../../x86_64-linux-gnu/libpthread.so
pthread_mutexattr_setpshared                      /usr/lib/gcc/x86_64-linux-gnu/11/../../../x86_64-linux-gnu/libpthread.so
                                                  ../../core/libcore_s.a(osdep.o)
pthread_mutexattr_setpshared@@GLIBC_2.2.5         /usr/lib/gcc/x86_64-linux-gnu/11/../../../x86_64-linux-gnu/libpthread.so
pthread_mutexattr_setpshared@GLIBC_2.2.5          /usr/lib/gcc/x86_64-linux-gnu/11/../../../x86_64-linux-gnu/libpthread.so
pthread_mutexattr_setrobust_np                    /usr/lib/gcc/x86_64-linux-gnu/11/../../../x86_64-linux-gnu/libpthread.so
pthread_mutexattr_setrobust_np@@GLIBC_2.4         /usr/lib/gcc/x86_64-linux-gnu/11/../../../x86_64-linux-gnu/libpthread.so
pthread_mutexattr_setrobust_np@GLIBC_2.4          /usr/lib/gcc/x86_64-linux-gnu/11/../../../x86_64-linux-gnu/libpthread.so
pthread_mutexattr_settype                         /usr/lib/gcc/x86_64-linux-gnu/11/../../../x86_64-linux-gnu/libpthread.so
pthread_mutexattr_settype@@GLIBC_2.2.5            /usr/lib/gcc/x86_64-linux-gnu/11/../../../x86_64-linux-gnu/libpthread.so
pthread_mutexattr_settype@GLIBC_2.2.5             /usr/lib/gcc/x86_64-linux-gnu/11/../../../x86_64-linux-gnu/libpthread.so
pthread_once                                      /usr/lib/gcc/x86_64-linux-gnu/11/../../../x86_64-linux-gnu/libpthread.so
pthread_once@@GLIBC_2.2.5                         /usr/lib/gcc/x86_64-linux-gnu/11/../../../x86_64-linux-gnu/libpthread.so
pthread_once@GLIBC_2.2.5                          /usr/lib/gcc/x86_64-linux-gnu/11/../../../x86_64-linux-gnu/libpthread.so
pthread_rwlock_rdlock                             /usr/lib/gcc/x86_64-linux-gnu/11/../../../x86_64-linux-gnu/libpthread.so
pthread_rwlock_rdlock@@GLIBC_2.2.5                /usr/lib/gcc/x86_64-linux-gnu/11/../../../x86_64-linux-gnu/libpthread.so
pthread_rwlock_rdlock@GLIBC_2.2.5                 /usr/lib/gcc/x86_64-linux-gnu/11/../../../x86_64-linux-gnu/libpthread.so
pthread_rwlock_unlock                             /usr/lib/gcc/x86_64-linux-gnu/11/../../../x86_64-linux-gnu/libpthread.so
pthread_rwlock_unlock@@GLIBC_2.2.5                /usr/lib/gcc/x86_64-linux-gnu/11/../../../x86_64-linux-gnu/libpthread.so
pthread_rwlock_unlock@GLIBC_2.2.5                 /usr/lib/gcc/x86_64-linux-gnu/11/../../../x86_64-linux-gnu/libpthread.so
pthread_rwlock_wrlock                             /usr/lib/gcc/x86_64-linux-gnu/11/../../../x86_64-linux-gnu/libpthread.so
pthread_rwlock_wrlock@@GLIBC_2.2.5                /usr/lib/gcc/x86_64-linux-gnu/11/../../../x86_64-linux-gnu/libpthread.so
pthread_rwlock_wrlock@GLIBC_2.2.5                 /usr/lib/gcc/x86_64-linux-gnu/11/../../../x86_64-linux-gnu/libpthread.so
pthread_setspecific                               /usr/lib/gcc/x86_64-linux-gnu/11/../../../x86_64-linux-gnu/libpthread.so
pthread_setspecific@@GLIBC_2.2.5                  /usr/lib/gcc/x86_64-linux-gnu/11/../../../x86_64-linux-gnu/libpthread.so
pthread_setspecific@GLIBC_2.2.5                   /usr/lib/gcc/x86_64-linux-gnu/11/../../../x86_64-linux-gnu/libpthread.so
pthread_timedjoin_np                              /usr/lib/gcc/x86_64-linux-gnu/11/../../../x86_64-linux-gnu/libpthread.so
pthread_timedjoin_np@@GLIBC_2.3.3                 /usr/lib/gcc/x86_64-linux-gnu/11/../../../x86_64-linux-gnu/libpthread.so
pthread_timedjoin_np@GLIBC_2.3.3                  /usr/lib/gcc/x86_64-linux-gnu/11/../../../x86_64-linux-gnu/libpthread.so
ptsname_r                                         /lib/x86_64-linux-gnu/libc.so.6
ptsname_r@@GLIBC_2.2.5                            /lib/x86_64-linux-gnu/libc.so.6
ptsname_r@GLIBC_2.2.5                             /lib/x86_64-linux-gnu/libc.so.6
pubRsaDecryptSignedElement                        ../../crypto/libcrypt_s.a(rsa_pub.o)
                                                  ../../crypto/libcrypt_s.a(x509.o)
                                                  ../libssl_s.a(hsDecode.o)
pubRsaDecryptSignedElementExt                     ../../crypto/libcrypt_s.a(rsa_pub.o)
                                                  ../../crypto/libcrypt_s.a(pubkey_verify.o)
putc                                              /lib/x86_64-linux-gnu/libc.so.6
putc@@GLIBC_2.2.5                                 /lib/x86_64-linux-gnu/libc.so.6
putc@GLIBC_2.2.5                                  /lib/x86_64-linux-gnu/libc.so.6
putc_unlocked                                     /lib/x86_64-linux-gnu/libc.so.6
putc_unlocked@@GLIBC_2.2.5                        /lib/x86_64-linux-gnu/libc.so.6
putc_unlocked@GLIBC_2.2.5                         /lib/x86_64-linux-gnu/libc.so.6
putchar                                           /lib/x86_64-linux-gnu/libc.so.6
                                                  sslTest.o
putchar@@GLIBC_2.2.5                              /lib/x86_64-linux-gnu/libc.so.6
putchar@GLIBC_2.2.5                               /lib/x86_64-linux-gnu/libc.so.6
puts                                              /lib/x86_64-linux-gnu/libc.so.6
                                                  sslTest.o
puts@@GLIBC_2.2.5                                 /lib/x86_64-linux-gnu/libc.so.6
puts@GLIBC_2.2.5                                  /lib/x86_64-linux-gnu/libc.so.6
pututline                                         /lib/x86_64-linux-gnu/libc.so.6
pututline@@GLIBC_2.2.5                            /lib/x86_64-linux-gnu/libc.so.6
pututline@GLIBC_2.2.5                             /lib/x86_64-linux-gnu/libc.so.6
pvalloc                                           /lib/x86_64-linux-gnu/libc.so.6
pvalloc@@GLIBC_2.2.5                              /lib/x86_64-linux-gnu/libc.so.6
pvalloc@GLIBC_2.2.5                               /lib/x86_64-linux-gnu/libc.so.6
pwrite                                            /usr/lib/gcc/x86_64-linux-gnu/11/../../../x86_64-linux-gnu/libpthread.so
pwrite64                                          /usr/lib/gcc/x86_64-linux-gnu/11/../../../x86_64-linux-gnu/libpthread.so
pwrite64@@GLIBC_2.2.5                             /usr/lib/gcc/x86_64-linux-gnu/11/../../../x86_64-linux-gnu/libpthread.so
                                                  /lib/x86_64-linux-gnu/libc.so.6
pwrite64@GLIBC_2.2.5                              /usr/lib/gcc/x86_64-linux-gnu/11/../../../x86_64-linux-gnu/libpthread.so
pwrite@@GLIBC_2.2.5                               /usr/lib/gcc/x86_64-linux-gnu/11/../../../x86_64-linux-gnu/libpthread.so
                                                  /lib/x86_64-linux-gnu/libc.so.6
pwrite@GLIBC_2.2.5                                /usr/lib/gcc/x86_64-linux-gnu/11/../../../x86_64-linux-gnu/libpthread.so
qecvt_r                                           /lib/x86_64-linux-gnu/libc.so.6
qecvt_r@@GLIBC_2.2.5                              /lib/x86_64-linux-gnu/libc.so.6
qecvt_r@GLIBC_2.2.5                               /lib/x86_64-linux-gnu/libc.so.6
qfcvt_r                                           /lib/x86_64-linux-gnu/libc.so.6
qfcvt_r@@GLIBC_2.2.5                              /lib/x86_64-linux-gnu/libc.so.6
qfcvt_r@GLIBC_2.2.5                               /lib/x86_64-linux-gnu/libc.so.6
qsort_r                                           /lib/x86_64-linux-gnu/libc.so.6
qsort_r@@GLIBC_2.8                                /lib/x86_64-linux-gnu/libc.so.6
qsort_r@GLIBC_2.8                                 /lib/x86_64-linux-gnu/libc.so.6
random                                            /lib/x86_64-linux-gnu/libc.so.6
random@@GLIBC_2.2.5                               /lib/x86_64-linux-gnu/libc.so.6
random@GLIBC_2.2.5                                /lib/x86_64-linux-gnu/libc.so.6
random_r                                          /lib/x86_64-linux-gnu/libc.so.6
random_r@@GLIBC_2.2.5                             /lib/x86_64-linux-gnu/libc.so.6
random_r@GLIBC_2.2.5                              /lib/x86_64-linux-gnu/libc.so.6
rawmemchr                                         /lib/x86_64-linux-gnu/libc.so.6
rawmemchr@@GLIBC_2.2.5                            /lib/x86_64-linux-gnu/libc.so.6
rawmemchr@GLIBC_2.2.5                             /lib/x86_64-linux-gnu/libc.so.6
re_comp                                           /lib/x86_64-linux-gnu/libc.so.6
re_comp@@GLIBC_2.2.5                              /lib/x86_64-linux-gnu/libc.so.6
re_comp@GLIBC_2.2.5                               /lib/x86_64-linux-gnu/libc.so.6
re_compile_fastmap                                /lib/x86_64-linux-gnu/libc.so.6
re_compile_fastmap@@GLIBC_2.2.5                   /lib/x86_64-linux-gnu/libc.so.6
re_compile_fastmap@GLIBC_2.2.5                    /lib/x86_64-linux-gnu/libc.so.6
re_compile_pattern                                /lib/x86_64-linux-gnu/libc.so.6
re_compile_pattern@@GLIBC_2.2.5                   /lib/x86_64-linux-gnu/libc.so.6
re_compile_pattern@GLIBC_2.2.5                    /lib/x86_64-linux-gnu/libc.so.6
re_exec                                           /lib/x86_64-linux-gnu/libc.so.6
re_exec@@GLIBC_2.2.5                              /lib/x86_64-linux-gnu/libc.so.6
re_exec@GLIBC_2.2.5                               /lib/x86_64-linux-gnu/libc.so.6
re_match                                          /lib/x86_64-linux-gnu/libc.so.6
re_match@@GLIBC_2.2.5                             /lib/x86_64-linux-gnu/libc.so.6
re_match@GLIBC_2.2.5                              /lib/x86_64-linux-gnu/libc.so.6
re_match_2                                        /lib/x86_64-linux-gnu/libc.so.6
re_match_2@@GLIBC_2.2.5                           /lib/x86_64-linux-gnu/libc.so.6
re_match_2@GLIBC_2.2.5                            /lib/x86_64-linux-gnu/libc.so.6
re_search                                         /lib/x86_64-linux-gnu/libc.so.6
re_search@@GLIBC_2.2.5                            /lib/x86_64-linux-gnu/libc.so.6
re_search@GLIBC_2.2.5                             /lib/x86_64-linux-gnu/libc.so.6
re_search_2                                       /lib/x86_64-linux-gnu/libc.so.6
re_search_2@@GLIBC_2.2.5                          /lib/x86_64-linux-gnu/libc.so.6
re_search_2@GLIBC_2.2.5                           /lib/x86_64-linux-gnu/libc.so.6
re_set_registers                                  /lib/x86_64-linux-gnu/libc.so.6
re_set_registers@@GLIBC_2.2.5                     /lib/x86_64-linux-gnu/libc.so.6
re_set_registers@GLIBC_2.2.5                      /lib/x86_64-linux-gnu/libc.so.6
re_set_syntax                                     /lib/x86_64-linux-gnu/libc.so.6
re_set_syntax@@GLIBC_2.2.5                        /lib/x86_64-linux-gnu/libc.so.6
re_set_syntax@GLIBC_2.2.5                         /lib/x86_64-linux-gnu/libc.so.6
read                                              /usr/lib/gcc/x86_64-linux-gnu/11/../../../x86_64-linux-gnu/libpthread.so
                                                  ../../core/libcore_s.a(osdep.o)
read@@GLIBC_2.2.5                                 /usr/lib/gcc/x86_64-linux-gnu/11/../../../x86_64-linux-gnu/libpthread.so
                                                  /lib/x86_64-linux-gnu/libc.so.6
read@GLIBC_2.2.5                                  /usr/lib/gcc/x86_64-linux-gnu/11/../../../x86_64-linux-gnu/libpthread.so
readahead                                         /lib/x86_64-linux-gnu/libc.so.6
readahead@@GLIBC_2.3                              /lib/x86_64-linux-gnu/libc.so.6
readahead@GLIBC_2.3                               /lib/x86_64-linux-gnu/libc.so.6
readdir                                           /lib/x86_64-linux-gnu/libc.so.6
readdir64                                         /lib/x86_64-linux-gnu/libc.so.6
readdir64@@GLIBC_2.2.5                            /lib/x86_64-linux-gnu/libc.so.6
readdir64@GLIBC_2.2.5                             /lib/x86_64-linux-gnu/libc.so.6
readdir64_r                                       /lib/x86_64-linux-gnu/libc.so.6
readdir64_r@@GLIBC_2.2.5                          /lib/x86_64-linux-gnu/libc.so.6
readdir64_r@GLIBC_2.2.5                           /lib/x86_64-linux-gnu/libc.so.6
readdir@@GLIBC_2.2.5                              /lib/x86_64-linux-gnu/libc.so.6
readdir@GLIBC_2.2.5                               /lib/x86_64-linux-gnu/libc.so.6
readdir_r                                         /lib/x86_64-linux-gnu/libc.so.6
readdir_r@@GLIBC_2.2.5                            /lib/x86_64-linux-gnu/libc.so.6
readdir_r@GLIBC_2.2.5                             /lib/x86_64-linux-gnu/libc.so.6
readlink                                          /lib/x86_64-linux-gnu/libc.so.6
readlink@@GLIBC_2.2.5                             /lib/x86_64-linux-gnu/libc.so.6
readlink@GLIBC_2.2.5                              /lib/x86_64-linux-gnu/libc.so.6
readv                                             /lib/x86_64-linux-gnu/libc.so.6
readv@@GLIBC_2.2.5                                /lib/x86_64-linux-gnu/libc.so.6
readv@GLIBC_2.2.5                                 /lib/x86_64-linux-gnu/libc.so.6
realloc                                           /lib/x86_64-linux-gnu/libc.so.6
                                                  ../../crypto/libcrypt_s.a(pstm.o)
                                                  ../libssl_s.a(matrixsslApi.o)
realloc@@GLIBC_2.2.5                              /lib/x86_64-linux-gnu/libc.so.6
                                                  /lib/x86_64-linux-gnu/ld-linux-x86-64.so.2
realloc@GLIBC_2.2.5                               /lib/x86_64-linux-gnu/libc.so.6
                                                  /usr/lib/gcc/x86_64-linux-gnu/11/../../../x86_64-linux-gnu/libpthread.so
reallocarray                                      /lib/x86_64-linux-gnu/libc.so.6
reallocarray@@GLIBC_2.26                          /lib/x86_64-linux-gnu/libc.so.6
reallocarray@GLIBC_2.26                           /lib/x86_64-linux-gnu/libc.so.6
recv                                              /usr/lib/gcc/x86_64-linux-gnu/11/../../../x86_64-linux-gnu/libpthread.so
recv@@GLIBC_2.2.5                                 /usr/lib/gcc/x86_64-linux-gnu/11/../../../x86_64-linux-gnu/libpthread.so
                                                  /lib/x86_64-linux-gnu/libc.so.6
recv@GLIBC_2.2.5                                  /usr/lib/gcc/x86_64-linux-gnu/11/../../../x86_64-linux-gnu/libpthread.so
recvfrom                                          /usr/lib/gcc/x86_64-linux-gnu/11/../../../x86_64-linux-gnu/libpthread.so
recvfrom@@GLIBC_2.2.5                             /usr/lib/gcc/x86_64-linux-gnu/11/../../../x86_64-linux-gnu/libpthread.so
                                                  /lib/x86_64-linux-gnu/libc.so.6
recvfrom@GLIBC_2.2.5                              /usr/lib/gcc/x86_64-linux-gnu/11/../../../x86_64-linux-gnu/libpthread.so
recvmsg                                           /usr/lib/gcc/x86_64-linux-gnu/11/../../../x86_64-linux-gnu/libpthread.so
recvmsg@@GLIBC_2.2.5                              /usr/lib/gcc/x86_64-linux-gnu/11/../../../x86_64-linux-gnu/libpthread.so
                                                  /lib/x86_64-linux-gnu/libc.so.6
recvmsg@GLIBC_2.2.5                               /usr/lib/gcc/x86_64-linux-gnu/11/../../../x86_64-linux-gnu/libpthread.so
regcomp                                           /lib/x86_64-linux-gnu/libc.so.6
regcomp@@GLIBC_2.2.5                              /lib/x86_64-linux-gnu/libc.so.6
regcomp@GLIBC_2.2.5                               /lib/x86_64-linux-gnu/libc.so.6
regerror                                          /lib/x86_64-linux-gnu/libc.so.6
regerror@@GLIBC_2.2.5                             /lib/x86_64-linux-gnu/libc.so.6
regerror@GLIBC_2.2.5                              /lib/x86_64-linux-gnu/libc.so.6
regfree                                           /lib/x86_64-linux-gnu/libc.so.6
regfree@@GLIBC_2.2.5                              /lib/x86_64-linux-gnu/libc.so.6
regfree@GLIBC_2.2.5                               /lib/x86_64-linux-gnu/libc.so.6
register_printf_function                          /lib/x86_64-linux-gnu/libc.so.6
register_printf_function@@GLIBC_2.2.5             /lib/x86_64-linux-gnu/libc.so.6
register_printf_function@GLIBC_2.2.5              /lib/x86_64-linux-gnu/libc.so.6
register_printf_modifier                          /lib/x86_64-linux-gnu/libc.so.6
register_printf_modifier@@GLIBC_2.10              /lib/x86_64-linux-gnu/libc.so.6
register_printf_modifier@GLIBC_2.10               /lib/x86_64-linux-gnu/libc.so.6
register_printf_specifier                         /lib/x86_64-linux-gnu/libc.so.6
register_printf_specifier@@GLIBC_2.10             /lib/x86_64-linux-gnu/libc.so.6
register_printf_specifier@GLIBC_2.10              /lib/x86_64-linux-gnu/libc.so.6
register_printf_type                              /lib/x86_64-linux-gnu/libc.so.6
register_printf_type@@GLIBC_2.10                  /lib/x86_64-linux-gnu/libc.so.6
register_printf_type@GLIBC_2.10                   /lib/x86_64-linux-gnu/libc.so.6
remap_file_pages                                  /lib/x86_64-linux-gnu/libc.so.6
remap_file_pages@@GLIBC_2.3.3                     /lib/x86_64-linux-gnu/libc.so.6
remap_file_pages@GLIBC_2.3.3                      /lib/x86_64-linux-gnu/libc.so.6
renameat                                          /lib/x86_64-linux-gnu/libc.so.6
renameat2                                         /lib/x86_64-linux-gnu/libc.so.6
renameat2@@GLIBC_2.28                             /lib/x86_64-linux-gnu/libc.so.6
renameat2@GLIBC_2.28                              /lib/x86_64-linux-gnu/libc.so.6
renameat@@GLIBC_2.4                               /lib/x86_64-linux-gnu/libc.so.6
renameat@GLIBC_2.4                                /lib/x86_64-linux-gnu/libc.so.6
revoke                                            /lib/x86_64-linux-gnu/libc.so.6
revoke@@GLIBC_2.2.5                               /lib/x86_64-linux-gnu/libc.so.6
revoke@GLIBC_2.2.5                                /lib/x86_64-linux-gnu/libc.so.6
rewinddir                                         /lib/x86_64-linux-gnu/libc.so.6
rewinddir@@GLIBC_2.2.5                            /lib/x86_64-linux-gnu/libc.so.6
rewinddir@GLIBC_2.2.5                             /lib/x86_64-linux-gnu/libc.so.6
rindex                                            /lib/x86_64-linux-gnu/libc.so.6
rindex@@GLIBC_2.2.5                               /lib/x86_64-linux-gnu/libc.so.6
rindex@GLIBC_2.2.5                                /lib/x86_64-linux-gnu/libc.so.6
rmdir                                             /lib/x86_64-linux-gnu/libc.so.6
rmdir@@GLIBC_2.2.5                                /lib/x86_64-linux-gnu/libc.so.6
rmdir@GLIBC_2.2.5                                 /lib/x86_64-linux-gnu/libc.so.6
sbrk                                              /lib/x86_64-linux-gnu/libc.so.6
sbrk@@GLIBC_2.2.5                                 /lib/x86_64-linux-gnu/libc.so.6
sbrk@GLIBC_2.2.5                                  /lib/x86_64-linux-gnu/libc.so.6
scalbn                                            /lib/x86_64-linux-gnu/libc.so.6
scalbn@@GLIBC_2.2.5                               /lib/x86_64-linux-gnu/libc.so.6
scalbn@GLIBC_2.2.5                                /lib/x86_64-linux-gnu/libc.so.6
scalbnf                                           /lib/x86_64-linux-gnu/libc.so.6
scalbnf@@GLIBC_2.2.5                              /lib/x86_64-linux-gnu/libc.so.6
scalbnf@GLIBC_2.2.5                               /lib/x86_64-linux-gnu/libc.so.6
scalbnl                                           /lib/x86_64-linux-gnu/libc.so.6
scalbnl@@GLIBC_2.2.5                              /lib/x86_64-linux-gnu/libc.so.6
scalbnl@GLIBC_2.2.5                               /lib/x86_64-linux-gnu/libc.so.6
scandir                                           /lib/x86_64-linux-gnu/libc.so.6
scandir64                                         /lib/x86_64-linux-gnu/libc.so.6
scandir64@@GLIBC_2.2.5                            /lib/x86_64-linux-gnu/libc.so.6
scandir64@GLIBC_2.2.5                             /lib/x86_64-linux-gnu/libc.so.6
scandir@@GLIBC_2.2.5                              /lib/x86_64-linux-gnu/libc.so.6
scandir@GLIBC_2.2.5                               /lib/x86_64-linux-gnu/libc.so.6
scandirat                                         /lib/x86_64-linux-gnu/libc.so.6
scandirat@@GLIBC_2.15                             /lib/x86_64-linux-gnu/libc.so.6
scandirat@GLIBC_2.15                              /lib/x86_64-linux-gnu/libc.so.6
sched_get_priority_max                            /lib/x86_64-linux-gnu/libc.so.6
sched_get_priority_max@@GLIBC_2.2.5               /lib/x86_64-linux-gnu/libc.so.6
sched_get_priority_max@GLIBC_2.2.5                /lib/x86_64-linux-gnu/libc.so.6
sched_get_priority_min                            /lib/x86_64-linux-gnu/libc.so.6
sched_get_priority_min@@GLIBC_2.2.5               /lib/x86_64-linux-gnu/libc.so.6
sched_get_priority_min@GLIBC_2.2.5                /lib/x86_64-linux-gnu/libc.so.6
sched_getparam                                    /lib/x86_64-linux-gnu/libc.so.6
sched_getparam@@GLIBC_2.2.5                       /lib/x86_64-linux-gnu/libc.so.6
sched_getparam@GLIBC_2.2.5                        /lib/x86_64-linux-gnu/libc.so.6
sched_getscheduler                                /lib/x86_64-linux-gnu/libc.so.6
sched_getscheduler@@GLIBC_2.2.5                   /lib/x86_64-linux-gnu/libc.so.6
sched_getscheduler@GLIBC_2.2.5                    /lib/x86_64-linux-gnu/libc.so.6
sched_rr_get_interval                             /lib/x86_64-linux-gnu/libc.so.6
sched_rr_get_interval@@GLIBC_2.2.5                /lib/x86_64-linux-gnu/libc.so.6
sched_rr_get_interval@GLIBC_2.2.5                 /lib/x86_64-linux-gnu/libc.so.6
sched_setparam                                    /lib/x86_64-linux-gnu/libc.so.6
sched_setparam@@GLIBC_2.2.5                       /lib/x86_64-linux-gnu/libc.so.6
sched_setparam@GLIBC_2.2.5                        /lib/x86_64-linux-gnu/libc.so.6
                                                  /usr/lib/gcc/x86_64-linux-gnu/11/../../../x86_64-linux-gnu/libpthread.so
sched_setscheduler                                /lib/x86_64-linux-gnu/libc.so.6
sched_setscheduler@@GLIBC_2.2.5                   /lib/x86_64-linux-gnu/libc.so.6
sched_setscheduler@GLIBC_2.2.5                    /lib/x86_64-linux-gnu/libc.so.6
sched_yield                                       /lib/x86_64-linux-gnu/libc.so.6
sched_yield@@GLIBC_2.2.5                          /lib/x86_64-linux-gnu/libc.so.6
sched_yield@GLIBC_2.2.5                           /lib/x86_64-linux-gnu/libc.so.6
                                                  /usr/lib/gcc/x86_64-linux-gnu/11/../../../x86_64-linux-gnu/libpthread.so
secure_getenv                                     /lib/x86_64-linux-gnu/libc.so.6
secure_getenv@@GLIBC_2.17                         /lib/x86_64-linux-gnu/libc.so.6
secure_getenv@GLIBC_2.17                          /lib/x86_64-linux-gnu/libc.so.6
seed48_r                                          /lib/x86_64-linux-gnu/libc.so.6
seed48_r@@GLIBC_2.2.5                             /lib/x86_64-linux-gnu/libc.so.6
seed48_r@GLIBC_2.2.5                              /lib/x86_64-linux-gnu/libc.so.6
select                                            /lib/x86_64-linux-gnu/libc.so.6
select@@GLIBC_2.2.5                               /lib/x86_64-linux-gnu/libc.so.6
select@GLIBC_2.2.5                                /lib/x86_64-linux-gnu/libc.so.6
semtimedop                                        /lib/x86_64-linux-gnu/libc.so.6
semtimedop@@GLIBC_2.3.3                           /lib/x86_64-linux-gnu/libc.so.6
semtimedop@GLIBC_2.3.3                            /lib/x86_64-linux-gnu/libc.so.6
send                                              /usr/lib/gcc/x86_64-linux-gnu/11/../../../x86_64-linux-gnu/libpthread.so
send@@GLIBC_2.2.5                                 /usr/lib/gcc/x86_64-linux-gnu/11/../../../x86_64-linux-gnu/libpthread.so
                                                  /lib/x86_64-linux-gnu/libc.so.6
send@GLIBC_2.2.5                                  /usr/lib/gcc/x86_64-linux-gnu/11/../../../x86_64-linux-gnu/libpthread.so
sendfile64                                        /lib/x86_64-linux-gnu/libc.so.6
sendfile64@@GLIBC_2.3                             /lib/x86_64-linux-gnu/libc.so.6
sendfile64@GLIBC_2.3                              /lib/x86_64-linux-gnu/libc.so.6
sendmmsg                                          /lib/x86_64-linux-gnu/libc.so.6
sendmmsg@@GLIBC_2.14                              /lib/x86_64-linux-gnu/libc.so.6
sendmmsg@GLIBC_2.14                               /lib/x86_64-linux-gnu/libc.so.6
sendmsg                                           /usr/lib/gcc/x86_64-linux-gnu/11/../../../x86_64-linux-gnu/libpthread.so
sendmsg@@GLIBC_2.2.5                              /usr/lib/gcc/x86_64-linux-gnu/11/../../../x86_64-linux-gnu/libpthread.so
                                                  /lib/x86_64-linux-gnu/libc.so.6
sendmsg@GLIBC_2.2.5                               /usr/lib/gcc/x86_64-linux-gnu/11/../../../x86_64-linux-gnu/libpthread.so
sendto                                            /usr/lib/gcc/x86_64-linux-gnu/11/../../../x86_64-linux-gnu/libpthread.so
sendto@@GLIBC_2.2.5                               /usr/lib/gcc/x86_64-linux-gnu/11/../../../x86_64-linux-gnu/libpthread.so
                                                  /lib/x86_64-linux-gnu/libc.so.6
sendto@GLIBC_2.2.5                                /usr/lib/gcc/x86_64-linux-gnu/11/../../../x86_64-linux-gnu/libpthread.so
setbuffer                                         /lib/x86_64-linux-gnu/libc.so.6
setbuffer@@GLIBC_2.2.5                            /lib/x86_64-linux-gnu/libc.so.6
setbuffer@GLIBC_2.2.5                             /lib/x86_64-linux-gnu/libc.so.6
setcontext                                        /lib/x86_64-linux-gnu/libc.so.6
setcontext@@GLIBC_2.2.5                           /lib/x86_64-linux-gnu/libc.so.6
setcontext@GLIBC_2.2.5                            /lib/x86_64-linux-gnu/libc.so.6
setenv                                            /lib/x86_64-linux-gnu/libc.so.6
setenv@@GLIBC_2.2.5                               /lib/x86_64-linux-gnu/libc.so.6
setenv@GLIBC_2.2.5                                /lib/x86_64-linux-gnu/libc.so.6
setgid                                            /lib/x86_64-linux-gnu/libc.so.6
setgid@@GLIBC_2.2.5                               /lib/x86_64-linux-gnu/libc.so.6
setgid@GLIBC_2.2.5                                /lib/x86_64-linux-gnu/libc.so.6
setitimer                                         /lib/x86_64-linux-gnu/libc.so.6
setitimer@@GLIBC_2.2.5                            /lib/x86_64-linux-gnu/libc.so.6
setitimer@GLIBC_2.2.5                             /lib/x86_64-linux-gnu/libc.so.6
setmntent                                         /lib/x86_64-linux-gnu/libc.so.6
setmntent@@GLIBC_2.2.5                            /lib/x86_64-linux-gnu/libc.so.6
setmntent@GLIBC_2.2.5                             /lib/x86_64-linux-gnu/libc.so.6
setpgid                                           /lib/x86_64-linux-gnu/libc.so.6
setpgid@@GLIBC_2.2.5                              /lib/x86_64-linux-gnu/libc.so.6
setpgid@GLIBC_2.2.5                               /lib/x86_64-linux-gnu/libc.so.6
setpriority                                       /lib/x86_64-linux-gnu/libc.so.6
setpriority@@GLIBC_2.2.5                          /lib/x86_64-linux-gnu/libc.so.6
setpriority@GLIBC_2.2.5                           /lib/x86_64-linux-gnu/libc.so.6
setregid                                          /lib/x86_64-linux-gnu/libc.so.6
setregid@@GLIBC_2.2.5                             /lib/x86_64-linux-gnu/libc.so.6
setregid@GLIBC_2.2.5                              /lib/x86_64-linux-gnu/libc.so.6
setresgid                                         /lib/x86_64-linux-gnu/libc.so.6
setresgid@@GLIBC_2.2.5                            /lib/x86_64-linux-gnu/libc.so.6
setresgid@GLIBC_2.2.5                             /lib/x86_64-linux-gnu/libc.so.6
setresuid                                         /lib/x86_64-linux-gnu/libc.so.6
setresuid@@GLIBC_2.2.5                            /lib/x86_64-linux-gnu/libc.so.6
setresuid@GLIBC_2.2.5                             /lib/x86_64-linux-gnu/libc.so.6
setreuid                                          /lib/x86_64-linux-gnu/libc.so.6
setreuid@@GLIBC_2.2.5                             /lib/x86_64-linux-gnu/libc.so.6
setreuid@GLIBC_2.2.5                              /lib/x86_64-linux-gnu/libc.so.6
setrlimit                                         /lib/x86_64-linux-gnu/libc.so.6
setrlimit64                                       /lib/x86_64-linux-gnu/libc.so.6
setrlimit64@@GLIBC_2.2.5                          /lib/x86_64-linux-gnu/libc.so.6
setrlimit64@GLIBC_2.2.5                           /lib/x86_64-linux-gnu/libc.so.6
setrlimit@@GLIBC_2.2.5                            /lib/x86_64-linux-gnu/libc.so.6
setrlimit@GLIBC_2.2.5                             /lib/x86_64-linux-gnu/libc.so.6
setsid                                            /lib/x86_64-linux-gnu/libc.so.6
setsid@@GLIBC_2.2.5                               /lib/x86_64-linux-gnu/libc.so.6
setsid@GLIBC_2.2.5                                /lib/x86_64-linux-gnu/libc.so.6
setsockopt                                        /lib/x86_64-linux-gnu/libc.so.6
setsockopt@@GLIBC_2.2.5                           /lib/x86_64-linux-gnu/libc.so.6
setsockopt@GLIBC_2.2.5                            /lib/x86_64-linux-gnu/libc.so.6
setstate                                          /lib/x86_64-linux-gnu/libc.so.6
setstate@@GLIBC_2.2.5                             /lib/x86_64-linux-gnu/libc.so.6
setstate@GLIBC_2.2.5                              /lib/x86_64-linux-gnu/libc.so.6
setstate_r                                        /lib/x86_64-linux-gnu/libc.so.6
setstate_r@@GLIBC_2.2.5                           /lib/x86_64-linux-gnu/libc.so.6
setstate_r@GLIBC_2.2.5                            /lib/x86_64-linux-gnu/libc.so.6
settimeofday                                      /lib/x86_64-linux-gnu/libc.so.6
settimeofday@@GLIBC_2.2.5                         /lib/x86_64-linux-gnu/libc.so.6
settimeofday@GLIBC_2.2.5                          /lib/x86_64-linux-gnu/libc.so.6
setttyent                                         /lib/x86_64-linux-gnu/libc.so.6
setttyent@@GLIBC_2.2.5                            /lib/x86_64-linux-gnu/libc.so.6
setttyent@GLIBC_2.2.5                             /lib/x86_64-linux-gnu/libc.so.6
setuid                                            /lib/x86_64-linux-gnu/libc.so.6
setuid@@GLIBC_2.2.5                               /lib/x86_64-linux-gnu/libc.so.6
setuid@GLIBC_2.2.5                                /lib/x86_64-linux-gnu/libc.so.6
setutent                                          /lib/x86_64-linux-gnu/libc.so.6
setutent@@GLIBC_2.2.5                             /lib/x86_64-linux-gnu/libc.so.6
setutent@GLIBC_2.2.5                              /lib/x86_64-linux-gnu/libc.so.6
setvbuf                                           /lib/x86_64-linux-gnu/libc.so.6
                                                  ../../core/libcore_s.a(osdep.o)
setvbuf@@GLIBC_2.2.5                              /lib/x86_64-linux-gnu/libc.so.6
setvbuf@GLIBC_2.2.5                               /lib/x86_64-linux-gnu/libc.so.6
sgetsgent_r                                       /lib/x86_64-linux-gnu/libc.so.6
sgetsgent_r@@GLIBC_2.10                           /lib/x86_64-linux-gnu/libc.so.6
sgetsgent_r@GLIBC_2.10                            /lib/x86_64-linux-gnu/libc.so.6
sgetspent_r                                       /lib/x86_64-linux-gnu/libc.so.6
sgetspent_r@@GLIBC_2.2.5                          /lib/x86_64-linux-gnu/libc.so.6
sgetspent_r@GLIBC_2.2.5                           /lib/x86_64-linux-gnu/libc.so.6
shutdown                                          /lib/x86_64-linux-gnu/libc.so.6
shutdown@@GLIBC_2.2.5                             /lib/x86_64-linux-gnu/libc.so.6
shutdown@GLIBC_2.2.5                              /lib/x86_64-linux-gnu/libc.so.6
sigaction                                         /usr/lib/gcc/x86_64-linux-gnu/11/../../../x86_64-linux-gnu/libpthread.so
sigaction@@GLIBC_2.2.5                            /usr/lib/gcc/x86_64-linux-gnu/11/../../../x86_64-linux-gnu/libpthread.so
                                                  /lib/x86_64-linux-gnu/libc.so.6
sigaction@GLIBC_2.2.5                             /usr/lib/gcc/x86_64-linux-gnu/11/../../../x86_64-linux-gnu/libpthread.so
sigaltstack                                       /lib/x86_64-linux-gnu/libc.so.6
sigaltstack@@GLIBC_2.2.5                          /lib/x86_64-linux-gnu/libc.so.6
sigaltstack@GLIBC_2.2.5                           /lib/x86_64-linux-gnu/libc.so.6
sigblock                                          /lib/x86_64-linux-gnu/libc.so.6
sigblock@@GLIBC_2.2.5                             /lib/x86_64-linux-gnu/libc.so.6
sigblock@GLIBC_2.2.5                              /lib/x86_64-linux-gnu/libc.so.6
siglongjmp                                        /lib/x86_64-linux-gnu/libc.so.6
siglongjmp@@GLIBC_2.2.5                           /lib/x86_64-linux-gnu/libc.so.6
signal                                            /lib/x86_64-linux-gnu/libc.so.6
signal@@GLIBC_2.2.5                               /lib/x86_64-linux-gnu/libc.so.6
signal@GLIBC_2.2.5                                /lib/x86_64-linux-gnu/libc.so.6
sigpause                                          /lib/x86_64-linux-gnu/libc.so.6
sigpause@@GLIBC_2.2.5                             /lib/x86_64-linux-gnu/libc.so.6
sigpause@GLIBC_2.2.5                              /lib/x86_64-linux-gnu/libc.so.6
sigprocmask                                       /lib/x86_64-linux-gnu/libc.so.6
sigprocmask@@GLIBC_2.2.5                          /lib/x86_64-linux-gnu/libc.so.6
sigprocmask@GLIBC_2.2.5                           /lib/x86_64-linux-gnu/libc.so.6
sigqueue                                          /lib/x86_64-linux-gnu/libc.so.6
sigqueue@@GLIBC_2.2.5                             /lib/x86_64-linux-gnu/libc.so.6
sigqueue@GLIBC_2.2.5                              /lib/x86_64-linux-gnu/libc.so.6
sigreturn                                         /lib/x86_64-linux-gnu/libc.so.6
sigreturn@@GLIBC_2.2.5                            /lib/x86_64-linux-gnu/libc.so.6
sigreturn@GLIBC_2.2.5                             /lib/x86_64-linux-gnu/libc.so.6
sigsetmask                                        /lib/x86_64-linux-gnu/libc.so.6
sigsetmask@@GLIBC_2.2.5                           /lib/x86_64-linux-gnu/libc.so.6
sigsetmask@GLIBC_2.2.5                            /lib/x86_64-linux-gnu/libc.so.6
sigsuspend                                        /lib/x86_64-linux-gnu/libc.so.6
sigsuspend@@GLIBC_2.2.5                           /lib/x86_64-linux-gnu/libc.so.6
sigsuspend@GLIBC_2.2.5                            /lib/x86_64-linux-gnu/libc.so.6
sigtimedwait                                      /lib/x86_64-linux-gnu/libc.so.6
sigtimedwait@@GLIBC_2.2.5                         /lib/x86_64-linux-gnu/libc.so.6
sigtimedwait@GLIBC_2.2.5                          /lib/x86_64-linux-gnu/libc.so.6
sigwait                                           /usr/lib/gcc/x86_64-linux-gnu/11/../../../x86_64-linux-gnu/libpthread.so
sigwait@@GLIBC_2.2.5                              /usr/lib/gcc/x86_64-linux-gnu/11/../../../x86_64-linux-gnu/libpthread.so
                                                  /lib/x86_64-linux-gnu/libc.so.6
sigwait@GLIBC_2.2.5                               /usr/lib/gcc/x86_64-linux-gnu/11/../../../x86_64-linux-gnu/libpthread.so
sigwaitinfo                                       /lib/x86_64-linux-gnu/libc.so.6
sigwaitinfo@@GLIBC_2.2.5                          /lib/x86_64-linux-gnu/libc.so.6
sigwaitinfo@GLIBC_2.2.5                           /lib/x86_64-linux-gnu/libc.so.6
sleep                                             /lib/x86_64-linux-gnu/libc.so.6
sleep@@GLIBC_2.2.5                                /lib/x86_64-linux-gnu/libc.so.6
sleep@GLIBC_2.2.5                                 /lib/x86_64-linux-gnu/libc.so.6
snprintf                                          /lib/x86_64-linux-gnu/libc.so.6
snprintf@@GLIBC_2.2.5                             /lib/x86_64-linux-gnu/libc.so.6
snprintf@GLIBC_2.2.5                              /lib/x86_64-linux-gnu/libc.so.6
socket                                            /lib/x86_64-linux-gnu/libc.so.6
socket@@GLIBC_2.2.5                               /lib/x86_64-linux-gnu/libc.so.6
socket@GLIBC_2.2.5                                /lib/x86_64-linux-gnu/libc.so.6
socketpair                                        /lib/x86_64-linux-gnu/libc.so.6
socketpair@@GLIBC_2.2.5                           /lib/x86_64-linux-gnu/libc.so.6
socketpair@GLIBC_2.2.5                            /lib/x86_64-linux-gnu/libc.so.6
sprofil                                           /lib/x86_64-linux-gnu/libc.so.6
sprofil@@GLIBC_2.2.5                              /lib/x86_64-linux-gnu/libc.so.6
sprofil@GLIBC_2.2.5                               /lib/x86_64-linux-gnu/libc.so.6
srand                                             /lib/x86_64-linux-gnu/libc.so.6
srand48_r                                         /lib/x86_64-linux-gnu/libc.so.6
srand48_r@@GLIBC_2.2.5                            /lib/x86_64-linux-gnu/libc.so.6
srand48_r@GLIBC_2.2.5                             /lib/x86_64-linux-gnu/libc.so.6
srand@@GLIBC_2.2.5                                /lib/x86_64-linux-gnu/libc.so.6
srand@GLIBC_2.2.5                                 /lib/x86_64-linux-gnu/libc.so.6
srandom                                           /lib/x86_64-linux-gnu/libc.so.6
srandom@@GLIBC_2.2.5                              /lib/x86_64-linux-gnu/libc.so.6
srandom@GLIBC_2.2.5                               /lib/x86_64-linux-gnu/libc.so.6
srandom_r                                         /lib/x86_64-linux-gnu/libc.so.6
srandom_r@@GLIBC_2.2.5                            /lib/x86_64-linux-gnu/libc.so.6
srandom_r@GLIBC_2.2.5                             /lib/x86_64-linux-gnu/libc.so.6
ssignal                                           /lib/x86_64-linux-gnu/libc.so.6
ssignal@@GLIBC_2.2.5                              /lib/x86_64-linux-gnu/libc.so.6
ssignal@GLIBC_2.2.5                               /lib/x86_64-linux-gnu/libc.so.6
sslActivateReadCipher                             ../libssl_s.a(tls.o)
                                                  ../libssl_s.a(tls13KeySchedule.o)
                                                  ../libssl_s.a(sslDecode.o)
                                                  ../libssl_s.a(matrixssl.o)
sslActivateWriteCipher                            ../libssl_s.a(tls.o)
                                                  ../libssl_s.a(tls13KeySchedule.o)
                                                  ../libssl_s.a(sslEncode.o)
                                                  ../libssl_s.a(matrixssl.o)
sslCreateKeys                                     ../libssl_s.a(tls.o)
                                                  ../libssl_s.a(hsDecode.o)
                                                  ../libssl_s.a(sslEncode.o)
                                                  ../libssl_s.a(sslDecode.o)
sslEncodeClosureAlert                             ../libssl_s.a(sslEncode.o)
                                                  ../libssl_s.a(matrixsslApi.o)
sslEncodeResponse                                 ../libssl_s.a(sslEncode.o)
                                                  ../libssl_s.a(tls13Decode.o)
                                                  ../libssl_s.a(sslDecode.o)
                                                  ../libssl_s.a(dtls.o)
sslGetCipherSpec                                  ../libssl_s.a(cipherSuite.o)
                                                  ../libssl_s.a(hsDecode.o)
                                                  ../libssl_s.a(tls13DecodeExt.o)
                                                  ../libssl_s.a(tls13Decode.o)
                                                  ../libssl_s.a(tls13Encode.o)
                                                  ../libssl_s.a(sslEncode.o)
                                                  ../libssl_s.a(matrixssl.o)
sslGetCipherSpecList                              ../libssl_s.a(cipherSuite.o)
                                                  ../libssl_s.a(tlsDefaults.o)
                                                  ../libssl_s.a(sslEncode.o)
sslGetCipherSpecListLen                           ../libssl_s.a(cipherSuite.o)
                                                  ../libssl_s.a(tlsDefaults.o)
                                                  ../libssl_s.a(sslEncode.o)
sslGetDefinedCipherSpec                           ../libssl_s.a(cipherSuite.o)
                                                  sslTest.o
sslInitHSHash                                     ../libssl_s.a(hsHash.o)
                                                  ../libssl_s.a(tls13Encode.o)
                                                  ../libssl_s.a(sslEncode.o)
                                                  ../libssl_s.a(sslDecode.o)
sslResetContext                                   ../libssl_s.a(matrixssl.o)
                                                  ../libssl_s.a(sslEncode.o)
                                                  ../libssl_s.a(sslDecode.o)
sslSha1RetrieveHSHash                             ../libssl_s.a(hsHash.o)
                                                  ../libssl_s.a(hsDecode.o)
sslSha1SnapshotHSHash                             ../libssl_s.a(hsHash.o)
                                                  ../libssl_s.a(sslEncode.o)
sslSha384RetrieveHSHash                           ../libssl_s.a(hsHash.o)
                                                  ../libssl_s.a(hsDecode.o)
sslSha384SnapshotHSHash                           ../libssl_s.a(hsHash.o)
                                                  ../libssl_s.a(sslEncode.o)
sslSha512RetrieveHSHash                           ../libssl_s.a(hsHash.o)
                                                  ../libssl_s.a(hsDecode.o)
sslSha512SnapshotHSHash                           ../libssl_s.a(hsHash.o)
                                                  ../libssl_s.a(sslEncode.o)
sslSnapshotHSHash                                 ../libssl_s.a(hsHash.o)
                                                  ../libssl_s.a(sslEncode.o)
                                                  ../libssl_s.a(sslDecode.o)
sslTest                                           sslTest.o
sslTestPt                                         sslTest.o
sslUpdateHSHash                                   ../libssl_s.a(hsHash.o)
                                                  ../libssl_s.a(tls13TrHash.o)
                                                  ../libssl_s.a(sslEncode.o)
                                                  ../libssl_s.a(sslDecode.o)
                                                  ../libssl_s.a(dtls.o)
sslWritePad                                       ../libssl_s.a(sslEncode.o)
                                                  ../libssl_s.a(matrixssl.o)
                                                  ../libssl_s.a(dtls.o)
statfs                                            /lib/x86_64-linux-gnu/libc.so.6
statfs64                                          /lib/x86_64-linux-gnu/libc.so.6
statfs64@@GLIBC_2.2.5                             /lib/x86_64-linux-gnu/libc.so.6
statfs64@GLIBC_2.2.5                              /lib/x86_64-linux-gnu/libc.so.6
statfs@@GLIBC_2.2.5                               /lib/x86_64-linux-gnu/libc.so.6
statfs@GLIBC_2.2.5                                /lib/x86_64-linux-gnu/libc.so.6
statvfs                                           /lib/x86_64-linux-gnu/libc.so.6
statvfs64                                         /lib/x86_64-linux-gnu/libc.so.6
statvfs64@@GLIBC_2.2.5                            /lib/x86_64-linux-gnu/libc.so.6
statvfs64@GLIBC_2.2.5                             /lib/x86_64-linux-gnu/libc.so.6
statvfs@@GLIBC_2.2.5                              /lib/x86_64-linux-gnu/libc.so.6
statvfs@GLIBC_2.2.5                               /lib/x86_64-linux-gnu/libc.so.6
stderr                                            /lib/x86_64-linux-gnu/libc.so.6
                                                  ../../core/libcore_s.a(osdep.o)
                                                  sslTest.o
stderr@@GLIBC_2.2.5                               /lib/x86_64-linux-gnu/libc.so.6
stderr@GLIBC_2.2.5                                /lib/x86_64-linux-gnu/libc.so.6
step@GLIBC_2.2.5                                  /lib/x86_64-linux-gnu/libc.so.6
stpcpy                                            /lib/x86_64-linux-gnu/libc.so.6
stpcpy@@GLIBC_2.2.5                               /lib/x86_64-linux-gnu/libc.so.6
stpcpy@GLIBC_2.2.5                                /lib/x86_64-linux-gnu/libc.so.6
stpncpy                                           /lib/x86_64-linux-gnu/libc.so.6
stpncpy@@GLIBC_2.2.5                              /lib/x86_64-linux-gnu/libc.so.6
stpncpy@GLIBC_2.2.5                               /lib/x86_64-linux-gnu/libc.so.6
strcasecmp                                        /lib/x86_64-linux-gnu/libc.so.6
                                                  ../libssl_s.a(matrixssl.o)
strcasecmp@@GLIBC_2.2.5                           /lib/x86_64-linux-gnu/libc.so.6
strcasecmp@GLIBC_2.2.5                            /lib/x86_64-linux-gnu/libc.so.6
strcasecmp_l                                      /lib/x86_64-linux-gnu/libc.so.6
strcasecmp_l@@GLIBC_2.3                           /lib/x86_64-linux-gnu/libc.so.6
strcasecmp_l@GLIBC_2.3                            /lib/x86_64-linux-gnu/libc.so.6
strcasestr                                        /lib/x86_64-linux-gnu/libc.so.6
strcasestr@@GLIBC_2.2.5                           /lib/x86_64-linux-gnu/libc.so.6
strcasestr@GLIBC_2.2.5                            /lib/x86_64-linux-gnu/libc.so.6
strchr                                            /lib/x86_64-linux-gnu/libc.so.6
                                                  ../../crypto/libcrypt_s.a(utils.o)
                                                  ../libssl_s.a(matrixssl.o)
strchr@@GLIBC_2.2.5                               /lib/x86_64-linux-gnu/libc.so.6
strchr@GLIBC_2.2.5                                /lib/x86_64-linux-gnu/libc.so.6
                                                  /usr/lib/gcc/x86_64-linux-gnu/11/../../../x86_64-linux-gnu/libpthread.so
strchrnul                                         /lib/x86_64-linux-gnu/libc.so.6
strchrnul@@GLIBC_2.2.5                            /lib/x86_64-linux-gnu/libc.so.6
strchrnul@GLIBC_2.2.5                             /lib/x86_64-linux-gnu/libc.so.6
strcmp                                            /lib/x86_64-linux-gnu/libc.so.6
                                                  ../../crypto/libcrypt_s.a(ecc_curve.o)
                                                  ../../crypto/libcrypt_s.a(alg_info.o)
                                                  ../libssl_s.a(matrixssl.o)
                                                  sslTest.o
strcmp@@GLIBC_2.2.5                               /lib/x86_64-linux-gnu/libc.so.6
strcmp@GLIBC_2.2.5                                /lib/x86_64-linux-gnu/libc.so.6
                                                  /usr/lib/gcc/x86_64-linux-gnu/11/../../../x86_64-linux-gnu/libpthread.so
strcoll_l                                         /lib/x86_64-linux-gnu/libc.so.6
strcoll_l@@GLIBC_2.3                              /lib/x86_64-linux-gnu/libc.so.6
strcoll_l@GLIBC_2.3                               /lib/x86_64-linux-gnu/libc.so.6
strcpy                                            /lib/x86_64-linux-gnu/libc.so.6
                                                  ../libssl_s.a(matrixsslApi.o)
strcpy@@GLIBC_2.2.5                               /lib/x86_64-linux-gnu/libc.so.6
strcpy@GLIBC_2.2.5                                /lib/x86_64-linux-gnu/libc.so.6
strdup                                            /lib/x86_64-linux-gnu/libc.so.6
strdup@@GLIBC_2.2.5                               /lib/x86_64-linux-gnu/libc.so.6
strdup@GLIBC_2.2.5                                /lib/x86_64-linux-gnu/libc.so.6
strerror_r                                        /lib/x86_64-linux-gnu/libc.so.6
strerror_r@@GLIBC_2.2.5                           /lib/x86_64-linux-gnu/libc.so.6
strerror_r@GLIBC_2.2.5                            /lib/x86_64-linux-gnu/libc.so.6
strfmon_l                                         /lib/x86_64-linux-gnu/libc.so.6
strfmon_l@@GLIBC_2.3                              /lib/x86_64-linux-gnu/libc.so.6
strfmon_l@GLIBC_2.3                               /lib/x86_64-linux-gnu/libc.so.6
strfromf32                                        /lib/x86_64-linux-gnu/libc.so.6
strfromf32@@GLIBC_2.27                            /lib/x86_64-linux-gnu/libc.so.6
strfromf32@GLIBC_2.27                             /lib/x86_64-linux-gnu/libc.so.6
strfromf32x                                       /lib/x86_64-linux-gnu/libc.so.6
strfromf32x@@GLIBC_2.27                           /lib/x86_64-linux-gnu/libc.so.6
strfromf32x@GLIBC_2.27                            /lib/x86_64-linux-gnu/libc.so.6
strfromf64                                        /lib/x86_64-linux-gnu/libc.so.6
strfromf64@@GLIBC_2.27                            /lib/x86_64-linux-gnu/libc.so.6
strfromf64@GLIBC_2.27                             /lib/x86_64-linux-gnu/libc.so.6
strfromf64x                                       /lib/x86_64-linux-gnu/libc.so.6
strfromf64x@@GLIBC_2.27                           /lib/x86_64-linux-gnu/libc.so.6
strfromf64x@GLIBC_2.27                            /lib/x86_64-linux-gnu/libc.so.6
strftime                                          /lib/x86_64-linux-gnu/libc.so.6
                                                  ../../core/libcore_s.a(corelib_date.o)
strftime@@GLIBC_2.2.5                             /lib/x86_64-linux-gnu/libc.so.6
strftime@GLIBC_2.2.5                              /lib/x86_64-linux-gnu/libc.so.6
strftime_l                                        /lib/x86_64-linux-gnu/libc.so.6
strftime_l@@GLIBC_2.3                             /lib/x86_64-linux-gnu/libc.so.6
strftime_l@GLIBC_2.3                              /lib/x86_64-linux-gnu/libc.so.6
strlen                                            /lib/x86_64-linux-gnu/libc.so.6
                                                  ../../core/libcore_s.a(corelib_list.o)
                                                  ../../crypto/libcrypt_s.a(crl.o)
                                                  ../../crypto/libcrypt_s.a(pubkey_parse_file.o)
                                                  ../../crypto/libcrypt_s.a(x509.o)
                                                  ../../crypto/libcrypt_s.a(pem_decode_mem.o)
                                                  ../libssl_s.a(matrixsslApi.o)
                                                  ../libssl_s.a(matrixssl.o)
                                                  ../libssl_s.a(cipherSuite.o)
strlen@@GLIBC_2.2.5                               /lib/x86_64-linux-gnu/libc.so.6
strlen@GLIBC_2.2.5                                /lib/x86_64-linux-gnu/libc.so.6
                                                  /usr/lib/gcc/x86_64-linux-gnu/11/../../../x86_64-linux-gnu/libpthread.so
strncasecmp                                       /lib/x86_64-linux-gnu/libc.so.6
strncasecmp@@GLIBC_2.2.5                          /lib/x86_64-linux-gnu/libc.so.6
strncasecmp@GLIBC_2.2.5                           /lib/x86_64-linux-gnu/libc.so.6
strncasecmp_l                                     /lib/x86_64-linux-gnu/libc.so.6
strncasecmp_l@@GLIBC_2.3                          /lib/x86_64-linux-gnu/libc.so.6
strncasecmp_l@GLIBC_2.3                           /lib/x86_64-linux-gnu/libc.so.6
strncmp                                           /lib/x86_64-linux-gnu/libc.so.6
                                                  ../../core/libcore_s.a(corelib_main.o)
                                                  ../../crypto/libcrypt_s.a(matrix.o)
                                                  ../libssl_s.a(matrixssl.o)
strncmp@@GLIBC_2.2.5                              /lib/x86_64-linux-gnu/libc.so.6
strncmp@GLIBC_2.2.5                               /lib/x86_64-linux-gnu/libc.so.6
strndup                                           /lib/x86_64-linux-gnu/libc.so.6
strndup@@GLIBC_2.2.5                              /lib/x86_64-linux-gnu/libc.so.6
strndup@GLIBC_2.2.5                               /lib/x86_64-linux-gnu/libc.so.6
strnlen                                           /lib/x86_64-linux-gnu/libc.so.6
strnlen@@GLIBC_2.2.5                              /lib/x86_64-linux-gnu/libc.so.6
strnlen@GLIBC_2.2.5                               /lib/x86_64-linux-gnu/libc.so.6
strptime_l                                        /lib/x86_64-linux-gnu/libc.so.6
strptime_l@@GLIBC_2.3.2                           /lib/x86_64-linux-gnu/libc.so.6
strptime_l@GLIBC_2.3.2                            /lib/x86_64-linux-gnu/libc.so.6
strsep                                            /lib/x86_64-linux-gnu/libc.so.6
strsep@@GLIBC_2.2.5                               /lib/x86_64-linux-gnu/libc.so.6
strsep@GLIBC_2.2.5                                /lib/x86_64-linux-gnu/libc.so.6
strstr                                            /lib/x86_64-linux-gnu/libc.so.6
                                                  ../../crypto/libcrypt_s.a(pkcs.o)
                                                  ../../crypto/libcrypt_s.a(pem_decode_mem.o)
strstr@@GLIBC_2.2.5                               /lib/x86_64-linux-gnu/libc.so.6
strstr@GLIBC_2.2.5                                /lib/x86_64-linux-gnu/libc.so.6
strtod_l                                          /lib/x86_64-linux-gnu/libc.so.6
strtod_l@@GLIBC_2.3                               /lib/x86_64-linux-gnu/libc.so.6
strtod_l@GLIBC_2.3                                /lib/x86_64-linux-gnu/libc.so.6
strtof128_l                                       /lib/x86_64-linux-gnu/libc.so.6
strtof128_l@@GLIBC_2.26                           /lib/x86_64-linux-gnu/libc.so.6
strtof128_l@GLIBC_2.26                            /lib/x86_64-linux-gnu/libc.so.6
strtof32                                          /lib/x86_64-linux-gnu/libc.so.6
strtof32@@GLIBC_2.27                              /lib/x86_64-linux-gnu/libc.so.6
strtof32@GLIBC_2.27                               /lib/x86_64-linux-gnu/libc.so.6
strtof32_l                                        /lib/x86_64-linux-gnu/libc.so.6
strtof32_l@@GLIBC_2.27                            /lib/x86_64-linux-gnu/libc.so.6
strtof32_l@GLIBC_2.27                             /lib/x86_64-linux-gnu/libc.so.6
strtof32x                                         /lib/x86_64-linux-gnu/libc.so.6
strtof32x@@GLIBC_2.27                             /lib/x86_64-linux-gnu/libc.so.6
strtof32x@GLIBC_2.27                              /lib/x86_64-linux-gnu/libc.so.6
strtof32x_l                                       /lib/x86_64-linux-gnu/libc.so.6
strtof32x_l@@GLIBC_2.27                           /lib/x86_64-linux-gnu/libc.so.6
strtof32x_l@GLIBC_2.27                            /lib/x86_64-linux-gnu/libc.so.6
strtof64                                          /lib/x86_64-linux-gnu/libc.so.6
strtof64@@GLIBC_2.27                              /lib/x86_64-linux-gnu/libc.so.6
strtof64@GLIBC_2.27                               /lib/x86_64-linux-gnu/libc.so.6
strtof64_l                                        /lib/x86_64-linux-gnu/libc.so.6
strtof64_l@@GLIBC_2.27                            /lib/x86_64-linux-gnu/libc.so.6
strtof64_l@GLIBC_2.27                             /lib/x86_64-linux-gnu/libc.so.6
strtof64x                                         /lib/x86_64-linux-gnu/libc.so.6
strtof64x@@GLIBC_2.27                             /lib/x86_64-linux-gnu/libc.so.6
strtof64x@GLIBC_2.27                              /lib/x86_64-linux-gnu/libc.so.6
strtof64x_l                                       /lib/x86_64-linux-gnu/libc.so.6
strtof64x_l@@GLIBC_2.27                           /lib/x86_64-linux-gnu/libc.so.6
strtof64x_l@GLIBC_2.27                            /lib/x86_64-linux-gnu/libc.so.6
strtof_l                                          /lib/x86_64-linux-gnu/libc.so.6
strtof_l@@GLIBC_2.3                               /lib/x86_64-linux-gnu/libc.so.6
strtof_l@GLIBC_2.3                                /lib/x86_64-linux-gnu/libc.so.6
strtok_r                                          /lib/x86_64-linux-gnu/libc.so.6
strtok_r@@GLIBC_2.2.5                             /lib/x86_64-linux-gnu/libc.so.6
strtok_r@GLIBC_2.2.5                              /lib/x86_64-linux-gnu/libc.so.6
strtol                                            /lib/x86_64-linux-gnu/libc.so.6
                                                  sslTest.o
strtol@@GLIBC_2.2.5                               /lib/x86_64-linux-gnu/libc.so.6
strtol@GLIBC_2.2.5                                /lib/x86_64-linux-gnu/libc.so.6
strtol_l                                          /lib/x86_64-linux-gnu/libc.so.6
strtol_l@@GLIBC_2.3                               /lib/x86_64-linux-gnu/libc.so.6
strtol_l@GLIBC_2.3                                /lib/x86_64-linux-gnu/libc.so.6
strtold_l                                         /lib/x86_64-linux-gnu/libc.so.6
strtold_l@@GLIBC_2.3                              /lib/x86_64-linux-gnu/libc.so.6
strtold_l@GLIBC_2.3                               /lib/x86_64-linux-gnu/libc.so.6
strtoll                                           /lib/x86_64-linux-gnu/libc.so.6
strtoll@@GLIBC_2.2.5                              /lib/x86_64-linux-gnu/libc.so.6
strtoll@GLIBC_2.2.5                               /lib/x86_64-linux-gnu/libc.so.6
strtoll_l                                         /lib/x86_64-linux-gnu/libc.so.6
strtoll_l@@GLIBC_2.3.3                            /lib/x86_64-linux-gnu/libc.so.6
strtoll_l@GLIBC_2.3.3                             /lib/x86_64-linux-gnu/libc.so.6
strtoq                                            /lib/x86_64-linux-gnu/libc.so.6
strtoq@@GLIBC_2.2.5                               /lib/x86_64-linux-gnu/libc.so.6
strtoq@GLIBC_2.2.5                                /lib/x86_64-linux-gnu/libc.so.6
strtoul                                           /lib/x86_64-linux-gnu/libc.so.6
strtoul@@GLIBC_2.2.5                              /lib/x86_64-linux-gnu/libc.so.6
strtoul@GLIBC_2.2.5                               /lib/x86_64-linux-gnu/libc.so.6
strtoul_l                                         /lib/x86_64-linux-gnu/libc.so.6
strtoul_l@@GLIBC_2.3                              /lib/x86_64-linux-gnu/libc.so.6
strtoul_l@GLIBC_2.3                               /lib/x86_64-linux-gnu/libc.so.6
strtoull                                          /lib/x86_64-linux-gnu/libc.so.6
strtoull@@GLIBC_2.2.5                             /lib/x86_64-linux-gnu/libc.so.6
strtoull@GLIBC_2.2.5                              /lib/x86_64-linux-gnu/libc.so.6
strtoull_l                                        /lib/x86_64-linux-gnu/libc.so.6
strtoull_l@@GLIBC_2.3.3                           /lib/x86_64-linux-gnu/libc.so.6
strtoull_l@GLIBC_2.3.3                            /lib/x86_64-linux-gnu/libc.so.6
strtouq                                           /lib/x86_64-linux-gnu/libc.so.6
strtouq@@GLIBC_2.2.5                              /lib/x86_64-linux-gnu/libc.so.6
strtouq@GLIBC_2.2.5                               /lib/x86_64-linux-gnu/libc.so.6
strverscmp                                        /lib/x86_64-linux-gnu/libc.so.6
strverscmp@@GLIBC_2.2.5                           /lib/x86_64-linux-gnu/libc.so.6
strverscmp@GLIBC_2.2.5                            /lib/x86_64-linux-gnu/libc.so.6
strxfrm_l                                         /lib/x86_64-linux-gnu/libc.so.6
strxfrm_l@@GLIBC_2.3                              /lib/x86_64-linux-gnu/libc.so.6
strxfrm_l@GLIBC_2.3                               /lib/x86_64-linux-gnu/libc.so.6
swapcontext                                       /lib/x86_64-linux-gnu/libc.so.6
swapcontext@@GLIBC_2.2.5                          /lib/x86_64-linux-gnu/libc.so.6
swapcontext@GLIBC_2.2.5                           /lib/x86_64-linux-gnu/libc.so.6
swapoff                                           /lib/x86_64-linux-gnu/libc.so.6
swapoff@@GLIBC_2.2.5                              /lib/x86_64-linux-gnu/libc.so.6
swapoff@GLIBC_2.2.5                               /lib/x86_64-linux-gnu/libc.so.6
swapon                                            /lib/x86_64-linux-gnu/libc.so.6
swapon@@GLIBC_2.2.5                               /lib/x86_64-linux-gnu/libc.so.6
swapon@GLIBC_2.2.5                                /lib/x86_64-linux-gnu/libc.so.6
symlink                                           /lib/x86_64-linux-gnu/libc.so.6
symlink@@GLIBC_2.2.5                              /lib/x86_64-linux-gnu/libc.so.6
symlink@GLIBC_2.2.5                               /lib/x86_64-linux-gnu/libc.so.6
sysconf                                           /lib/x86_64-linux-gnu/libc.so.6
sysconf@@GLIBC_2.2.5                              /lib/x86_64-linux-gnu/libc.so.6
sysconf@GLIBC_2.2.5                               /lib/x86_64-linux-gnu/libc.so.6
sysctl                                            /lib/x86_64-linux-gnu/libc.so.6
sysctl@@GLIBC_2.2.5                               /lib/x86_64-linux-gnu/libc.so.6
sysctl@GLIBC_2.2.5                                /lib/x86_64-linux-gnu/libc.so.6
sysinfo                                           /lib/x86_64-linux-gnu/libc.so.6
sysinfo@@GLIBC_2.2.5                              /lib/x86_64-linux-gnu/libc.so.6
sysinfo@GLIBC_2.2.5                               /lib/x86_64-linux-gnu/libc.so.6
system                                            /lib/x86_64-linux-gnu/libc.so.6
system@@GLIBC_2.2.5                               /lib/x86_64-linux-gnu/libc.so.6
sysv_signal                                       /lib/x86_64-linux-gnu/libc.so.6
sysv_signal@@GLIBC_2.2.5                          /lib/x86_64-linux-gnu/libc.so.6
sysv_signal@GLIBC_2.2.5                           /lib/x86_64-linux-gnu/libc.so.6
tcdrain                                           /usr/lib/gcc/x86_64-linux-gnu/11/../../../x86_64-linux-gnu/libpthread.so
tcdrain@@GLIBC_2.2.5                              /usr/lib/gcc/x86_64-linux-gnu/11/../../../x86_64-linux-gnu/libpthread.so
                                                  /lib/x86_64-linux-gnu/libc.so.6
tcdrain@GLIBC_2.2.5                               /usr/lib/gcc/x86_64-linux-gnu/11/../../../x86_64-linux-gnu/libpthread.so
tcgetattr                                         /lib/x86_64-linux-gnu/libc.so.6
tcgetattr@@GLIBC_2.2.5                            /lib/x86_64-linux-gnu/libc.so.6
tcgetattr@GLIBC_2.2.5                             /lib/x86_64-linux-gnu/libc.so.6
tdelete                                           /lib/x86_64-linux-gnu/libc.so.6
tdelete@@GLIBC_2.2.5                              /lib/x86_64-linux-gnu/libc.so.6
tdelete@GLIBC_2.2.5                               /lib/x86_64-linux-gnu/libc.so.6
tdestroy                                          /lib/x86_64-linux-gnu/libc.so.6
tdestroy@@GLIBC_2.2.5                             /lib/x86_64-linux-gnu/libc.so.6
tdestroy@GLIBC_2.2.5                              /lib/x86_64-linux-gnu/libc.so.6
testCiphersuite                                   sslTest.o
testProtocolVersion                               sslTest.o
textdomain                                        /lib/x86_64-linux-gnu/libc.so.6
textdomain@@GLIBC_2.2.5                           /lib/x86_64-linux-gnu/libc.so.6
textdomain@GLIBC_2.2.5                            /lib/x86_64-linux-gnu/libc.so.6
tfind                                             /lib/x86_64-linux-gnu/libc.so.6
tfind@@GLIBC_2.2.5                                /lib/x86_64-linux-gnu/libc.so.6
tfind@GLIBC_2.2.5                                 /lib/x86_64-linux-gnu/libc.so.6
tgkill                                            /lib/x86_64-linux-gnu/libc.so.6
tgkill@@GLIBC_2.30                                /lib/x86_64-linux-gnu/libc.so.6
tgkill@GLIBC_2.30                                 /lib/x86_64-linux-gnu/libc.so.6
time                                              /lib/x86_64-linux-gnu/libc.so.6
                                                  ../../core/libcore_s.a(corelib_date.o)
time@@GLIBC_2.2.5                                 /lib/x86_64-linux-gnu/libc.so.6
time@GLIBC_2.2.5                                  /lib/x86_64-linux-gnu/libc.so.6
timelocal                                         /lib/x86_64-linux-gnu/libc.so.6
timelocal@@GLIBC_2.2.5                            /lib/x86_64-linux-gnu/libc.so.6
timelocal@GLIBC_2.2.5                             /lib/x86_64-linux-gnu/libc.so.6
times                                             /lib/x86_64-linux-gnu/libc.so.6
times@@GLIBC_2.2.5                                /lib/x86_64-linux-gnu/libc.so.6
times@GLIBC_2.2.5                                 /lib/x86_64-linux-gnu/libc.so.6
timezone                                          /lib/x86_64-linux-gnu/libc.so.6
timezone@@GLIBC_2.2.5                             /lib/x86_64-linux-gnu/libc.so.6
timezone@GLIBC_2.2.5                              /lib/x86_64-linux-gnu/libc.so.6
tls13ActivateAppReadKeys                          ../libssl_s.a(tls13KeySchedule.o)
                                                  ../libssl_s.a(tls13Decode.o)
                                                  ../libssl_s.a(tls13Encode.o)
tls13ActivateAppWriteKeys                         ../libssl_s.a(tls13KeySchedule.o)
                                                  ../libssl_s.a(tls13Encode.o)
tls13ActivateEarlyDataReadKeys                    ../libssl_s.a(tls13KeySchedule.o)
                                                  ../libssl_s.a(tls13Encode.o)
tls13ActivateEarlyDataWriteKeys                   ../libssl_s.a(tls13KeySchedule.o)
                                                  ../libssl_s.a(tls13Encode.o)
tls13ActivateHsReadKeys                           ../libssl_s.a(tls13KeySchedule.o)
                                                  ../libssl_s.a(tls13Decode.o)
                                                  ../libssl_s.a(tls13Encode.o)
tls13ActivateHsWriteKeys                          ../libssl_s.a(tls13KeySchedule.o)
                                                  ../libssl_s.a(tls13Encode.o)
tls13AddPeerKeyShareGroup                         ../libssl_s.a(tls13KeyAgree.o)
                                                  ../libssl_s.a(extDecode.o)
tls13AddPeerSupportedGroup                        ../libssl_s.a(tls13KeyAgree.o)
                                                  ../libssl_s.a(extDecode.o)
tls13AddPskToList                                 ../libssl_s.a(tls13Psk.o)
tls13AddSessionPsk                                ../libssl_s.a(tls13Psk.o)
                                                  ../libssl_s.a(tls13Resume.o)
tls13ChooseSigAlg                                 ../libssl_s.a(tls13SigVer.o)
                                                  ../libssl_s.a(tls13Encode.o)
tls13CipherIdToHmacAlg                            ../libssl_s.a(tls13CipherSuite.o)
                                                  ../libssl_s.a(tls13Psk.o)
tls13ClearHsState                                 ../libssl_s.a(tls13Resume.o)
                                                  ../libssl_s.a(tls13Decode.o)
                                                  ../libssl_s.a(tls13Encode.o)
tls13ClearPeerSupportedGroupList                  ../libssl_s.a(tls13KeyAgree.o)
tls13DecryptTicket                                ../libssl_s.a(tls13Resume.o)
                                                  ../libssl_s.a(tls13Psk.o)
tls13DeriveAppKeys                                ../libssl_s.a(tls13KeySchedule.o)
                                                  ../libssl_s.a(tls13Encode.o)
tls13DeriveAppTrafficSecrets                      ../libssl_s.a(tls13KeySchedule.o)
                                                  ../libssl_s.a(tls13Encode.o)
tls13DeriveBinderKey                              ../libssl_s.a(tls13KeySchedule.o)
                                                  ../libssl_s.a(tls13DecodeExt.o)
                                                  ../libssl_s.a(tls13EncodeExt.o)
tls13DeriveEarlyDataKeys                          ../libssl_s.a(tls13KeySchedule.o)
                                                  ../libssl_s.a(tls13Encode.o)
tls13DeriveEarlyDataSecret                        ../libssl_s.a(tls13KeySchedule.o)
                                                  ../libssl_s.a(tls13Encode.o)
tls13DeriveEarlySecrets                           ../libssl_s.a(tls13KeySchedule.o)
                                                  ../libssl_s.a(tls13DecodeExt.o)
                                                  ../libssl_s.a(tls13EncodeExt.o)
tls13DeriveFinishedKey                            ../libssl_s.a(tls13KeySchedule.o)
                                                  ../libssl_s.a(tls13Decode.o)
                                                  ../libssl_s.a(tls13Encode.o)
tls13DeriveHandshakeKeys                          ../libssl_s.a(tls13KeySchedule.o)
                                                  ../libssl_s.a(tls13Decode.o)
                                                  ../libssl_s.a(tls13Encode.o)
tls13DeriveHandshakeTrafficSecrets                ../libssl_s.a(tls13KeySchedule.o)
                                                  ../libssl_s.a(tls13Decode.o)
                                                  ../libssl_s.a(tls13Encode.o)
tls13DeriveResumptionMasterSecret                 ../libssl_s.a(tls13KeySchedule.o)
                                                  ../libssl_s.a(tls13Decode.o)
                                                  ../libssl_s.a(tls13Encode.o)
tls13DeriveResumptionPsk                          ../libssl_s.a(tls13Resume.o)
                                                  ../libssl_s.a(tls13Decode.o)
tls13DeriveSecret                                 ../libssl_s.a(tls13KeySchedule.o)
tls13EncodeAlert                                  ../libssl_s.a(tls13Encode.o)
                                                  ../libssl_s.a(tls13Decode.o)
                                                  ../libssl_s.a(sslEncode.o)
tls13EncodeAppData                                ../libssl_s.a(tls13Encode.o)
                                                  ../libssl_s.a(sslEncode.o)
tls13EncodeResponse                               ../libssl_s.a(tls13Encode.o)
                                                  ../libssl_s.a(sslEncode.o)
tls13EncryptMessage                               ../libssl_s.a(tls13Encode.o)
                                                  ../libssl_s.a(sslEncode.o)
tls13EstimateNextFlightSize                       ../libssl_s.a(tls13Encode.o)
                                                  ../libssl_s.a(sslEncode.o)
tls13ExportPublicValue                            ../libssl_s.a(tls13KeyAgree.o)
                                                  ../libssl_s.a(tls13EncodeExt.o)
tls13ExportState                                  ../libssl_s.a(tls13Resume.o)
tls13ExtensionAllowedInMessage                    ../libssl_s.a(tls13DecodeExt.o)
                                                  ../libssl_s.a(tls13Decode.o)
tls13FillInPskBinders                             ../libssl_s.a(tls13EncodeExt.o)
                                                  ../libssl_s.a(tls13Encode.o)
tls13FindSessionPsk                               ../libssl_s.a(tls13Psk.o)
                                                  ../libssl_s.a(tls13Resume.o)
                                                  ../libssl_s.a(tls13DecodeExt.o)
                                                  ../libssl_s.a(tls13Decode.o)
tls13FreePsk                                      ../libssl_s.a(tls13Psk.o)
                                                  ../libssl_s.a(tls13Resume.o)
                                                  ../libssl_s.a(tls13Decode.o)
                                                  ../libssl_s.a(matrixsslApi.o)
                                                  ../libssl_s.a(matrixsslKeys.o)
                                                  ../libssl_s.a(matrixssl.o)
tls13GenSharedSecret                              ../libssl_s.a(tls13KeyAgree.o)
                                                  ../libssl_s.a(tls13KeySchedule.o)
tls13GenerateEarlySecret                          ../libssl_s.a(tls13KeySchedule.o)
                                                  ../libssl_s.a(tls13Decode.o)
tls13GenerateEcdheKey                             ../libssl_s.a(tls13KeyAgree.o)
tls13GenerateEphemeralKeys                        ../libssl_s.a(tls13KeyAgree.o)
                                                  ../libssl_s.a(tls13EncodeExt.o)
tls13GetCipherHashSize                            ../libssl_s.a(tls13CipherSuite.o)
                                                  ../libssl_s.a(tls13KeySchedule.o)
                                                  ../libssl_s.a(tls13Encode.o)
tls13GetCipherHmacAlg                             ../libssl_s.a(tls13CipherSuite.o)
                                                  ../libssl_s.a(tls13KeySchedule.o)
                                                  ../libssl_s.a(tls13DecodeExt.o)
                                                  ../libssl_s.a(tls13Decode.o)
                                                  ../libssl_s.a(tls13EncodeExt.o)
                                                  ../libssl_s.a(tls13Encode.o)
tls13GetCurrSessParams                            ../libssl_s.a(tls13Resume.o)
tls13GetDefaultGroups                             ../libssl_s.a(tlsDefaults.o)
                                                  ../libssl_s.a(matrixssl.o)
tls13GetDefaultSigAlgsCert                        ../libssl_s.a(tlsDefaults.o)
                                                  ../libssl_s.a(matrixssl.o)
tls13GetGroupKey                                  ../libssl_s.a(tls13KeyAgree.o)
                                                  ../libssl_s.a(tls13DecodeExt.o)
                                                  ../libssl_s.a(tls13EncodeExt.o)
tls13GetPadLen                                    ../libssl_s.a(tls13Encode.o)
                                                  ../libssl_s.a(sslEncode.o)
tls13GetPskHashLen                                ../libssl_s.a(tls13Psk.o)
                                                  ../libssl_s.a(tls13KeySchedule.o)
                                                  ../libssl_s.a(tls13DecodeExt.o)
                                                  ../libssl_s.a(tls13EncodeExt.o)
tls13GetPskHmacAlg                                ../libssl_s.a(tls13Psk.o)
                                                  ../libssl_s.a(tls13KeySchedule.o)
                                                  ../libssl_s.a(tls13DecodeExt.o)
                                                  ../libssl_s.a(tls13EncodeExt.o)
                                                  ../libssl_s.a(tls13Encode.o)
tls13HandleUserCertCbResult                       ../libssl_s.a(tls13Authenticate.o)
tls13ImportPublicValue                            ../libssl_s.a(tls13KeyAgree.o)
                                                  ../libssl_s.a(extDecode.o)
                                                  ../libssl_s.a(tls13DecodeExt.o)
tls13ImportState                                  ../libssl_s.a(tls13Resume.o)
tls13IntersectionPrioritySelect                   ../libssl_s.a(tls13KeyAgree.o)
                                                  ../libssl_s.a(hsNegotiateVersion.o)
tls13IntersectionPrioritySelectU16                ../libssl_s.a(tls13KeyAgree.o)
                                                  ../libssl_s.a(tls13SigVer.o)
tls13IsEcdsaSigAlg                                ../libssl_s.a(tls13SigVer.o)
                                                  ../libssl_s.a(tls13Negotiate.o)
                                                  ../libssl_s.a(tls13Encode.o)
tls13IsInsecureSigAlg                             ../libssl_s.a(tls13SigVer.o)
                                                  ../libssl_s.a(tls13Negotiate.o)
tls13IsRsaPssSigAlg                               ../libssl_s.a(tls13SigVer.o)
tls13IsRsaSigAlg                                  ../libssl_s.a(tls13SigVer.o)
                                                  ../libssl_s.a(tls13Negotiate.o)
                                                  ../libssl_s.a(tls13Encode.o)
tls13LoadDhParams                                 ../libssl_s.a(tls13KeyAgree.o)
tls13LoadSessionPsks                              ../libssl_s.a(tls13Psk.o)
                                                  ../libssl_s.a(matrixssl.o)
tls13NegotiateGroup                               ../libssl_s.a(tls13KeyAgree.o)
tls13NewPsk                                       ../libssl_s.a(tls13Psk.o)
                                                  ../libssl_s.a(tls13Resume.o)
                                                  ../libssl_s.a(tls13Decode.o)
tls13NewTicket                                    ../libssl_s.a(tls13Resume.o)
                                                  ../libssl_s.a(tls13Encode.o)
tls13ParseCertificateAuthorities                  ../libssl_s.a(tls13DecodeExt.o)
                                                  ../libssl_s.a(tls13Decode.o)
tls13ParseCookie                                  ../libssl_s.a(tls13DecodeExt.o)
                                                  ../libssl_s.a(extDecode.o)
tls13ParseEarlyData                               ../libssl_s.a(tls13DecodeExt.o)
                                                  ../libssl_s.a(tls13Decode.o)
tls13ParseEncryptedExtensions                     ../libssl_s.a(tls13DecodeExt.o)
                                                  ../libssl_s.a(tls13Decode.o)
tls13ParseExtensions                              ../libssl_s.a(tls13DecodeExt.o)
                                                  ../libssl_s.a(tls13Decode.o)
tls13ParsePreSharedKey                            ../libssl_s.a(tls13DecodeExt.o)
                                                  ../libssl_s.a(extDecode.o)
tls13ParsePskKeyExchangeModes                     ../libssl_s.a(tls13DecodeExt.o)
                                                  ../libssl_s.a(extDecode.o)
tls13ParseServerHelloExtensions                   ../libssl_s.a(tls13DecodeExt.o)
                                                  ../libssl_s.a(tls13Decode.o)
tls13ParseSignatureAlgorithms                     ../libssl_s.a(tls13DecodeExt.o)
                                                  ../libssl_s.a(extDecode.o)
                                                  ../libssl_s.a(tls13Decode.o)
tls13ParseSingleExtension                         ../libssl_s.a(tls13DecodeExt.o)
tls13ParseStatusRequest                           ../libssl_s.a(tls13DecodeExt.o)
tls13ParseSupportedVersions                       ../libssl_s.a(tls13DecodeExt.o)
                                                  ../libssl_s.a(extDecode.o)
tls13PeerSupportsGroup                            ../libssl_s.a(tls13KeyAgree.o)
tls13RequiresPreHash                              ../libssl_s.a(tls13SigVer.o)
tls13ResetState                                   ../libssl_s.a(tls13Encode.o)
tls13ServerChooseGroup                            ../libssl_s.a(tls13KeyAgree.o)
tls13ServerChooseHelloRetryRequestGroup           ../libssl_s.a(tls13KeyAgree.o)
                                                  ../libssl_s.a(tls13EncodeExt.o)
tls13Sign                                         ../libssl_s.a(tls13SigVer.o)
                                                  ../libssl_s.a(tls13Encode.o)
tls13StorePsk                                     ../libssl_s.a(tls13Resume.o)
                                                  ../libssl_s.a(tls13Decode.o)
tls13TranscriptHashFinish                         ../libssl_s.a(tls13TrHash.o)
tls13TranscriptHashInit                           ../libssl_s.a(tls13TrHash.o)
                                                  ../libssl_s.a(hsHash.o)
tls13TranscriptHashReinit                         ../libssl_s.a(tls13TrHash.o)
                                                  ../libssl_s.a(tls13Decode.o)
                                                  ../libssl_s.a(tls13Encode.o)
tls13TranscriptHashSnapshot                       ../libssl_s.a(tls13TrHash.o)
                                                  ../libssl_s.a(tls13DecodeExt.o)
                                                  ../libssl_s.a(tls13Decode.o)
                                                  ../libssl_s.a(tls13Encode.o)
tls13TranscriptHashSnapshotAlg                    ../libssl_s.a(tls13TrHash.o)
                                                  ../libssl_s.a(tls13Encode.o)
tls13TranscriptHashUpdate                         ../libssl_s.a(tls13TrHash.o)
                                                  ../libssl_s.a(tls13DecodeExt.o)
                                                  ../libssl_s.a(tls13Decode.o)
                                                  ../libssl_s.a(tls13Encode.o)
                                                  ../libssl_s.a(sslDecode.o)
tls13TryNegotiateParams                           ../libssl_s.a(tls13Negotiate.o)
                                                  ../libssl_s.a(cipherSuite.o)
tls13ValidateCertChain                            ../libssl_s.a(tls13Authenticate.o)
                                                  ../libssl_s.a(tls13Decode.o)
tls13ValidateSessionParams                        ../libssl_s.a(tls13Resume.o)
                                                  ../libssl_s.a(tls13Encode.o)
tls13Verify                                       ../libssl_s.a(tls13SigVer.o)
                                                  ../libssl_s.a(tls13Decode.o)
                                                  ../libssl_s.a(tls13Encode.o)
tls13WeSupportGroup                               ../libssl_s.a(tls13KeyAgree.o)
                                                  ../libssl_s.a(extDecode.o)
                                                  ../libssl_s.a(tls13DecodeExt.o)
tls13WriteCertificateAuthorities                  ../libssl_s.a(tls13EncodeExt.o)
                                                  ../libssl_s.a(tls13Encode.o)
tls13WriteClientHello                             ../libssl_s.a(tls13Encode.o)
                                                  ../libssl_s.a(matrixsslApi.o)
tls13WriteClientHelloExtensions                   ../libssl_s.a(tls13EncodeExt.o)
                                                  ../libssl_s.a(tls13Encode.o)
tls13WriteEarlyData                               ../libssl_s.a(tls13EncodeExt.o)
                                                  ../libssl_s.a(tls13Encode.o)
tls13WriteOCSPStatusRequest                       ../libssl_s.a(tls13EncodeExt.o)
                                                  ../libssl_s.a(tls13Encode.o)
tls13WriteServerHelloExtensions                   ../libssl_s.a(tls13EncodeExt.o)
                                                  ../libssl_s.a(tls13Encode.o)
tls13WriteSigAlgs                                 ../libssl_s.a(tls13EncodeExt.o)
                                                  ../libssl_s.a(tls13Encode.o)
tls13WriteUserExtensions                          ../libssl_s.a(tls13EncodeExt.o)
tls13sslTest                                      sslTest.o
tlsDeriveKeys                                     ../libssl_s.a(tls.o)
tlsExtendedDeriveKeys                             ../libssl_s.a(tls.o)
                                                  ../libssl_s.a(hsDecode.o)
                                                  ../libssl_s.a(sslEncode.o)
tlsHMACSha1                                       ../libssl_s.a(tls.o)
                                                  ../libssl_s.a(cipherSuite.o)
tlsHMACSha2                                       ../libssl_s.a(tls.o)
                                                  ../libssl_s.a(cipherSuite.o)
tlsIsSupportedEcdsaSigAlg                         ../libssl_s.a(tlsSigVer.o)
tlsIsSupportedRsaSigAlg                           ../libssl_s.a(tlsSigVer.o)
tlsMakeSkeSignature                               ../libssl_s.a(tlsSigVer.o)
                                                  ../libssl_s.a(sslEncode.o)
tlsParseSignatureAlgorithms                       ../libssl_s.a(extDecode.o)
tlsPrepareSkeSignature                            ../libssl_s.a(tlsSigVer.o)
                                                  ../libssl_s.a(sslEncode.o)
tlsSigAlgToHashLen                                ../libssl_s.a(tlsSigVer.o)
tlsSigAlgToMatrix                                 ../libssl_s.a(tlsSigVer.o)
tlsVerify                                         ../libssl_s.a(tlsSigVer.o)
                                                  ../libssl_s.a(hsDecode.o)
tmpfile64                                         /lib/x86_64-linux-gnu/libc.so.6
tmpfile64@@GLIBC_2.2.5                            /lib/x86_64-linux-gnu/libc.so.6
tmpfile64@GLIBC_2.2.5                             /lib/x86_64-linux-gnu/libc.so.6
tolower_l                                         /lib/x86_64-linux-gnu/libc.so.6
tolower_l@@GLIBC_2.3                              /lib/x86_64-linux-gnu/libc.so.6
tolower_l@GLIBC_2.3                               /lib/x86_64-linux-gnu/libc.so.6
toupper_l                                         /lib/x86_64-linux-gnu/libc.so.6
toupper_l@@GLIBC_2.3                              /lib/x86_64-linux-gnu/libc.so.6
toupper_l@GLIBC_2.3                               /lib/x86_64-linux-gnu/libc.so.6
towctrans                                         /lib/x86_64-linux-gnu/libc.so.6
towctrans@@GLIBC_2.2.5                            /lib/x86_64-linux-gnu/libc.so.6
towctrans@GLIBC_2.2.5                             /lib/x86_64-linux-gnu/libc.so.6
towctrans_l                                       /lib/x86_64-linux-gnu/libc.so.6
towctrans_l@@GLIBC_2.3                            /lib/x86_64-linux-gnu/libc.so.6
towctrans_l@GLIBC_2.3                             /lib/x86_64-linux-gnu/libc.so.6
towlower                                          /lib/x86_64-linux-gnu/libc.so.6
towlower@@GLIBC_2.2.5                             /lib/x86_64-linux-gnu/libc.so.6
towlower@GLIBC_2.2.5                              /lib/x86_64-linux-gnu/libc.so.6
towlower_l                                        /lib/x86_64-linux-gnu/libc.so.6
towlower_l@@GLIBC_2.3                             /lib/x86_64-linux-gnu/libc.so.6
towlower_l@GLIBC_2.3                              /lib/x86_64-linux-gnu/libc.so.6
towupper                                          /lib/x86_64-linux-gnu/libc.so.6
towupper@@GLIBC_2.2.5                             /lib/x86_64-linux-gnu/libc.so.6
towupper@GLIBC_2.2.5                              /lib/x86_64-linux-gnu/libc.so.6
towupper_l                                        /lib/x86_64-linux-gnu/libc.so.6
towupper_l@@GLIBC_2.3                             /lib/x86_64-linux-gnu/libc.so.6
towupper_l@GLIBC_2.3                              /lib/x86_64-linux-gnu/libc.so.6
truncate                                          /lib/x86_64-linux-gnu/libc.so.6
truncate64                                        /lib/x86_64-linux-gnu/libc.so.6
truncate64@@GLIBC_2.2.5                           /lib/x86_64-linux-gnu/libc.so.6
truncate64@GLIBC_2.2.5                            /lib/x86_64-linux-gnu/libc.so.6
truncate@@GLIBC_2.2.5                             /lib/x86_64-linux-gnu/libc.so.6
truncate@GLIBC_2.2.5                              /lib/x86_64-linux-gnu/libc.so.6
tsearch                                           /lib/x86_64-linux-gnu/libc.so.6
tsearch@@GLIBC_2.2.5                              /lib/x86_64-linux-gnu/libc.so.6
tsearch@GLIBC_2.2.5                               /lib/x86_64-linux-gnu/libc.so.6
ttyname_r                                         /lib/x86_64-linux-gnu/libc.so.6
ttyname_r@@GLIBC_2.2.5                            /lib/x86_64-linux-gnu/libc.so.6
ttyname_r@GLIBC_2.2.5                             /lib/x86_64-linux-gnu/libc.so.6
twalk                                             /lib/x86_64-linux-gnu/libc.so.6
twalk@@GLIBC_2.2.5                                /lib/x86_64-linux-gnu/libc.so.6
twalk@GLIBC_2.2.5                                 /lib/x86_64-linux-gnu/libc.so.6
twalk_r                                           /lib/x86_64-linux-gnu/libc.so.6
twalk_r@@GLIBC_2.30                               /lib/x86_64-linux-gnu/libc.so.6
twalk_r@GLIBC_2.30                                /lib/x86_64-linux-gnu/libc.so.6
tzname                                            /lib/x86_64-linux-gnu/libc.so.6
tzname@@GLIBC_2.2.5                               /lib/x86_64-linux-gnu/libc.so.6
tzname@GLIBC_2.2.5                                /lib/x86_64-linux-gnu/libc.so.6
tzset                                             /lib/x86_64-linux-gnu/libc.so.6
tzset@@GLIBC_2.2.5                                /lib/x86_64-linux-gnu/libc.so.6
tzset@GLIBC_2.2.5                                 /lib/x86_64-linux-gnu/libc.so.6
ulckpwdf                                          /lib/x86_64-linux-gnu/libc.so.6
ulckpwdf@@GLIBC_2.2.5                             /lib/x86_64-linux-gnu/libc.so.6
ulckpwdf@GLIBC_2.2.5                              /lib/x86_64-linux-gnu/libc.so.6
ulimit                                            /lib/x86_64-linux-gnu/libc.so.6
ulimit@@GLIBC_2.2.5                               /lib/x86_64-linux-gnu/libc.so.6
ulimit@GLIBC_2.2.5                                /lib/x86_64-linux-gnu/libc.so.6
umask                                             /lib/x86_64-linux-gnu/libc.so.6
umask@@GLIBC_2.2.5                                /lib/x86_64-linux-gnu/libc.so.6
umask@GLIBC_2.2.5                                 /lib/x86_64-linux-gnu/libc.so.6
umount                                            /lib/x86_64-linux-gnu/libc.so.6
umount2                                           /lib/x86_64-linux-gnu/libc.so.6
umount2@@GLIBC_2.2.5                              /lib/x86_64-linux-gnu/libc.so.6
umount2@GLIBC_2.2.5                               /lib/x86_64-linux-gnu/libc.so.6
umount@@GLIBC_2.2.5                               /lib/x86_64-linux-gnu/libc.so.6
umount@GLIBC_2.2.5                                /lib/x86_64-linux-gnu/libc.so.6
uname                                             /lib/x86_64-linux-gnu/libc.so.6
uname@@GLIBC_2.2.5                                /lib/x86_64-linux-gnu/libc.so.6
uname@GLIBC_2.2.5                                 /lib/x86_64-linux-gnu/libc.so.6
ungetc                                            /lib/x86_64-linux-gnu/libc.so.6
ungetc@@GLIBC_2.2.5                               /lib/x86_64-linux-gnu/libc.so.6
ungetc@GLIBC_2.2.5                                /lib/x86_64-linux-gnu/libc.so.6
unlink                                            /lib/x86_64-linux-gnu/libc.so.6
unlink@@GLIBC_2.2.5                               /lib/x86_64-linux-gnu/libc.so.6
unlink@GLIBC_2.2.5                                /lib/x86_64-linux-gnu/libc.so.6
                                                  /usr/lib/gcc/x86_64-linux-gnu/11/../../../x86_64-linux-gnu/libpthread.so
unsetenv                                          /lib/x86_64-linux-gnu/libc.so.6
unsetenv@@GLIBC_2.2.5                             /lib/x86_64-linux-gnu/libc.so.6
unsetenv@GLIBC_2.2.5                              /lib/x86_64-linux-gnu/libc.so.6
updwtmp                                           /lib/x86_64-linux-gnu/libc.so.6
updwtmp@@GLIBC_2.2.5                              /lib/x86_64-linux-gnu/libc.so.6
updwtmp@GLIBC_2.2.5                               /lib/x86_64-linux-gnu/libc.so.6
upgradeSigAlg                                     ../libssl_s.a(tlsSigVer.o)
uselocale                                         /lib/x86_64-linux-gnu/libc.so.6
uselocale@@GLIBC_2.3                              /lib/x86_64-linux-gnu/libc.so.6
uselocale@GLIBC_2.3                               /lib/x86_64-linux-gnu/libc.so.6
userSuppliedEccList                               ../../crypto/libcrypt_s.a(ecc_curve_config.o)
                                                  ../libssl_s.a(sslEncode.o)
utimensat                                         /lib/x86_64-linux-gnu/libc.so.6
utimensat@@GLIBC_2.6                              /lib/x86_64-linux-gnu/libc.so.6
utimensat@GLIBC_2.6                               /lib/x86_64-linux-gnu/libc.so.6
utimes                                            /lib/x86_64-linux-gnu/libc.so.6
utimes@@GLIBC_2.2.5                               /lib/x86_64-linux-gnu/libc.so.6
utimes@GLIBC_2.2.5                                /lib/x86_64-linux-gnu/libc.so.6
utmpname                                          /lib/x86_64-linux-gnu/libc.so.6
utmpname@@GLIBC_2.2.5                             /lib/x86_64-linux-gnu/libc.so.6
utmpname@GLIBC_2.2.5                              /lib/x86_64-linux-gnu/libc.so.6
validateDateRange                                 ../../crypto/libcrypt_s.a(x509.o)
                                                  ../libssl_s.a(matrixssl.o)
valloc                                            /lib/x86_64-linux-gnu/libc.so.6
valloc@@GLIBC_2.2.5                               /lib/x86_64-linux-gnu/libc.so.6
valloc@GLIBC_2.2.5                                /lib/x86_64-linux-gnu/libc.so.6
vasprintf                                         /lib/x86_64-linux-gnu/libc.so.6
vasprintf@@GLIBC_2.2.5                            /lib/x86_64-linux-gnu/libc.so.6
vasprintf@GLIBC_2.2.5                             /lib/x86_64-linux-gnu/libc.so.6
vdprintf                                          /lib/x86_64-linux-gnu/libc.so.6
vdprintf@@GLIBC_2.2.5                             /lib/x86_64-linux-gnu/libc.so.6
vdprintf@GLIBC_2.2.5                              /lib/x86_64-linux-gnu/libc.so.6
versionsort                                       /lib/x86_64-linux-gnu/libc.so.6
versionsort64                                     /lib/x86_64-linux-gnu/libc.so.6
versionsort64@@GLIBC_2.2.5                        /lib/x86_64-linux-gnu/libc.so.6
versionsort64@GLIBC_2.2.5                         /lib/x86_64-linux-gnu/libc.so.6
versionsort@@GLIBC_2.2.5                          /lib/x86_64-linux-gnu/libc.so.6
versionsort@GLIBC_2.2.5                           /lib/x86_64-linux-gnu/libc.so.6
vfork                                             /lib/x86_64-linux-gnu/libc.so.6
vfork@@GLIBC_2.2.5                                /lib/x86_64-linux-gnu/libc.so.6
vfork@GLIBC_2.2.5                                 /lib/x86_64-linux-gnu/libc.so.6
vfscanf                                           /lib/x86_64-linux-gnu/libc.so.6
vfscanf@@GLIBC_2.2.5                              /lib/x86_64-linux-gnu/libc.so.6
vfscanf@GLIBC_2.2.5                               /lib/x86_64-linux-gnu/libc.so.6
vfwprintf                                         /lib/x86_64-linux-gnu/libc.so.6
vfwprintf@@GLIBC_2.2.5                            /lib/x86_64-linux-gnu/libc.so.6
vfwprintf@GLIBC_2.2.5                             /lib/x86_64-linux-gnu/libc.so.6
vfwscanf                                          /lib/x86_64-linux-gnu/libc.so.6
vfwscanf@@GLIBC_2.2.5                             /lib/x86_64-linux-gnu/libc.so.6
vfwscanf@GLIBC_2.2.5                              /lib/x86_64-linux-gnu/libc.so.6
vscanf                                            /lib/x86_64-linux-gnu/libc.so.6
vscanf@@GLIBC_2.2.5                               /lib/x86_64-linux-gnu/libc.so.6
vscanf@GLIBC_2.2.5                                /lib/x86_64-linux-gnu/libc.so.6
vsnprintf                                         /lib/x86_64-linux-gnu/libc.so.6
vsnprintf@@GLIBC_2.2.5                            /lib/x86_64-linux-gnu/libc.so.6
vsnprintf@GLIBC_2.2.5                             /lib/x86_64-linux-gnu/libc.so.6
vsprintf                                          /lib/x86_64-linux-gnu/libc.so.6
vsprintf@@GLIBC_2.2.5                             /lib/x86_64-linux-gnu/libc.so.6
vsprintf@GLIBC_2.2.5                              /lib/x86_64-linux-gnu/libc.so.6
vsscanf                                           /lib/x86_64-linux-gnu/libc.so.6
vsscanf@@GLIBC_2.2.5                              /lib/x86_64-linux-gnu/libc.so.6
vsscanf@GLIBC_2.2.5                               /lib/x86_64-linux-gnu/libc.so.6
vswprintf                                         /lib/x86_64-linux-gnu/libc.so.6
vswprintf@@GLIBC_2.2.5                            /lib/x86_64-linux-gnu/libc.so.6
vswprintf@GLIBC_2.2.5                             /lib/x86_64-linux-gnu/libc.so.6
vswscanf                                          /lib/x86_64-linux-gnu/libc.so.6
vswscanf@@GLIBC_2.2.5                             /lib/x86_64-linux-gnu/libc.so.6
vswscanf@GLIBC_2.2.5                              /lib/x86_64-linux-gnu/libc.so.6
vsyslog                                           /lib/x86_64-linux-gnu/libc.so.6
vsyslog@@GLIBC_2.2.5                              /lib/x86_64-linux-gnu/libc.so.6
vsyslog@GLIBC_2.2.5                               /lib/x86_64-linux-gnu/libc.so.6
wait                                              /lib/x86_64-linux-gnu/libc.so.6
wait3                                             /lib/x86_64-linux-gnu/libc.so.6
wait3@@GLIBC_2.2.5                                /lib/x86_64-linux-gnu/libc.so.6
wait3@GLIBC_2.2.5                                 /lib/x86_64-linux-gnu/libc.so.6
wait4                                             /lib/x86_64-linux-gnu/libc.so.6
wait4@@GLIBC_2.2.5                                /lib/x86_64-linux-gnu/libc.so.6
wait4@GLIBC_2.2.5                                 /lib/x86_64-linux-gnu/libc.so.6
wait@@GLIBC_2.2.5                                 /lib/x86_64-linux-gnu/libc.so.6
wait@GLIBC_2.2.5                                  /lib/x86_64-linux-gnu/libc.so.6
waitid                                            /lib/x86_64-linux-gnu/libc.so.6
waitid@@GLIBC_2.2.5                               /lib/x86_64-linux-gnu/libc.so.6
waitid@GLIBC_2.2.5                                /lib/x86_64-linux-gnu/libc.so.6
waitpid                                           /lib/x86_64-linux-gnu/libc.so.6
waitpid@@GLIBC_2.2.5                              /lib/x86_64-linux-gnu/libc.so.6
waitpid@GLIBC_2.2.5                               /lib/x86_64-linux-gnu/libc.so.6
wcpcpy                                            /lib/x86_64-linux-gnu/libc.so.6
wcpcpy@@GLIBC_2.2.5                               /lib/x86_64-linux-gnu/libc.so.6
wcpcpy@GLIBC_2.2.5                                /lib/x86_64-linux-gnu/libc.so.6
wcpncpy                                           /lib/x86_64-linux-gnu/libc.so.6
wcpncpy@@GLIBC_2.2.5                              /lib/x86_64-linux-gnu/libc.so.6
wcpncpy@GLIBC_2.2.5                               /lib/x86_64-linux-gnu/libc.so.6
wcrtomb                                           /lib/x86_64-linux-gnu/libc.so.6
wcrtomb@@GLIBC_2.2.5                              /lib/x86_64-linux-gnu/libc.so.6
wcrtomb@GLIBC_2.2.5                               /lib/x86_64-linux-gnu/libc.so.6
wcscasecmp                                        /lib/x86_64-linux-gnu/libc.so.6
wcscasecmp@@GLIBC_2.2.5                           /lib/x86_64-linux-gnu/libc.so.6
wcscasecmp@GLIBC_2.2.5                            /lib/x86_64-linux-gnu/libc.so.6
wcscasecmp_l                                      /lib/x86_64-linux-gnu/libc.so.6
wcscasecmp_l@@GLIBC_2.3                           /lib/x86_64-linux-gnu/libc.so.6
wcscasecmp_l@GLIBC_2.3                            /lib/x86_64-linux-gnu/libc.so.6
wcscat                                            /lib/x86_64-linux-gnu/libc.so.6
wcscat@@GLIBC_2.2.5                               /lib/x86_64-linux-gnu/libc.so.6
wcscat@GLIBC_2.2.5                                /lib/x86_64-linux-gnu/libc.so.6
wcschr                                            /lib/x86_64-linux-gnu/libc.so.6
wcschr@@GLIBC_2.2.5                               /lib/x86_64-linux-gnu/libc.so.6
wcschr@GLIBC_2.2.5                                /lib/x86_64-linux-gnu/libc.so.6
wcschrnul                                         /lib/x86_64-linux-gnu/libc.so.6
wcschrnul@@GLIBC_2.2.5                            /lib/x86_64-linux-gnu/libc.so.6
wcschrnul@GLIBC_2.2.5                             /lib/x86_64-linux-gnu/libc.so.6
wcscmp                                            /lib/x86_64-linux-gnu/libc.so.6
wcscmp@@GLIBC_2.2.5                               /lib/x86_64-linux-gnu/libc.so.6
wcscmp@GLIBC_2.2.5                                /lib/x86_64-linux-gnu/libc.so.6
wcscoll                                           /lib/x86_64-linux-gnu/libc.so.6
wcscoll@@GLIBC_2.2.5                              /lib/x86_64-linux-gnu/libc.so.6
wcscoll@GLIBC_2.2.5                               /lib/x86_64-linux-gnu/libc.so.6
wcscoll_l                                         /lib/x86_64-linux-gnu/libc.so.6
wcscoll_l@@GLIBC_2.3                              /lib/x86_64-linux-gnu/libc.so.6
wcscoll_l@GLIBC_2.3                               /lib/x86_64-linux-gnu/libc.so.6
wcscpy                                            /lib/x86_64-linux-gnu/libc.so.6
wcscpy@@GLIBC_2.2.5                               /lib/x86_64-linux-gnu/libc.so.6
wcscpy@GLIBC_2.2.5                                /lib/x86_64-linux-gnu/libc.so.6
wcsftime_l                                        /lib/x86_64-linux-gnu/libc.so.6
wcsftime_l@@GLIBC_2.3                             /lib/x86_64-linux-gnu/libc.so.6
wcsftime_l@GLIBC_2.3                              /lib/x86_64-linux-gnu/libc.so.6
wcslen                                            /lib/x86_64-linux-gnu/libc.so.6
wcslen@@GLIBC_2.2.5                               /lib/x86_64-linux-gnu/libc.so.6
wcslen@GLIBC_2.2.5                                /lib/x86_64-linux-gnu/libc.so.6
wcsncasecmp                                       /lib/x86_64-linux-gnu/libc.so.6
wcsncasecmp@@GLIBC_2.2.5                          /lib/x86_64-linux-gnu/libc.so.6
wcsncasecmp@GLIBC_2.2.5                           /lib/x86_64-linux-gnu/libc.so.6
wcsncasecmp_l                                     /lib/x86_64-linux-gnu/libc.so.6
wcsncasecmp_l@@GLIBC_2.3                          /lib/x86_64-linux-gnu/libc.so.6
wcsncasecmp_l@GLIBC_2.3                           /lib/x86_64-linux-gnu/libc.so.6
wcsncpy                                           /lib/x86_64-linux-gnu/libc.so.6
wcsncpy@@GLIBC_2.2.5                              /lib/x86_64-linux-gnu/libc.so.6
wcsncpy@GLIBC_2.2.5                               /lib/x86_64-linux-gnu/libc.so.6
wcsnlen                                           /lib/x86_64-linux-gnu/libc.so.6
wcsnlen@@GLIBC_2.2.5                              /lib/x86_64-linux-gnu/libc.so.6
wcsnlen@GLIBC_2.2.5                               /lib/x86_64-linux-gnu/libc.so.6
wcsnrtombs                                        /lib/x86_64-linux-gnu/libc.so.6
wcsnrtombs@@GLIBC_2.2.5                           /lib/x86_64-linux-gnu/libc.so.6
wcsnrtombs@GLIBC_2.2.5                            /lib/x86_64-linux-gnu/libc.so.6
wcsrtombs                                         /lib/x86_64-linux-gnu/libc.so.6
wcsrtombs@@GLIBC_2.2.5                            /lib/x86_64-linux-gnu/libc.so.6
wcsrtombs@GLIBC_2.2.5                             /lib/x86_64-linux-gnu/libc.so.6
wcstod_l                                          /lib/x86_64-linux-gnu/libc.so.6
wcstod_l@@GLIBC_2.3                               /lib/x86_64-linux-gnu/libc.so.6
wcstod_l@GLIBC_2.3                                /lib/x86_64-linux-gnu/libc.so.6
wcstof128_l                                       /lib/x86_64-linux-gnu/libc.so.6
wcstof128_l@@GLIBC_2.26                           /lib/x86_64-linux-gnu/libc.so.6
wcstof128_l@GLIBC_2.26                            /lib/x86_64-linux-gnu/libc.so.6
wcstof32                                          /lib/x86_64-linux-gnu/libc.so.6
wcstof32@@GLIBC_2.27                              /lib/x86_64-linux-gnu/libc.so.6
wcstof32@GLIBC_2.27                               /lib/x86_64-linux-gnu/libc.so.6
wcstof32_l                                        /lib/x86_64-linux-gnu/libc.so.6
wcstof32_l@@GLIBC_2.27                            /lib/x86_64-linux-gnu/libc.so.6
wcstof32_l@GLIBC_2.27                             /lib/x86_64-linux-gnu/libc.so.6
wcstof32x                                         /lib/x86_64-linux-gnu/libc.so.6
wcstof32x@@GLIBC_2.27                             /lib/x86_64-linux-gnu/libc.so.6
wcstof32x@GLIBC_2.27                              /lib/x86_64-linux-gnu/libc.so.6
wcstof32x_l                                       /lib/x86_64-linux-gnu/libc.so.6
wcstof32x_l@@GLIBC_2.27                           /lib/x86_64-linux-gnu/libc.so.6
wcstof32x_l@GLIBC_2.27                            /lib/x86_64-linux-gnu/libc.so.6
wcstof64                                          /lib/x86_64-linux-gnu/libc.so.6
wcstof64@@GLIBC_2.27                              /lib/x86_64-linux-gnu/libc.so.6
wcstof64@GLIBC_2.27                               /lib/x86_64-linux-gnu/libc.so.6
wcstof64_l                                        /lib/x86_64-linux-gnu/libc.so.6
wcstof64_l@@GLIBC_2.27                            /lib/x86_64-linux-gnu/libc.so.6
wcstof64_l@GLIBC_2.27                             /lib/x86_64-linux-gnu/libc.so.6
wcstof64x                                         /lib/x86_64-linux-gnu/libc.so.6
wcstof64x@@GLIBC_2.27                             /lib/x86_64-linux-gnu/libc.so.6
wcstof64x@GLIBC_2.27                              /lib/x86_64-linux-gnu/libc.so.6
wcstof64x_l                                       /lib/x86_64-linux-gnu/libc.so.6
wcstof64x_l@@GLIBC_2.27                           /lib/x86_64-linux-gnu/libc.so.6
wcstof64x_l@GLIBC_2.27                            /lib/x86_64-linux-gnu/libc.so.6
wcstof_l                                          /lib/x86_64-linux-gnu/libc.so.6
wcstof_l@@GLIBC_2.3                               /lib/x86_64-linux-gnu/libc.so.6
wcstof_l@GLIBC_2.3                                /lib/x86_64-linux-gnu/libc.so.6
wcstol                                            /lib/x86_64-linux-gnu/libc.so.6
wcstol@@GLIBC_2.2.5                               /lib/x86_64-linux-gnu/libc.so.6
wcstol@GLIBC_2.2.5                                /lib/x86_64-linux-gnu/libc.so.6
wcstol_l                                          /lib/x86_64-linux-gnu/libc.so.6
wcstol_l@@GLIBC_2.3                               /lib/x86_64-linux-gnu/libc.so.6
wcstol_l@GLIBC_2.3                                /lib/x86_64-linux-gnu/libc.so.6
wcstold_l                                         /lib/x86_64-linux-gnu/libc.so.6
wcstold_l@@GLIBC_2.3                              /lib/x86_64-linux-gnu/libc.so.6
wcstold_l@GLIBC_2.3                               /lib/x86_64-linux-gnu/libc.so.6
wcstoll                                           /lib/x86_64-linux-gnu/libc.so.6
wcstoll@@GLIBC_2.2.5                              /lib/x86_64-linux-gnu/libc.so.6
wcstoll@GLIBC_2.2.5                               /lib/x86_64-linux-gnu/libc.so.6
wcstoll_l                                         /lib/x86_64-linux-gnu/libc.so.6
wcstoll_l@@GLIBC_2.3                              /lib/x86_64-linux-gnu/libc.so.6
wcstoll_l@GLIBC_2.3                               /lib/x86_64-linux-gnu/libc.so.6
wcstoq                                            /lib/x86_64-linux-gnu/libc.so.6
wcstoq@@GLIBC_2.2.5                               /lib/x86_64-linux-gnu/libc.so.6
wcstoq@GLIBC_2.2.5                                /lib/x86_64-linux-gnu/libc.so.6
wcstoul                                           /lib/x86_64-linux-gnu/libc.so.6
wcstoul@@GLIBC_2.2.5                              /lib/x86_64-linux-gnu/libc.so.6
wcstoul@GLIBC_2.2.5                               /lib/x86_64-linux-gnu/libc.so.6
wcstoul_l                                         /lib/x86_64-linux-gnu/libc.so.6
wcstoul_l@@GLIBC_2.3                              /lib/x86_64-linux-gnu/libc.so.6
wcstoul_l@GLIBC_2.3                               /lib/x86_64-linux-gnu/libc.so.6
wcstoull                                          /lib/x86_64-linux-gnu/libc.so.6
wcstoull@@GLIBC_2.2.5                             /lib/x86_64-linux-gnu/libc.so.6
wcstoull@GLIBC_2.2.5                              /lib/x86_64-linux-gnu/libc.so.6
wcstoull_l                                        /lib/x86_64-linux-gnu/libc.so.6
wcstoull_l@@GLIBC_2.3                             /lib/x86_64-linux-gnu/libc.so.6
wcstoull_l@GLIBC_2.3                              /lib/x86_64-linux-gnu/libc.so.6
wcstouq                                           /lib/x86_64-linux-gnu/libc.so.6
wcstouq@@GLIBC_2.2.5                              /lib/x86_64-linux-gnu/libc.so.6
wcstouq@GLIBC_2.2.5                               /lib/x86_64-linux-gnu/libc.so.6
wcswcs                                            /lib/x86_64-linux-gnu/libc.so.6
wcswcs@@GLIBC_2.2.5                               /lib/x86_64-linux-gnu/libc.so.6
wcswcs@GLIBC_2.2.5                                /lib/x86_64-linux-gnu/libc.so.6
wcsxfrm_l                                         /lib/x86_64-linux-gnu/libc.so.6
wcsxfrm_l@@GLIBC_2.3                              /lib/x86_64-linux-gnu/libc.so.6
wcsxfrm_l@GLIBC_2.3                               /lib/x86_64-linux-gnu/libc.so.6
wctrans                                           /lib/x86_64-linux-gnu/libc.so.6
wctrans@@GLIBC_2.2.5                              /lib/x86_64-linux-gnu/libc.so.6
wctrans@GLIBC_2.2.5                               /lib/x86_64-linux-gnu/libc.so.6
wctrans_l                                         /lib/x86_64-linux-gnu/libc.so.6
wctrans_l@@GLIBC_2.3                              /lib/x86_64-linux-gnu/libc.so.6
wctrans_l@GLIBC_2.3                               /lib/x86_64-linux-gnu/libc.so.6
wctype                                            /lib/x86_64-linux-gnu/libc.so.6
wctype@@GLIBC_2.2.5                               /lib/x86_64-linux-gnu/libc.so.6
wctype@GLIBC_2.2.5                                /lib/x86_64-linux-gnu/libc.so.6
wctype_l                                          /lib/x86_64-linux-gnu/libc.so.6
wctype_l@@GLIBC_2.3                               /lib/x86_64-linux-gnu/libc.so.6
wctype_l@GLIBC_2.3                                /lib/x86_64-linux-gnu/libc.so.6
weOnlySupportTls13                                ../libssl_s.a(tls.o)
                                                  ../libssl_s.a(hsNegotiateVersion.o)
weSupportSigAlg                                   ../libssl_s.a(tlsSigVer.o)
wmemchr                                           /lib/x86_64-linux-gnu/libc.so.6
wmemchr@@GLIBC_2.2.5                              /lib/x86_64-linux-gnu/libc.so.6
wmemchr@GLIBC_2.2.5                               /lib/x86_64-linux-gnu/libc.so.6
wmemcmp                                           /lib/x86_64-linux-gnu/libc.so.6
wmemcmp@@GLIBC_2.2.5                              /lib/x86_64-linux-gnu/libc.so.6
wmemcmp@GLIBC_2.2.5                               /lib/x86_64-linux-gnu/libc.so.6
wmemcpy                                           /lib/x86_64-linux-gnu/libc.so.6
wmemcpy@@GLIBC_2.2.5                              /lib/x86_64-linux-gnu/libc.so.6
wmemcpy@GLIBC_2.2.5                               /lib/x86_64-linux-gnu/libc.so.6
wmemmove                                          /lib/x86_64-linux-gnu/libc.so.6
wmemmove@@GLIBC_2.2.5                             /lib/x86_64-linux-gnu/libc.so.6
wmemmove@GLIBC_2.2.5                              /lib/x86_64-linux-gnu/libc.so.6
wmempcpy                                          /lib/x86_64-linux-gnu/libc.so.6
wmempcpy@@GLIBC_2.2.5                             /lib/x86_64-linux-gnu/libc.so.6
wmempcpy@GLIBC_2.2.5                              /lib/x86_64-linux-gnu/libc.so.6
wmemset                                           /lib/x86_64-linux-gnu/libc.so.6
wmemset@@GLIBC_2.2.5                              /lib/x86_64-linux-gnu/libc.so.6
wmemset@GLIBC_2.2.5                               /lib/x86_64-linux-gnu/libc.so.6
write                                             /usr/lib/gcc/x86_64-linux-gnu/11/../../../x86_64-linux-gnu/libpthread.so
write@@GLIBC_2.2.5                                /usr/lib/gcc/x86_64-linux-gnu/11/../../../x86_64-linux-gnu/libpthread.so
                                                  /lib/x86_64-linux-gnu/libc.so.6
write@GLIBC_2.2.5                                 /usr/lib/gcc/x86_64-linux-gnu/11/../../../x86_64-linux-gnu/libpthread.so
writeRecordHeader                                 ../libssl_s.a(sslEncode.o)
writev                                            /lib/x86_64-linux-gnu/libc.so.6
writev@@GLIBC_2.2.5                               /lib/x86_64-linux-gnu/libc.so.6
writev@GLIBC_2.2.5                                /lib/x86_64-linux-gnu/libc.so.6
x509FreeExtensions                                ../../crypto/libcrypt_s.a(x509.o)
                                                  ../../crypto/libcrypt_s.a(crl.o)
x509NewExtensions                                 ../../crypto/libcrypt_s.a(x509.o)
zeroSixByte                                       ../libssl_s.a(dtls.o)
                                                  ../libssl_s.a(hsDecode.o)
                                                  ../libssl_s.a(sslEncode.o)
zeroTwoByte                                       ../libssl_s.a(dtls.o)
